---
triple:          'arm64-apple-darwin'
binary-path:     test_suite_asan
relocations:
  - { offsetInCU: 0x3B, offset: 0x3B, size: 0x8, addend: 0x0, symName: _.str, symObjAddr: 0x10C000, symBinAddr: 0x10010F680, symSize: 0x0 }
  - { offsetInCU: 0x6B, offset: 0x6B, size: 0x8, addend: 0x0, symName: _.str.1, symObjAddr: 0x10C060, symBinAddr: 0x10010F6E0, symSize: 0x0 }
  - { offsetInCU: 0x88, offset: 0x88, size: 0x8, addend: 0x0, symName: _.str.2, symObjAddr: 0x10C0C0, symBinAddr: 0x10010F740, symSize: 0x0 }
  - { offsetInCU: 0xA5, offset: 0xA5, size: 0x8, addend: 0x0, symName: _.str.3, symObjAddr: 0x10C120, symBinAddr: 0x10010F7A0, symSize: 0x0 }
  - { offsetInCU: 0xC2, offset: 0xC2, size: 0x8, addend: 0x0, symName: _.str.4, symObjAddr: 0x10C180, symBinAddr: 0x10010F800, symSize: 0x0 }
  - { offsetInCU: 0xDF, offset: 0xDF, size: 0x8, addend: 0x0, symName: _.str.5, symObjAddr: 0x10C1C0, symBinAddr: 0x10010F840, symSize: 0x0 }
  - { offsetInCU: 0xFC, offset: 0xFC, size: 0x8, addend: 0x0, symName: _.str.6, symObjAddr: 0x10C220, symBinAddr: 0x10010F8A0, symSize: 0x0 }
  - { offsetInCU: 0x119, offset: 0x119, size: 0x8, addend: 0x0, symName: _.str.7, symObjAddr: 0x10C280, symBinAddr: 0x10010F900, symSize: 0x0 }
  - { offsetInCU: 0x12A, offset: 0x12A, size: 0x8, addend: 0x0, symName: _.str.8, symObjAddr: 0x10C2E0, symBinAddr: 0x10010F960, symSize: 0x0 }
  - { offsetInCU: 0x147, offset: 0x147, size: 0x8, addend: 0x0, symName: _.str.9, symObjAddr: 0x10C340, symBinAddr: 0x10010F9C0, symSize: 0x0 }
  - { offsetInCU: 0x158, offset: 0x158, size: 0x8, addend: 0x0, symName: _.str.10, symObjAddr: 0x10C3A0, symBinAddr: 0x10010FA20, symSize: 0x0 }
  - { offsetInCU: 0x175, offset: 0x175, size: 0x8, addend: 0x0, symName: _.str.11, symObjAddr: 0x10C3E0, symBinAddr: 0x10010FA60, symSize: 0x0 }
  - { offsetInCU: 0x192, offset: 0x192, size: 0x8, addend: 0x0, symName: _.str.12, symObjAddr: 0x10C440, symBinAddr: 0x10010FAC0, symSize: 0x0 }
  - { offsetInCU: 0x1B0, offset: 0x1B0, size: 0x8, addend: 0x0, symName: _.str.13, symObjAddr: 0x10C4A0, symBinAddr: 0x10010FB20, symSize: 0x0 }
  - { offsetInCU: 0x1CE, offset: 0x1CE, size: 0x8, addend: 0x0, symName: _.str.14, symObjAddr: 0x10C4E0, symBinAddr: 0x10010FB60, symSize: 0x0 }
  - { offsetInCU: 0x1EC, offset: 0x1EC, size: 0x8, addend: 0x0, symName: _.str.15, symObjAddr: 0x10C540, symBinAddr: 0x10010FBC0, symSize: 0x0 }
  - { offsetInCU: 0x20A, offset: 0x20A, size: 0x8, addend: 0x0, symName: _.str.16, symObjAddr: 0x10C5A0, symBinAddr: 0x10010FC20, symSize: 0x0 }
  - { offsetInCU: 0x21C, offset: 0x21C, size: 0x8, addend: 0x0, symName: _.str.17, symObjAddr: 0x10C600, symBinAddr: 0x10010FC80, symSize: 0x0 }
  - { offsetInCU: 0x22E, offset: 0x22E, size: 0x8, addend: 0x0, symName: _.str.18, symObjAddr: 0x10C660, symBinAddr: 0x10010FCE0, symSize: 0x0 }
  - { offsetInCU: 0x240, offset: 0x240, size: 0x8, addend: 0x0, symName: _.str.19, symObjAddr: 0x10C6A0, symBinAddr: 0x10010FD20, symSize: 0x0 }
  - { offsetInCU: 0x252, offset: 0x252, size: 0x8, addend: 0x0, symName: _.str.20, symObjAddr: 0x10C700, symBinAddr: 0x10010FD80, symSize: 0x0 }
  - { offsetInCU: 0x270, offset: 0x270, size: 0x8, addend: 0x0, symName: _.str.21, symObjAddr: 0x10C760, symBinAddr: 0x10010FDE0, symSize: 0x0 }
  - { offsetInCU: 0x282, offset: 0x282, size: 0x8, addend: 0x0, symName: _.str.22, symObjAddr: 0x10C7C0, symBinAddr: 0x10010FE40, symSize: 0x0 }
  - { offsetInCU: 0x294, offset: 0x294, size: 0x8, addend: 0x0, symName: _.str.23, symObjAddr: 0x10C820, symBinAddr: 0x10010FEA0, symSize: 0x0 }
  - { offsetInCU: 0x2A6, offset: 0x2A6, size: 0x8, addend: 0x0, symName: _.str.24, symObjAddr: 0x10C880, symBinAddr: 0x10010FF00, symSize: 0x0 }
  - { offsetInCU: 0x2C4, offset: 0x2C4, size: 0x8, addend: 0x0, symName: _.str.25, symObjAddr: 0x10C8E0, symBinAddr: 0x10010FF60, symSize: 0x0 }
  - { offsetInCU: 0x2E2, offset: 0x2E2, size: 0x8, addend: 0x0, symName: _.str.26, symObjAddr: 0x10C920, symBinAddr: 0x10010FFA0, symSize: 0x0 }
  - { offsetInCU: 0x300, offset: 0x300, size: 0x8, addend: 0x0, symName: _.str.27, symObjAddr: 0x10C960, symBinAddr: 0x10010FFE0, symSize: 0x0 }
  - { offsetInCU: 0x31E, offset: 0x31E, size: 0x8, addend: 0x0, symName: _.str.28, symObjAddr: 0x10C9A0, symBinAddr: 0x100110020, symSize: 0x0 }
  - { offsetInCU: 0x33C, offset: 0x33C, size: 0x8, addend: 0x0, symName: _.str.29, symObjAddr: 0x10C9E0, symBinAddr: 0x100110060, symSize: 0x0 }
  - { offsetInCU: 0x34E, offset: 0x34E, size: 0x8, addend: 0x0, symName: _.str.30, symObjAddr: 0x10CA20, symBinAddr: 0x1001100A0, symSize: 0x0 }
  - { offsetInCU: 0x36C, offset: 0x36C, size: 0x8, addend: 0x0, symName: _.str.31, symObjAddr: 0x10CA60, symBinAddr: 0x1001100E0, symSize: 0x0 }
  - { offsetInCU: 0x37E, offset: 0x37E, size: 0x8, addend: 0x0, symName: _.str.32, symObjAddr: 0x10CAA0, symBinAddr: 0x100110120, symSize: 0x0 }
  - { offsetInCU: 0x390, offset: 0x390, size: 0x8, addend: 0x0, symName: _.str.33, symObjAddr: 0x10CAE0, symBinAddr: 0x100110160, symSize: 0x0 }
  - { offsetInCU: 0x3A2, offset: 0x3A2, size: 0x8, addend: 0x0, symName: _.str.34, symObjAddr: 0x10CB40, symBinAddr: 0x1001101C0, symSize: 0x0 }
  - { offsetInCU: 0x3BF, offset: 0x3BF, size: 0x8, addend: 0x0, symName: _.str.35, symObjAddr: 0x10CB80, symBinAddr: 0x100110200, symSize: 0x0 }
  - { offsetInCU: 0x3DC, offset: 0x3DC, size: 0x8, addend: 0x0, symName: _.str.36, symObjAddr: 0x10CBA0, symBinAddr: 0x100110220, symSize: 0x0 }
  - { offsetInCU: 0x3ED, offset: 0x3ED, size: 0x8, addend: 0x0, symName: _.str.37, symObjAddr: 0x10CBC0, symBinAddr: 0x100110240, symSize: 0x0 }
  - { offsetInCU: 0x40A, offset: 0x40A, size: 0x8, addend: 0x0, symName: _.str.38, symObjAddr: 0x10CBE0, symBinAddr: 0x100110260, symSize: 0x0 }
  - { offsetInCU: 0x41B, offset: 0x41B, size: 0x8, addend: 0x0, symName: _.str.39, symObjAddr: 0x10CC20, symBinAddr: 0x1001102A0, symSize: 0x0 }
  - { offsetInCU: 0x438, offset: 0x438, size: 0x8, addend: 0x0, symName: _.str.40, symObjAddr: 0x10CC40, symBinAddr: 0x1001102C0, symSize: 0x0 }
  - { offsetInCU: 0x449, offset: 0x449, size: 0x8, addend: 0x0, symName: _.str.41, symObjAddr: 0x10CC60, symBinAddr: 0x1001102E0, symSize: 0x0 }
  - { offsetInCU: 0x468, offset: 0x468, size: 0x8, addend: 0x0, symName: __ZNSt3__1L19piecewise_constructE, symObjAddr: 0x10F980, symBinAddr: 0x10010F1C0, symSize: 0x0 }
  - { offsetInCU: 0xD0E1, offset: 0xD0E1, size: 0x8, addend: 0x0, symName: __ZNSt3__124__put_character_sequenceB7v160006IcNS_11char_traitsIcEEEERNS_13basic_ostreamIT_T0_EES7_PKS4_m, symObjAddr: 0x3EC4, symBinAddr: 0x100006520, symSize: 0x744 }
  - { offsetInCU: 0x12BBC, offset: 0x12BBC, size: 0x8, addend: 0x0, symName: '__ZNSt3__110__function10__not_nullB7v160006IZ16test_ring_bufferR9TestSuiteE3$_0EEbRKT_', symObjAddr: 0x6B7C, symBinAddr: 0x1000091D8, symSize: 0x18 }
  - { offsetInCU: 0x12BED, offset: 0x12BED, size: 0x8, addend: 0x0, symName: '__ZNSt3__110__function10__not_nullB7v160006IZ16test_ring_bufferR9TestSuiteE3$_1EEbRKT_', symObjAddr: 0xDEFC, symBinAddr: 0x100010558, symSize: 0x18 }
  - { offsetInCU: 0x12C1E, offset: 0x12C1E, size: 0x8, addend: 0x0, symName: '__ZNSt3__110__function10__not_nullB7v160006IZ21test_order_book_cacheR9TestSuiteE3$_2EEbRKT_', symObjAddr: 0x13580, symBinAddr: 0x100015BDC, symSize: 0x18 }
  - { offsetInCU: 0x12C4F, offset: 0x12C4F, size: 0x8, addend: 0x0, symName: '__ZNSt3__110__function10__not_nullB7v160006IZ21test_order_book_cacheR9TestSuiteE3$_3EEbRKT_', symObjAddr: 0x23EF8, symBinAddr: 0x100026554, symSize: 0x18 }
  - { offsetInCU: 0x12C80, offset: 0x12C80, size: 0x8, addend: 0x0, symName: '__ZNSt3__110__function10__not_nullB7v160006IZ21test_order_book_cacheR9TestSuiteE3$_4EEbRKT_', symObjAddr: 0x29518, symBinAddr: 0x10002BB74, symSize: 0x18 }
  - { offsetInCU: 0x12CB1, offset: 0x12CB1, size: 0x8, addend: 0x0, symName: '__ZNSt3__110__function10__not_nullB7v160006IZ22test_spread_calculatorR9TestSuiteE3$_5EEbRKT_', symObjAddr: 0x2F078, symBinAddr: 0x1000316D4, symSize: 0x18 }
  - { offsetInCU: 0x12CE2, offset: 0x12CE2, size: 0x8, addend: 0x0, symName: '__ZNSt3__110__function10__not_nullB7v160006IZ22test_spread_calculatorR9TestSuiteE3$_6EEbRKT_', symObjAddr: 0x51010, symBinAddr: 0x10005366C, symSize: 0x18 }
  - { offsetInCU: 0x12D13, offset: 0x12D13, size: 0x8, addend: 0x0, symName: '__ZNSt3__110__function10__not_nullB7v160006IZ21test_signal_generatorR9TestSuiteE3$_7EEbRKT_', symObjAddr: 0x56720, symBinAddr: 0x100058D7C, symSize: 0x18 }
  - { offsetInCU: 0x12D44, offset: 0x12D44, size: 0x8, addend: 0x0, symName: '__ZNSt3__110__function10__not_nullB7v160006IZ21test_signal_generatorR9TestSuiteE3$_8EEbRKT_', symObjAddr: 0x6AF98, symBinAddr: 0x10006D5F4, symSize: 0x18 }
  - { offsetInCU: 0x12D75, offset: 0x12D75, size: 0x8, addend: 0x0, symName: '__ZNSt3__110__function10__not_nullB7v160006IZ17test_risk_managerR9TestSuiteE3$_9EEbRKT_', symObjAddr: 0x70790, symBinAddr: 0x100072DEC, symSize: 0x18 }
  - { offsetInCU: 0x12DA6, offset: 0x12DA6, size: 0x8, addend: 0x0, symName: '__ZNSt3__110__function10__not_nullB7v160006IZ17test_risk_managerR9TestSuiteE4$_10EEbRKT_', symObjAddr: 0x76F34, symBinAddr: 0x100079590, symSize: 0x18 }
  - { offsetInCU: 0x12DD7, offset: 0x12DD7, size: 0x8, addend: 0x0, symName: '__ZNSt3__110__function10__not_nullB7v160006IZ17test_risk_managerR9TestSuiteE4$_11EEbRKT_', symObjAddr: 0x7C62C, symBinAddr: 0x10007EC88, symSize: 0x18 }
  - { offsetInCU: 0x12E08, offset: 0x12E08, size: 0x8, addend: 0x0, symName: '__ZNSt3__110__function10__not_nullB7v160006IZ17test_risk_managerR9TestSuiteE4$_12EEbRKT_', symObjAddr: 0x8CCB8, symBinAddr: 0x10008F314, symSize: 0x18 }
  - { offsetInCU: 0x12E39, offset: 0x12E39, size: 0x8, addend: 0x0, symName: '__ZNSt3__110__function10__not_nullB7v160006IZ17test_order_routerR9TestSuiteE4$_13EEbRKT_', symObjAddr: 0x9389C, symBinAddr: 0x100095EF8, symSize: 0x18 }
  - { offsetInCU: 0x12E6A, offset: 0x12E6A, size: 0x8, addend: 0x0, symName: '__ZNSt3__110__function10__not_nullB7v160006IZ17test_order_routerR9TestSuiteE4$_14EEbRKT_', symObjAddr: 0x99CD4, symBinAddr: 0x10009C330, symSize: 0x18 }
  - { offsetInCU: 0x12E9B, offset: 0x12E9B, size: 0x8, addend: 0x0, symName: '__ZNSt3__110__function10__not_nullB7v160006IZ17test_order_routerR9TestSuiteE4$_15EEbRKT_', symObjAddr: 0xA0290, symBinAddr: 0x1000A28EC, symSize: 0x18 }
  - { offsetInCU: 0x12ECC, offset: 0x12ECC, size: 0x8, addend: 0x0, symName: '__ZNSt3__110__function10__not_nullB7v160006IZ21test_position_trackerR9TestSuiteE4$_16EEbRKT_', symObjAddr: 0xA9A40, symBinAddr: 0x1000AC09C, symSize: 0x18 }
  - { offsetInCU: 0x12EFD, offset: 0x12EFD, size: 0x8, addend: 0x0, symName: '__ZNSt3__110__function10__not_nullB7v160006IZ21test_position_trackerR9TestSuiteE4$_17EEbRKT_', symObjAddr: 0xBDC68, symBinAddr: 0x1000C02C4, symSize: 0x18 }
  - { offsetInCU: 0x12F2E, offset: 0x12F2E, size: 0x8, addend: 0x0, symName: '__ZNSt3__110__function10__not_nullB7v160006IZ21test_position_trackerR9TestSuiteE4$_18EEbRKT_', symObjAddr: 0xC3600, symBinAddr: 0x1000C5C5C, symSize: 0x18 }
  - { offsetInCU: 0x12F5F, offset: 0x12F5F, size: 0x8, addend: 0x0, symName: '__ZNSt3__110__function10__not_nullB7v160006IZ16test_full_engineR9TestSuiteE4$_19EEbRKT_', symObjAddr: 0xC8D34, symBinAddr: 0x1000CB390, symSize: 0x18 }
  - { offsetInCU: 0x12F90, offset: 0x12F90, size: 0x8, addend: 0x0, symName: '__ZNSt3__110__function10__not_nullB7v160006IZ16test_full_engineR9TestSuiteE4$_20EEbRKT_', symObjAddr: 0xF28BC, symBinAddr: 0x1000F4F18, symSize: 0x18 }
  - { offsetInCU: 0x12FC1, offset: 0x12FC1, size: 0x8, addend: 0x0, symName: '__ZNSt3__110__function10__not_nullB7v160006IZ16test_full_engineR9TestSuiteE4$_21EEbRKT_', symObjAddr: 0xF86C8, symBinAddr: 0x1000FAD24, symSize: 0x18 }
  - { offsetInCU: 0x12FF2, offset: 0x12FF2, size: 0x8, addend: 0x0, symName: '__ZNSt3__110__function10__not_nullB7v160006IZ23test_latency_benchmarksR9TestSuiteE4$_22EEbRKT_', symObjAddr: 0xFDF64, symBinAddr: 0x1001005C0, symSize: 0x18 }
  - { offsetInCU: 0x13023, offset: 0x13023, size: 0x8, addend: 0x0, symName: '__ZNSt3__110__function10__not_nullB7v160006IZ23test_latency_benchmarksR9TestSuiteE4$_23EEbRKT_', symObjAddr: 0x1040EC, symBinAddr: 0x100106748, symSize: 0x18 }
  - { offsetInCU: 0x14DB2, offset: 0x14DB2, size: 0x8, addend: 0x0, symName: __ZNSt3__16chronomiB7v160006IxNS_5ratioILl1ELl1000000000EEExS3_EENS_11common_typeIJNS0_8durationIT_T0_EENS5_IT1_T2_EEEE4typeERKS8_RKSB_, symObjAddr: 0x103678, symBinAddr: 0x100105CD4, symSize: 0x334 }
  - { offsetInCU: 0x14E30, offset: 0x14E30, size: 0x8, addend: 0x0, symName: __ZNSt3__16chrono13duration_castB7v160006INS0_8durationIxNS_5ratioILl1ELl1000000EEEEExNS3_ILl1ELl1000000000EEEEENS_9enable_ifIXsr13__is_durationIT_EE5valueES8_E4typeERKNS2_IT0_T1_EE, symObjAddr: 0xC804, symBinAddr: 0x10000EE60, symSize: 0x27C }
  - { offsetInCU: 0x14F6D, offset: 0x14F6D, size: 0x8, addend: 0x0, symName: __ZNSt3__16chronogtB7v160006IxNS_5ratioILl1ELl1000000EEExS3_EEbRKNS0_8durationIT_T0_EERKNS4_IT1_T2_EE, symObjAddr: 0xA66F0, symBinAddr: 0x1000A8D4C, symSize: 0x30 }
  - { offsetInCU: 0x14FCE, offset: 0x14FCE, size: 0x8, addend: 0x0, symName: __ZNSt3__16chronoltB7v160006IxNS_5ratioILl1ELl1000000EEEeNS2_ILl1ELl1EEEEEbRKNS0_8durationIT_T0_EERKNS5_IT1_T2_EE, symObjAddr: 0xA69B8, symBinAddr: 0x1000A9014, symSize: 0x1E4 }
  - { offsetInCU: 0x15031, offset: 0x15031, size: 0x8, addend: 0x0, symName: __ZNSt3__16chrono13duration_castB7v160006INS0_8durationIxNS_5ratioILl1ELl1000000000EEEEExNS3_ILl1ELl1000000EEEEENS_9enable_ifIXsr13__is_durationIT_EE5valueES8_E4typeERKNS2_IT0_T1_EE, symObjAddr: 0xA6B9C, symBinAddr: 0x1000A91F8, symSize: 0x27C }
  - { offsetInCU: 0x1507A, offset: 0x1507A, size: 0x8, addend: 0x0, symName: __ZNSt3__16chronoltB7v160006IxNS_5ratioILl1ELl1000000000EEExNS2_ILl1ELl1000000EEEEEbRKNS0_8durationIT_T0_EERKNS5_IT1_T2_EE, symObjAddr: 0xA6E18, symBinAddr: 0x1000A9474, symSize: 0x1E4 }
  - { offsetInCU: 0x150DD, offset: 0x150DD, size: 0x8, addend: 0x0, symName: __ZNSt3__16chronoltB7v160006IxNS_5ratioILl1ELl1000000EEExS3_EEbRKNS0_8durationIT_T0_EERKNS4_IT1_T2_EE, symObjAddr: 0xA72FC, symBinAddr: 0x1000A9958, symSize: 0x1E4 }
  - { offsetInCU: 0x151BD, offset: 0x151BD, size: 0x8, addend: 0x0, symName: __ZNSt3__16chrono13duration_castB7v160006INS0_8durationIeNS_5ratioILl1ELl1000000EEEEExS4_EENS_9enable_ifIXsr13__is_durationIT_EE5valueES7_E4typeERKNS2_IT0_T1_EE, symObjAddr: 0xA7AD8, symBinAddr: 0x1000AA134, symSize: 0x27C }
  - { offsetInCU: 0x15251, offset: 0x15251, size: 0x8, addend: 0x0, symName: __ZNSt3__16chrono13duration_castB7v160006INS0_8durationIeNS_5ratioILl1ELl1000000EEEEEeNS3_ILl1ELl1EEEEENS_9enable_ifIXsr13__is_durationIT_EE5valueES8_E4typeERKNS2_IT0_T1_EE, symObjAddr: 0xA8340, symBinAddr: 0x1000AA99C, symSize: 0x27C }
  - { offsetInCU: 0x1529A, offset: 0x1529A, size: 0x8, addend: 0x0, symName: __ZNSt3__16chrono13duration_castB7v160006INS0_8durationIxNS_5ratioILl1ELl1000000EEEEExS4_EENS_9enable_ifIXsr13__is_durationIT_EE5valueES7_E4typeERKNS2_IT0_T1_EE, symObjAddr: 0xD7C14, symBinAddr: 0x1000DA270, symSize: 0x27C }
  - { offsetInCU: 0x1532E, offset: 0x1532E, size: 0x8, addend: 0x0, symName: __ZNSt3__16chronogtB7v160006IxNS_5ratioILl1ELl1EEExS3_EEbRKNS0_8durationIT_T0_EERKNS4_IT1_T2_EE, symObjAddr: 0xED778, symBinAddr: 0x1000EFDD4, symSize: 0x30 }
  - { offsetInCU: 0x1538F, offset: 0x1538F, size: 0x8, addend: 0x0, symName: __ZNSt3__16chronoltB7v160006IxNS_5ratioILl1ELl1EEEeS3_EEbRKNS0_8durationIT_T0_EERKNS4_IT1_T2_EE, symObjAddr: 0xEDA40, symBinAddr: 0x1000F009C, symSize: 0x1E4 }
  - { offsetInCU: 0x153F2, offset: 0x153F2, size: 0x8, addend: 0x0, symName: __ZNSt3__16chrono13duration_castB7v160006INS0_8durationIxNS_5ratioILl1ELl1000000000EEEEExNS3_ILl1ELl1EEEEENS_9enable_ifIXsr13__is_durationIT_EE5valueES8_E4typeERKNS2_IT0_T1_EE, symObjAddr: 0xEDC24, symBinAddr: 0x1000F0280, symSize: 0x27C }
  - { offsetInCU: 0x1543B, offset: 0x1543B, size: 0x8, addend: 0x0, symName: __ZNSt3__16chronoltB7v160006IxNS_5ratioILl1ELl1000000000EEExNS2_ILl1ELl1EEEEEbRKNS0_8durationIT_T0_EERKNS5_IT1_T2_EE, symObjAddr: 0xEDEA0, symBinAddr: 0x1000F04FC, symSize: 0x1E4 }
  - { offsetInCU: 0x1549E, offset: 0x1549E, size: 0x8, addend: 0x0, symName: __ZNSt3__16chronoltB7v160006IxNS_5ratioILl1ELl1EEExS3_EEbRKNS0_8durationIT_T0_EERKNS4_IT1_T2_EE, symObjAddr: 0xEE084, symBinAddr: 0x1000F06E0, symSize: 0x1E4 }
  - { offsetInCU: 0x1553E, offset: 0x1553E, size: 0x8, addend: 0x0, symName: __ZNSt3__16chrono13duration_castB7v160006INS0_8durationIeNS_5ratioILl1ELl1EEEEExS4_EENS_9enable_ifIXsr13__is_durationIT_EE5valueES7_E4typeERKNS2_IT0_T1_EE, symObjAddr: 0xEE910, symBinAddr: 0x1000F0F6C, symSize: 0x27C }
  - { offsetInCU: 0x155D2, offset: 0x155D2, size: 0x8, addend: 0x0, symName: __ZNSt3__16chronogtB7v160006IxNS_5ratioILl1ELl1000EEExS3_EEbRKNS0_8durationIT_T0_EERKNS4_IT1_T2_EE, symObjAddr: 0xEF790, symBinAddr: 0x1000F1DEC, symSize: 0x30 }
  - { offsetInCU: 0x15633, offset: 0x15633, size: 0x8, addend: 0x0, symName: __ZNSt3__16chronoltB7v160006IxNS_5ratioILl1ELl1000EEEeNS2_ILl1ELl1EEEEEbRKNS0_8durationIT_T0_EERKNS5_IT1_T2_EE, symObjAddr: 0xEFA58, symBinAddr: 0x1000F20B4, symSize: 0x1E4 }
  - { offsetInCU: 0x15696, offset: 0x15696, size: 0x8, addend: 0x0, symName: __ZNSt3__16chrono13duration_castB7v160006INS0_8durationIxNS_5ratioILl1ELl1000000000EEEEExNS3_ILl1ELl1000EEEEENS_9enable_ifIXsr13__is_durationIT_EE5valueES8_E4typeERKNS2_IT0_T1_EE, symObjAddr: 0xEFC3C, symBinAddr: 0x1000F2298, symSize: 0x27C }
  - { offsetInCU: 0x156DF, offset: 0x156DF, size: 0x8, addend: 0x0, symName: __ZNSt3__16chronoltB7v160006IxNS_5ratioILl1ELl1000000000EEExNS2_ILl1ELl1000EEEEEbRKNS0_8durationIT_T0_EERKNS5_IT1_T2_EE, symObjAddr: 0xEFEB8, symBinAddr: 0x1000F2514, symSize: 0x1E4 }
  - { offsetInCU: 0x15742, offset: 0x15742, size: 0x8, addend: 0x0, symName: __ZNSt3__16chronoltB7v160006IxNS_5ratioILl1ELl1000EEExS3_EEbRKNS0_8durationIT_T0_EERKNS4_IT1_T2_EE, symObjAddr: 0xF009C, symBinAddr: 0x1000F26F8, symSize: 0x1E4 }
  - { offsetInCU: 0x157E2, offset: 0x157E2, size: 0x8, addend: 0x0, symName: __ZNSt3__16chrono13duration_castB7v160006INS0_8durationIeNS_5ratioILl1ELl1000EEEEExS4_EENS_9enable_ifIXsr13__is_durationIT_EE5valueES7_E4typeERKNS2_IT0_T1_EE, symObjAddr: 0xF09C0, symBinAddr: 0x1000F301C, symSize: 0x27C }
  - { offsetInCU: 0x15876, offset: 0x15876, size: 0x8, addend: 0x0, symName: __ZNSt3__16chrono13duration_castB7v160006INS0_8durationIeNS_5ratioILl1ELl1000EEEEEeNS3_ILl1ELl1EEEEENS_9enable_ifIXsr13__is_durationIT_EE5valueES8_E4typeERKNS2_IT0_T1_EE, symObjAddr: 0xF1228, symBinAddr: 0x1000F3884, symSize: 0x27C }
  - { offsetInCU: 0x158BF, offset: 0x158BF, size: 0x8, addend: 0x0, symName: __ZNSt3__16chronomiB7v160006INS0_12steady_clockENS0_8durationIxNS_5ratioILl1ELl1000000000EEEEES6_EENS_11common_typeIJT0_T1_EE4typeERKNS0_10time_pointIT_S8_EERKNSC_ISD_S9_EE, symObjAddr: 0x103340, symBinAddr: 0x10010599C, symSize: 0x338 }
  - { offsetInCU: 0x15AF8, offset: 0x15AF8, size: 0x8, addend: 0x0, symName: __ZNSt3__117__cxx_atomic_loadB7v160006ImEET_PKNS_22__cxx_atomic_base_implIS1_EENS_12memory_orderE, symObjAddr: 0xD124, symBinAddr: 0x10000F780, symSize: 0x12C }
  - { offsetInCU: 0x19A82, offset: 0x19A82, size: 0x8, addend: 0x0, symName: __ZNSt3__17advanceB7v160006IPNS_10unique_ptrIN4data11MarketPriceENS_14default_deleteIS3_EEEEllvEEvRT_T0_, symObjAddr: 0x20310, symBinAddr: 0x10002296C, symSize: 0x50 }
  - { offsetInCU: 0x19D06, offset: 0x19D06, size: 0x8, addend: 0x0, symName: __ZNSt3__17advanceB7v160006INS_16reverse_iteratorIPNS_10unique_ptrIN4data11MarketPriceENS_14default_deleteIS4_EEEEEEllvEEvRT_T0_, symObjAddr: 0x21638, symBinAddr: 0x100023C94, symSize: 0x50 }
  - { offsetInCU: 0x1E63F, offset: 0x1E63F, size: 0x8, addend: 0x0, symName: __ZNSt3__17advanceB7v160006IPN4data15CorrelationPairEllvEEvRT_T0_, symObjAddr: 0x3FA78, symBinAddr: 0x1000420D4, symSize: 0x50 }
  - { offsetInCU: 0x25805, offset: 0x25805, size: 0x8, addend: 0x0, symName: __ZNSt3__17advanceB7v160006IPNS_4pairINS_12basic_stringIcNS_11char_traitsIcEENS_9allocatorIcEEEEyEEllvEEvRT_T0_, symObjAddr: 0x65270, symBinAddr: 0x1000678CC, symSize: 0x50 }
  - { offsetInCU: 0x25A89, offset: 0x25A89, size: 0x8, addend: 0x0, symName: __ZNSt3__17advanceB7v160006INS_16reverse_iteratorIPNS_4pairINS_12basic_stringIcNS_11char_traitsIcEENS_9allocatorIcEEEEyEEEEllvEEvRT_T0_, symObjAddr: 0x66584, symBinAddr: 0x100068BE0, symSize: 0x50 }
  - { offsetInCU: 0x31B74, offset: 0x31B74, size: 0x8, addend: 0x0, symName: __ZNSt3__17advanceB7v160006IPN4data12OpenPositionEllvEEvRT_T0_, symObjAddr: 0xB9D54, symBinAddr: 0x1000BC3B0, symSize: 0x50 }
  - { offsetInCU: 0x34F1F, offset: 0x34F1F, size: 0x8, addend: 0x0, symName: __ZNSt3__17advanceB7v160006IPN4data15CorrelationPairEmmvEEvRT_T0_, symObjAddr: 0xD8A14, symBinAddr: 0x1000DB070, symSize: 0x50 }
  - { offsetInCU: 0x39F3F, offset: 0x39F3F, size: 0x8, addend: 0x0, symName: __ZNSt3__117__cxx_atomic_loadB7v160006IN4feed9FeedStateEEET_PKNS_22__cxx_atomic_base_implIS3_EENS_12memory_orderE, symObjAddr: 0xE135C, symBinAddr: 0x1000E39B8, symSize: 0x1A4 }
  - { offsetInCU: 0x3A9F3, offset: 0x3A9F3, size: 0x8, addend: 0x0, symName: __ZNSt3__117__cxx_atomic_loadB7v160006IbEET_PKNS_22__cxx_atomic_base_implIS1_EENS_12memory_orderE, symObjAddr: 0xE51E8, symBinAddr: 0x1000E7844, symSize: 0x19C }
  - { offsetInCU: 0x3AA51, offset: 0x3AA51, size: 0x8, addend: 0x0, symName: __ZNSt3__17advanceB7v160006IPN4data15ArbitrageSignalEmmvEEvRT_T0_, symObjAddr: 0xE64BC, symBinAddr: 0x1000E8B18, symSize: 0x50 }
  - { offsetInCU: 0x3AC02, offset: 0x3AC02, size: 0x8, addend: 0x0, symName: __ZNSt3__17advanceB7v160006IPN4data15ArbitrageSignalEllvEEvRT_T0_, symObjAddr: 0xEA3BC, symBinAddr: 0x1000ECA18, symSize: 0x50 }
  - { offsetInCU: 0x40A48, offset: 0x40A48, size: 0x8, addend: 0x0, symName: __ZNSt3__1lsB7v160006INS_11char_traitsIcEEEERNS_13basic_ostreamIcT_EES6_PKc, symObjAddr: 0x36E8, symBinAddr: 0x100005D44, symSize: 0x48 }
  - { offsetInCU: 0x40A8E, offset: 0x40A8E, size: 0x8, addend: 0x0, symName: __ZNSt3__14endlB7v160006IcNS_11char_traitsIcEEEERNS_13basic_ostreamIT_T0_EES7_, symObjAddr: 0x375C, symBinAddr: 0x100005DB8, symSize: 0xD4 }
  - { offsetInCU: 0x40ACE, offset: 0x40ACE, size: 0x8, addend: 0x0, symName: __ZNSt3__1lsB7v160006IcNS_11char_traitsIcEENS_9allocatorIcEEEERNS_13basic_ostreamIT_T0_EES9_RKNS_12basic_stringIS6_S7_T1_EE, symObjAddr: 0x3B3C, symBinAddr: 0x100006198, symSize: 0x4C }
  - { offsetInCU: 0x40B27, offset: 0x40B27, size: 0x8, addend: 0x0, symName: __ZNSt3__125__throw_bad_function_callB7v160006Ev, symObjAddr: 0x3CCC, symBinAddr: 0x100006328, symSize: 0x4C }
  - { offsetInCU: 0x40B78, offset: 0x40B78, size: 0x8, addend: 0x0, symName: __ZNSt3__116__pad_and_outputB7v160006IcNS_11char_traitsIcEEEENS_19ostreambuf_iteratorIT_T0_EES6_PKS4_S8_S8_RNS_8ios_baseES4_, symObjAddr: 0x470C, symBinAddr: 0x100006D68, symSize: 0x760 }
  - { offsetInCU: 0x40C56, offset: 0x40C56, size: 0x8, addend: 0x0, symName: __ZNSt3__119__debug_db_insert_cB7v160006INS_12basic_stringIcNS_11char_traitsIcEENS_9allocatorIcEEEEEEvPT_, symObjAddr: 0x55EC, symBinAddr: 0x100007C48, symSize: 0x10 }
  - { offsetInCU: 0x40C89, offset: 0x40C89, size: 0x8, addend: 0x0, symName: __ZNSt3__112__to_addressB7v160006IcEEPT_S2_, symObjAddr: 0x56B8, symBinAddr: 0x100007D14, symSize: 0x14 }
  - { offsetInCU: 0x40CBF, offset: 0x40CBF, size: 0x8, addend: 0x0, symName: __ZNSt3__19use_facetB7v160006INS_5ctypeIcEEEERKT_RKNS_6localeE, symObjAddr: 0x5D44, symBinAddr: 0x1000083A0, symSize: 0x2C }
  - { offsetInCU: 0x4118F, offset: 0x4118F, size: 0x8, addend: 0x0, symName: __ZNSt3__112__to_addressB7v160006IKcEEPT_S3_, symObjAddr: 0x5EC8, symBinAddr: 0x100008524, symSize: 0x14 }
  - { offsetInCU: 0x411F8, offset: 0x411F8, size: 0x8, addend: 0x0, symName: __ZNSt3__118__constexpr_strlenB7v160006EPKc, symObjAddr: 0x6340, symBinAddr: 0x10000899C, symSize: 0x24 }
  - { offsetInCU: 0x412D6, offset: 0x412D6, size: 0x8, addend: 0x0, symName: '__ZNSt3__116forward_as_tupleB7v160006IJZ16test_ring_bufferR9TestSuiteE3$_0EEENS_5tupleIJDpOT_EEES7_', symObjAddr: 0x794C, symBinAddr: 0x100009FA8, symSize: 0x1F8 }
  - { offsetInCU: 0x41311, offset: 0x41311, size: 0x8, addend: 0x0, symName: '__ZNSt3__116forward_as_tupleB7v160006IJNS_9allocatorIZ16test_ring_bufferR9TestSuiteE3$_0EEEEENS_5tupleIJDpOT_EEES9_', symObjAddr: 0x7B44, symBinAddr: 0x10000A1A0, symSize: 0x1F8 }
  - { offsetInCU: 0x41391, offset: 0x41391, size: 0x8, addend: 0x0, symName: '__ZNSt3__13getB7v160006ILm0EJOZ16test_ring_bufferR9TestSuiteE3$_0EEERNS_13tuple_elementIXT_ENS_5tupleIJDpT0_EEEE4typeERS9_', symObjAddr: 0x8A18, symBinAddr: 0x10000B074, symSize: 0x24 }
  - { offsetInCU: 0x413D5, offset: 0x413D5, size: 0x8, addend: 0x0, symName: '__ZNSt3__13getB7v160006ILm0EJONS_9allocatorIZ16test_ring_bufferR9TestSuiteE3$_0EEEEERNS_13tuple_elementIXT_ENS_5tupleIJDpT0_EEEE4typeERSB_', symObjAddr: 0x8A9C, symBinAddr: 0x10000B0F8, symSize: 0x24 }
  - { offsetInCU: 0x418FE, offset: 0x418FE, size: 0x8, addend: 0x0, symName: __ZNSt3__117__libcpp_allocateB7v160006Emm, symObjAddr: 0x8E8C, symBinAddr: 0x10000B4E8, symSize: 0x60 }
  - { offsetInCU: 0x41B46, offset: 0x41B46, size: 0x8, addend: 0x0, symName: __ZNSt3__124__is_overaligned_for_newB7v160006Em, symObjAddr: 0x8F08, symBinAddr: 0x10000B564, symSize: 0x20 }
  - { offsetInCU: 0x41B74, offset: 0x41B74, size: 0x8, addend: 0x0, symName: __ZNSt3__121__libcpp_operator_newB7v160006IJmSt11align_val_tEEEPvDpT_, symObjAddr: 0x8F28, symBinAddr: 0x10000B584, symSize: 0x2C }
  - { offsetInCU: 0x41BC1, offset: 0x41BC1, size: 0x8, addend: 0x0, symName: __ZNSt3__121__libcpp_operator_newB7v160006IJmEEEPvDpT_, symObjAddr: 0x8F54, symBinAddr: 0x10000B5B0, symSize: 0x24 }
  - { offsetInCU: 0x41BFB, offset: 0x41BFB, size: 0x8, addend: 0x0, symName: '__ZNSt3__116forward_as_tupleB7v160006IJRKZ16test_ring_bufferR9TestSuiteE3$_0EEENS_5tupleIJDpOT_EEES9_', symObjAddr: 0x9844, symBinAddr: 0x10000BEA0, symSize: 0x1F8 }
  - { offsetInCU: 0x41C4B, offset: 0x41C4B, size: 0x8, addend: 0x0, symName: '__ZNSt3__13getB7v160006ILm0EJRKZ16test_ring_bufferR9TestSuiteE3$_0EEERNS_13tuple_elementIXT_ENS_5tupleIJDpT0_EEEE4typeERSA_', symObjAddr: 0xA3D8, symBinAddr: 0x10000CA34, symSize: 0x24 }
  - { offsetInCU: 0x41C8F, offset: 0x41C8F, size: 0x8, addend: 0x0, symName: __ZNSt3__119__libcpp_deallocateB7v160006EPvmm, symObjAddr: 0xA724, symBinAddr: 0x10000CD80, symSize: 0x60 }
  - { offsetInCU: 0x41CF6, offset: 0x41CF6, size: 0x8, addend: 0x0, symName: __ZNSt3__127__do_deallocate_handle_sizeB7v160006IJSt11align_val_tEEEvPvmDpT_, symObjAddr: 0xA784, symBinAddr: 0x10000CDE0, symSize: 0x30 }
  - { offsetInCU: 0x41D4A, offset: 0x41D4A, size: 0x8, addend: 0x0, symName: __ZNSt3__127__do_deallocate_handle_sizeB7v160006IJEEEvPvmDpT_, symObjAddr: 0xA7B4, symBinAddr: 0x10000CE10, symSize: 0x28 }
  - { offsetInCU: 0x41D89, offset: 0x41D89, size: 0x8, addend: 0x0, symName: __ZNSt3__124__libcpp_operator_deleteB7v160006IJPvSt11align_val_tEEEvDpT_, symObjAddr: 0xA7DC, symBinAddr: 0x10000CE38, symSize: 0x2C }
  - { offsetInCU: 0x41DD3, offset: 0x41DD3, size: 0x8, addend: 0x0, symName: __ZNSt3__124__libcpp_operator_deleteB7v160006IJPvEEEvDpT_, symObjAddr: 0xA808, symBinAddr: 0x10000CE64, symSize: 0x24 }
  - { offsetInCU: 0x41E09, offset: 0x41E09, size: 0x8, addend: 0x0, symName: '__ZNSt3__116forward_as_tupleB7v160006IJRKNS_9allocatorIZ16test_ring_bufferR9TestSuiteE3$_0EEEEENS_5tupleIJDpOT_EEESB_', symObjAddr: 0xAC80, symBinAddr: 0x10000D2DC, symSize: 0x1F8 }
  - { offsetInCU: 0x41E59, offset: 0x41E59, size: 0x8, addend: 0x0, symName: '__ZNSt3__13getB7v160006ILm0EJRKNS_9allocatorIZ16test_ring_bufferR9TestSuiteE3$_0EEEEERNS_13tuple_elementIXT_ENS_5tupleIJDpT0_EEEE4typeERSC_', symObjAddr: 0xB814, symBinAddr: 0x10000DE70, symSize: 0x24 }
  - { offsetInCU: 0x4216B, offset: 0x4216B, size: 0x8, addend: 0x0, symName: '__ZNSt3__18__invokeB7v160006IRZ16test_ring_bufferR9TestSuiteE3$_0JEEEDTclclsr3stdE7declvalIT_EEspclsr3stdE7declvalIT0_EEEEOS5_DpOS6_', symObjAddr: 0xB918, symBinAddr: 0x10000DF74, symSize: 0x24 }
  - { offsetInCU: 0x421C2, offset: 0x421C2, size: 0x8, addend: 0x0, symName: __ZNSt3__118__cxx_atomic_storeB7v160006ImEEvPNS_22__cxx_atomic_base_implIT_EES2_NS_12memory_orderE, symObjAddr: 0xD250, symBinAddr: 0x10000F8AC, symSize: 0x148 }
  - { offsetInCU: 0x422C4, offset: 0x422C4, size: 0x8, addend: 0x0, symName: '__ZNSt3__116forward_as_tupleB7v160006IJZ16test_ring_bufferR9TestSuiteE3$_1EEENS_5tupleIJDpOT_EEES7_', symObjAddr: 0xEC0C, symBinAddr: 0x100011268, symSize: 0x1F8 }
  - { offsetInCU: 0x422FF, offset: 0x422FF, size: 0x8, addend: 0x0, symName: '__ZNSt3__116forward_as_tupleB7v160006IJNS_9allocatorIZ16test_ring_bufferR9TestSuiteE3$_1EEEEENS_5tupleIJDpOT_EEES9_', symObjAddr: 0xEE04, symBinAddr: 0x100011460, symSize: 0x1F8 }
  - { offsetInCU: 0x42364, offset: 0x42364, size: 0x8, addend: 0x0, symName: '__ZNSt3__13getB7v160006ILm0EJOZ16test_ring_bufferR9TestSuiteE3$_1EEERNS_13tuple_elementIXT_ENS_5tupleIJDpT0_EEEE4typeERS9_', symObjAddr: 0xFCD8, symBinAddr: 0x100012334, symSize: 0x24 }
  - { offsetInCU: 0x423A8, offset: 0x423A8, size: 0x8, addend: 0x0, symName: '__ZNSt3__13getB7v160006ILm0EJONS_9allocatorIZ16test_ring_bufferR9TestSuiteE3$_1EEEEERNS_13tuple_elementIXT_ENS_5tupleIJDpT0_EEEE4typeERSB_', symObjAddr: 0xFD5C, symBinAddr: 0x1000123B8, symSize: 0x24 }
  - { offsetInCU: 0x428D2, offset: 0x428D2, size: 0x8, addend: 0x0, symName: '__ZNSt3__116forward_as_tupleB7v160006IJRKZ16test_ring_bufferR9TestSuiteE3$_1EEENS_5tupleIJDpOT_EEES9_', symObjAddr: 0x109E0, symBinAddr: 0x10001303C, symSize: 0x1F8 }
  - { offsetInCU: 0x42922, offset: 0x42922, size: 0x8, addend: 0x0, symName: '__ZNSt3__13getB7v160006ILm0EJRKZ16test_ring_bufferR9TestSuiteE3$_1EEERNS_13tuple_elementIXT_ENS_5tupleIJDpT0_EEEE4typeERSA_', symObjAddr: 0x11574, symBinAddr: 0x100013BD0, symSize: 0x24 }
  - { offsetInCU: 0x42966, offset: 0x42966, size: 0x8, addend: 0x0, symName: '__ZNSt3__116forward_as_tupleB7v160006IJRKNS_9allocatorIZ16test_ring_bufferR9TestSuiteE3$_1EEEEENS_5tupleIJDpOT_EEESB_', symObjAddr: 0x11D14, symBinAddr: 0x100014370, symSize: 0x1F8 }
  - { offsetInCU: 0x429B6, offset: 0x429B6, size: 0x8, addend: 0x0, symName: '__ZNSt3__13getB7v160006ILm0EJRKNS_9allocatorIZ16test_ring_bufferR9TestSuiteE3$_1EEEEERNS_13tuple_elementIXT_ENS_5tupleIJDpT0_EEEE4typeERSC_', symObjAddr: 0x128A8, symBinAddr: 0x100014F04, symSize: 0x24 }
  - { offsetInCU: 0x429FA, offset: 0x429FA, size: 0x8, addend: 0x0, symName: '__ZNSt3__18__invokeB7v160006IRZ16test_ring_bufferR9TestSuiteE3$_1JEEEDTclclsr3stdE7declvalIT_EEspclsr3stdE7declvalIT0_EEEEOS5_DpOS6_', symObjAddr: 0x129AC, symBinAddr: 0x100015008, symSize: 0x24 }
  - { offsetInCU: 0x42AE3, offset: 0x42AE3, size: 0x8, addend: 0x0, symName: '__ZNSt3__116forward_as_tupleB7v160006IJZ21test_order_book_cacheR9TestSuiteE3$_2EEENS_5tupleIJDpOT_EEES7_', symObjAddr: 0x14290, symBinAddr: 0x1000168EC, symSize: 0x1F8 }
  - { offsetInCU: 0x42B1E, offset: 0x42B1E, size: 0x8, addend: 0x0, symName: '__ZNSt3__116forward_as_tupleB7v160006IJNS_9allocatorIZ21test_order_book_cacheR9TestSuiteE3$_2EEEEENS_5tupleIJDpOT_EEES9_', symObjAddr: 0x14488, symBinAddr: 0x100016AE4, symSize: 0x1F8 }
  - { offsetInCU: 0x42B83, offset: 0x42B83, size: 0x8, addend: 0x0, symName: '__ZNSt3__13getB7v160006ILm0EJOZ21test_order_book_cacheR9TestSuiteE3$_2EEERNS_13tuple_elementIXT_ENS_5tupleIJDpT0_EEEE4typeERS9_', symObjAddr: 0x1535C, symBinAddr: 0x1000179B8, symSize: 0x24 }
  - { offsetInCU: 0x42BC7, offset: 0x42BC7, size: 0x8, addend: 0x0, symName: '__ZNSt3__13getB7v160006ILm0EJONS_9allocatorIZ21test_order_book_cacheR9TestSuiteE3$_2EEEEERNS_13tuple_elementIXT_ENS_5tupleIJDpT0_EEEE4typeERSB_', symObjAddr: 0x153E0, symBinAddr: 0x100017A3C, symSize: 0x24 }
  - { offsetInCU: 0x430F1, offset: 0x430F1, size: 0x8, addend: 0x0, symName: '__ZNSt3__116forward_as_tupleB7v160006IJRKZ21test_order_book_cacheR9TestSuiteE3$_2EEENS_5tupleIJDpOT_EEES9_', symObjAddr: 0x16064, symBinAddr: 0x1000186C0, symSize: 0x1F8 }
  - { offsetInCU: 0x43141, offset: 0x43141, size: 0x8, addend: 0x0, symName: '__ZNSt3__13getB7v160006ILm0EJRKZ21test_order_book_cacheR9TestSuiteE3$_2EEERNS_13tuple_elementIXT_ENS_5tupleIJDpT0_EEEE4typeERSA_', symObjAddr: 0x16BF8, symBinAddr: 0x100019254, symSize: 0x24 }
  - { offsetInCU: 0x43185, offset: 0x43185, size: 0x8, addend: 0x0, symName: '__ZNSt3__116forward_as_tupleB7v160006IJRKNS_9allocatorIZ21test_order_book_cacheR9TestSuiteE3$_2EEEEENS_5tupleIJDpOT_EEESB_', symObjAddr: 0x17398, symBinAddr: 0x1000199F4, symSize: 0x1F8 }
  - { offsetInCU: 0x431D5, offset: 0x431D5, size: 0x8, addend: 0x0, symName: '__ZNSt3__13getB7v160006ILm0EJRKNS_9allocatorIZ21test_order_book_cacheR9TestSuiteE3$_2EEEEERNS_13tuple_elementIXT_ENS_5tupleIJDpT0_EEEE4typeERSC_', symObjAddr: 0x17F2C, symBinAddr: 0x10001A588, symSize: 0x24 }
  - { offsetInCU: 0x43219, offset: 0x43219, size: 0x8, addend: 0x0, symName: '__ZNSt3__18__invokeB7v160006IRZ21test_order_book_cacheR9TestSuiteE3$_2JEEEDTclclsr3stdE7declvalIT_EEspclsr3stdE7declvalIT0_EEEEOS5_DpOS6_', symObjAddr: 0x18030, symBinAddr: 0x10001A68C, symSize: 0x24 }
  - { offsetInCU: 0x43252, offset: 0x43252, size: 0x8, addend: 0x0, symName: __ZNSt3__119__debug_db_insert_cB7v160006INS_6vectorINS_10unique_ptrIN4data11MarketPriceENS_14default_deleteIS4_EEEENS_9allocatorIS7_EEEEEEvPT_, symObjAddr: 0x1AC08, symBinAddr: 0x10001D264, symSize: 0x10 }
  - { offsetInCU: 0x43438, offset: 0x43438, size: 0x8, addend: 0x0, symName: __ZNSt3__1neB7v160006IPNS_10unique_ptrIN4data11MarketPriceENS_14default_deleteIS3_EEEEEEbRKNS_11__wrap_iterIT_EESC_, symObjAddr: 0x1B230, symBinAddr: 0x10001D88C, symSize: 0x34 }
  - { offsetInCU: 0x4347D, offset: 0x4347D, size: 0x8, addend: 0x0, symName: __ZNSt3__111make_uniqueB7v160006IN4data11MarketPriceEJEEENS_11__unique_ifIT_E15__unique_singleEDpOT0_, symObjAddr: 0x1B398, symBinAddr: 0x10001D9F4, symSize: 0x50 }
  - { offsetInCU: 0x434AA, offset: 0x434AA, size: 0x8, addend: 0x0, symName: __ZNSt3__1eqB7v160006IPNS_10unique_ptrIN4data11MarketPriceENS_14default_deleteIS3_EEEEEEbRKNS_11__wrap_iterIT_EESC_, symObjAddr: 0x1B904, symBinAddr: 0x10001DF60, symSize: 0x48 }
  - { offsetInCU: 0x434F0, offset: 0x434F0, size: 0x8, addend: 0x0, symName: __ZNSt3__112__to_addressB7v160006INS_10unique_ptrIN4data11MarketPriceENS_14default_deleteIS3_EEEEEEPT_S8_, symObjAddr: 0x1C5D8, symBinAddr: 0x10001EC34, symSize: 0x14 }
  - { offsetInCU: 0x4354D, offset: 0x4354D, size: 0x8, addend: 0x0, symName: __ZNSt3__112construct_atB7v160006INS_10unique_ptrIN4data11MarketPriceENS_14default_deleteIS3_EEEEJS6_EPS6_EEPT_S9_DpOT0_, symObjAddr: 0x1CB48, symBinAddr: 0x10001F1A4, symSize: 0x3C }
  - { offsetInCU: 0x435C1, offset: 0x435C1, size: 0x8, addend: 0x0, symName: __ZNSt3__13maxB7v160006ImEERKT_S3_S3_, symObjAddr: 0x1E094, symBinAddr: 0x1000206F0, symSize: 0x2C }
  - { offsetInCU: 0x43606, offset: 0x43606, size: 0x8, addend: 0x0, symName: __ZNSt3__13minB7v160006ImEERKT_S3_S3_, symObjAddr: 0x1E0C0, symBinAddr: 0x10002071C, symSize: 0x2C }
  - { offsetInCU: 0x43835, offset: 0x43835, size: 0x8, addend: 0x0, symName: __ZNSt3__13minB7v160006ImNS_6__lessImmEEEERKT_S5_S5_T0_, symObjAddr: 0x1E150, symBinAddr: 0x1000207AC, symSize: 0x1E8 }
  - { offsetInCU: 0x438D4, offset: 0x438D4, size: 0x8, addend: 0x0, symName: __ZNSt3__120__throw_length_errorB7v160006EPKc, symObjAddr: 0x1E434, symBinAddr: 0x100020A90, symSize: 0x68 }
  - { offsetInCU: 0x438FD, offset: 0x438FD, size: 0x8, addend: 0x0, symName: __ZNSt3__13maxB7v160006ImNS_6__lessImmEEEERKT_S5_S5_T0_, symObjAddr: 0x1E55C, symBinAddr: 0x100020BB8, symSize: 0x1E8 }
  - { offsetInCU: 0x43960, offset: 0x43960, size: 0x8, addend: 0x0, symName: __ZNSt3__119__allocate_at_leastB7v160006INS_9allocatorINS_10unique_ptrIN4data11MarketPriceENS_14default_deleteIS4_EEEEEEEENS_19__allocation_resultINS_16allocator_traitsIT_E7pointerEEERSB_m, symObjAddr: 0x1ECA0, symBinAddr: 0x1000212FC, symSize: 0x28C }
  - { offsetInCU: 0x439A7, offset: 0x439A7, size: 0x8, addend: 0x0, symName: __ZNSt3__142__uninitialized_allocator_move_if_noexceptB7v160006INS_9allocatorINS_10unique_ptrIN4data11MarketPriceENS_14default_deleteIS4_EEEEEENS_16reverse_iteratorIPS7_EESB_SB_EET2_RT_T0_T1_SC_, symObjAddr: 0x1F208, symBinAddr: 0x100021864, symSize: 0x544 }
  - { offsetInCU: 0x43A5C, offset: 0x43A5C, size: 0x8, addend: 0x0, symName: __ZNSt3__14swapB7v160006IPNS_10unique_ptrIN4data11MarketPriceENS_14default_deleteIS3_EEEEEENS_9enable_ifIXaasr21is_move_constructibleIT_EE5valuesr18is_move_assignableIS9_EE5valueEvE4typeERS9_SC_, symObjAddr: 0x1F7E4, symBinAddr: 0x100021E40, symSize: 0x134 }
  - { offsetInCU: 0x43AB1, offset: 0x43AB1, size: 0x8, addend: 0x0, symName: __ZNSt3__125__debug_db_invalidate_allB7v160006INS_6vectorINS_10unique_ptrIN4data11MarketPriceENS_14default_deleteIS4_EEEENS_9allocatorIS7_EEEEEEvPT_, symObjAddr: 0x1F9D8, symBinAddr: 0x100022034, symSize: 0x10 }
  - { offsetInCU: 0x43AE3, offset: 0x43AE3, size: 0x8, addend: 0x0, symName: __ZNSt3__122__make_exception_guardB7v160006INS_29_AllocatorDestroyRangeReverseINS_9allocatorINS_10unique_ptrIN4data11MarketPriceENS_14default_deleteIS5_EEEEEENS_16reverse_iteratorIPS8_EEEEEENS_28__exception_guard_exceptionsIT_EESF_, symObjAddr: 0x1F9E8, symBinAddr: 0x100022044, symSize: 0x1F8 }
  - { offsetInCU: 0x43B1B, offset: 0x43B1B, size: 0x8, addend: 0x0, symName: __ZNSt3__1neB7v160006IPNS_10unique_ptrIN4data11MarketPriceENS_14default_deleteIS3_EEEES7_EEbRKNS_16reverse_iteratorIT_EERKNS8_IT0_EE, symObjAddr: 0x1FC24, symBinAddr: 0x100022280, symSize: 0x48 }
  - { offsetInCU: 0x43B69, offset: 0x43B69, size: 0x8, addend: 0x0, symName: __ZNSt3__112__to_addressB7v160006INS_16reverse_iteratorIPNS_10unique_ptrIN4data11MarketPriceENS_14default_deleteIS4_EEEEEEvEENS_5decayIDTclsr19__to_address_helperIT_EE6__callclsr3stdE7declvalIRKSB_EEEEE4typeESD_, symObjAddr: 0x1FC6C, symBinAddr: 0x1000222C8, symSize: 0x24 }
  - { offsetInCU: 0x43BCA, offset: 0x43BCA, size: 0x8, addend: 0x0, symName: __ZNSt3__14prevB7v160006IPNS_10unique_ptrIN4data11MarketPriceENS_14default_deleteIS3_EEEEEENS_9enable_ifIXsr25__is_cpp17_input_iteratorIT_EE5valueES9_E4typeES9_NS_15iterator_traitsIS9_E15difference_typeE, symObjAddr: 0x200B4, symBinAddr: 0x100022710, symSize: 0x25C }
  - { offsetInCU: 0x43C15, offset: 0x43C15, size: 0x8, addend: 0x0, symName: __ZNSt3__121__convert_to_integralB7v160006El, symObjAddr: 0x20360, symBinAddr: 0x1000229BC, symSize: 0x14 }
  - { offsetInCU: 0x43C43, offset: 0x43C43, size: 0x8, addend: 0x0, symName: __ZNSt3__19__advanceB7v160006IPNS_10unique_ptrIN4data11MarketPriceENS_14default_deleteIS3_EEEEEEvRT_NS_15iterator_traitsIS8_E15difference_typeENS_26random_access_iterator_tagE, symObjAddr: 0x20374, symBinAddr: 0x1000229D0, symSize: 0x78 }
  - { offsetInCU: 0x43C8F, offset: 0x43C8F, size: 0x8, addend: 0x0, symName: __ZNSt3__119__allocator_destroyB7v160006INS_9allocatorINS_10unique_ptrIN4data11MarketPriceENS_14default_deleteIS4_EEEEEENS_16reverse_iteratorINS9_IPS7_EEEESC_EEvRT_T0_T1_, symObjAddr: 0x20850, symBinAddr: 0x100022EAC, symSize: 0x70 }
  - { offsetInCU: 0x43CF4, offset: 0x43CF4, size: 0x8, addend: 0x0, symName: __ZNSt3__1neB7v160006INS_16reverse_iteratorIPNS_10unique_ptrIN4data11MarketPriceENS_14default_deleteIS4_EEEEEES9_EEbRKNS1_IT_EERKNS1_IT0_EE, symObjAddr: 0x20B08, symBinAddr: 0x100023164, symSize: 0x2CC }
  - { offsetInCU: 0x43D44, offset: 0x43D44, size: 0x8, addend: 0x0, symName: __ZNSt3__112__to_addressB7v160006INS_16reverse_iteratorINS1_IPNS_10unique_ptrIN4data11MarketPriceENS_14default_deleteIS4_EEEEEEEEvEENS_5decayIDTclsr19__to_address_helperIT_EE6__callclsr3stdE7declvalIRKSC_EEEEE4typeESE_, symObjAddr: 0x20DFC, symBinAddr: 0x100023458, symSize: 0x24 }
  - { offsetInCU: 0x43D7C, offset: 0x43D7C, size: 0x8, addend: 0x0, symName: __ZNSt3__110destroy_atB7v160006INS_10unique_ptrIN4data11MarketPriceENS_14default_deleteIS3_EEEELi0EEEvPT_, symObjAddr: 0x2105C, symBinAddr: 0x1000236B8, symSize: 0x24 }
  - { offsetInCU: 0x43DB5, offset: 0x43DB5, size: 0x8, addend: 0x0, symName: __ZNSt3__112__destroy_atB7v160006INS_10unique_ptrIN4data11MarketPriceENS_14default_deleteIS3_EEEELi0EEEvPT_, symObjAddr: 0x21080, symBinAddr: 0x1000236DC, symSize: 0x24 }
  - { offsetInCU: 0x43E17, offset: 0x43E17, size: 0x8, addend: 0x0, symName: __ZNSt3__14prevB7v160006INS_16reverse_iteratorIPNS_10unique_ptrIN4data11MarketPriceENS_14default_deleteIS4_EEEEEEEENS_9enable_ifIXsr25__is_cpp17_input_iteratorIT_EE5valueESB_E4typeESB_NS_15iterator_traitsISB_E15difference_typeE, symObjAddr: 0x21388, symBinAddr: 0x1000239E4, symSize: 0x2B0 }
  - { offsetInCU: 0x43E62, offset: 0x43E62, size: 0x8, addend: 0x0, symName: __ZNSt3__19__advanceB7v160006INS_16reverse_iteratorIPNS_10unique_ptrIN4data11MarketPriceENS_14default_deleteIS4_EEEEEEEEvRT_NS_15iterator_traitsISA_E15difference_typeENS_26random_access_iterator_tagE, symObjAddr: 0x21688, symBinAddr: 0x100023CE4, symSize: 0x2C }
  - { offsetInCU: 0x44076, offset: 0x44076, size: 0x8, addend: 0x0, symName: __ZNSt3__1neB7v160006IPKNS_10unique_ptrIN4data11MarketPriceENS_14default_deleteIS3_EEEEEEbRKNS_11__wrap_iterIT_EESD_, symObjAddr: 0x22938, symBinAddr: 0x100024F94, symSize: 0x34 }
  - { offsetInCU: 0x440BB, offset: 0x440BB, size: 0x8, addend: 0x0, symName: __ZNSt3__1eqB7v160006IPKNS_10unique_ptrIN4data11MarketPriceENS_14default_deleteIS3_EEEEEEbRKNS_11__wrap_iterIT_EESD_, symObjAddr: 0x22E44, symBinAddr: 0x1000254A0, symSize: 0x48 }
  - { offsetInCU: 0x44101, offset: 0x44101, size: 0x8, addend: 0x0, symName: __ZNSt3__118__debug_db_erase_cB7v160006INS_6vectorINS_10unique_ptrIN4data11MarketPriceENS_14default_deleteIS4_EEEENS_9allocatorIS7_EEEEEEvPT_, symObjAddr: 0x23594, symBinAddr: 0x100025BF0, symSize: 0x10 }
  - { offsetInCU: 0x441E4, offset: 0x441E4, size: 0x8, addend: 0x0, symName: '__ZNSt3__116forward_as_tupleB7v160006IJZ21test_order_book_cacheR9TestSuiteE3$_3EEENS_5tupleIJDpOT_EEES7_', symObjAddr: 0x24C08, symBinAddr: 0x100027264, symSize: 0x1F8 }
  - { offsetInCU: 0x4421F, offset: 0x4421F, size: 0x8, addend: 0x0, symName: '__ZNSt3__116forward_as_tupleB7v160006IJNS_9allocatorIZ21test_order_book_cacheR9TestSuiteE3$_3EEEEENS_5tupleIJDpOT_EEES9_', symObjAddr: 0x24E00, symBinAddr: 0x10002745C, symSize: 0x1F8 }
  - { offsetInCU: 0x44284, offset: 0x44284, size: 0x8, addend: 0x0, symName: '__ZNSt3__13getB7v160006ILm0EJOZ21test_order_book_cacheR9TestSuiteE3$_3EEERNS_13tuple_elementIXT_ENS_5tupleIJDpT0_EEEE4typeERS9_', symObjAddr: 0x25CD4, symBinAddr: 0x100028330, symSize: 0x24 }
  - { offsetInCU: 0x442C8, offset: 0x442C8, size: 0x8, addend: 0x0, symName: '__ZNSt3__13getB7v160006ILm0EJONS_9allocatorIZ21test_order_book_cacheR9TestSuiteE3$_3EEEEERNS_13tuple_elementIXT_ENS_5tupleIJDpT0_EEEE4typeERSB_', symObjAddr: 0x25D58, symBinAddr: 0x1000283B4, symSize: 0x24 }
  - { offsetInCU: 0x447F2, offset: 0x447F2, size: 0x8, addend: 0x0, symName: '__ZNSt3__116forward_as_tupleB7v160006IJRKZ21test_order_book_cacheR9TestSuiteE3$_3EEENS_5tupleIJDpOT_EEES9_', symObjAddr: 0x269DC, symBinAddr: 0x100029038, symSize: 0x1F8 }
  - { offsetInCU: 0x44842, offset: 0x44842, size: 0x8, addend: 0x0, symName: '__ZNSt3__13getB7v160006ILm0EJRKZ21test_order_book_cacheR9TestSuiteE3$_3EEERNS_13tuple_elementIXT_ENS_5tupleIJDpT0_EEEE4typeERSA_', symObjAddr: 0x27570, symBinAddr: 0x100029BCC, symSize: 0x24 }
  - { offsetInCU: 0x44886, offset: 0x44886, size: 0x8, addend: 0x0, symName: '__ZNSt3__116forward_as_tupleB7v160006IJRKNS_9allocatorIZ21test_order_book_cacheR9TestSuiteE3$_3EEEEENS_5tupleIJDpOT_EEESB_', symObjAddr: 0x27D10, symBinAddr: 0x10002A36C, symSize: 0x1F8 }
  - { offsetInCU: 0x448D6, offset: 0x448D6, size: 0x8, addend: 0x0, symName: '__ZNSt3__13getB7v160006ILm0EJRKNS_9allocatorIZ21test_order_book_cacheR9TestSuiteE3$_3EEEEERNS_13tuple_elementIXT_ENS_5tupleIJDpT0_EEEE4typeERSC_', symObjAddr: 0x288A4, symBinAddr: 0x10002AF00, symSize: 0x24 }
  - { offsetInCU: 0x4491A, offset: 0x4491A, size: 0x8, addend: 0x0, symName: '__ZNSt3__18__invokeB7v160006IRZ21test_order_book_cacheR9TestSuiteE3$_3JEEEDTclclsr3stdE7declvalIT_EEspclsr3stdE7declvalIT0_EEEEOS5_DpOS6_', symObjAddr: 0x289A8, symBinAddr: 0x10002B004, symSize: 0x24 }
  - { offsetInCU: 0x44A03, offset: 0x44A03, size: 0x8, addend: 0x0, symName: '__ZNSt3__116forward_as_tupleB7v160006IJZ21test_order_book_cacheR9TestSuiteE3$_4EEENS_5tupleIJDpOT_EEES7_', symObjAddr: 0x2A228, symBinAddr: 0x10002C884, symSize: 0x1F8 }
  - { offsetInCU: 0x44A3E, offset: 0x44A3E, size: 0x8, addend: 0x0, symName: '__ZNSt3__116forward_as_tupleB7v160006IJNS_9allocatorIZ21test_order_book_cacheR9TestSuiteE3$_4EEEEENS_5tupleIJDpOT_EEES9_', symObjAddr: 0x2A420, symBinAddr: 0x10002CA7C, symSize: 0x1F8 }
  - { offsetInCU: 0x44AA3, offset: 0x44AA3, size: 0x8, addend: 0x0, symName: '__ZNSt3__13getB7v160006ILm0EJOZ21test_order_book_cacheR9TestSuiteE3$_4EEERNS_13tuple_elementIXT_ENS_5tupleIJDpT0_EEEE4typeERS9_', symObjAddr: 0x2B2F4, symBinAddr: 0x10002D950, symSize: 0x24 }
  - { offsetInCU: 0x44AE7, offset: 0x44AE7, size: 0x8, addend: 0x0, symName: '__ZNSt3__13getB7v160006ILm0EJONS_9allocatorIZ21test_order_book_cacheR9TestSuiteE3$_4EEEEERNS_13tuple_elementIXT_ENS_5tupleIJDpT0_EEEE4typeERSB_', symObjAddr: 0x2B378, symBinAddr: 0x10002D9D4, symSize: 0x24 }
  - { offsetInCU: 0x45011, offset: 0x45011, size: 0x8, addend: 0x0, symName: '__ZNSt3__116forward_as_tupleB7v160006IJRKZ21test_order_book_cacheR9TestSuiteE3$_4EEENS_5tupleIJDpOT_EEES9_', symObjAddr: 0x2BFFC, symBinAddr: 0x10002E658, symSize: 0x1F8 }
  - { offsetInCU: 0x45061, offset: 0x45061, size: 0x8, addend: 0x0, symName: '__ZNSt3__13getB7v160006ILm0EJRKZ21test_order_book_cacheR9TestSuiteE3$_4EEERNS_13tuple_elementIXT_ENS_5tupleIJDpT0_EEEE4typeERSA_', symObjAddr: 0x2CB90, symBinAddr: 0x10002F1EC, symSize: 0x24 }
  - { offsetInCU: 0x450A5, offset: 0x450A5, size: 0x8, addend: 0x0, symName: '__ZNSt3__116forward_as_tupleB7v160006IJRKNS_9allocatorIZ21test_order_book_cacheR9TestSuiteE3$_4EEEEENS_5tupleIJDpOT_EEESB_', symObjAddr: 0x2D330, symBinAddr: 0x10002F98C, symSize: 0x1F8 }
  - { offsetInCU: 0x450F5, offset: 0x450F5, size: 0x8, addend: 0x0, symName: '__ZNSt3__13getB7v160006ILm0EJRKNS_9allocatorIZ21test_order_book_cacheR9TestSuiteE3$_4EEEEERNS_13tuple_elementIXT_ENS_5tupleIJDpT0_EEEE4typeERSC_', symObjAddr: 0x2DEC4, symBinAddr: 0x100030520, symSize: 0x24 }
  - { offsetInCU: 0x45139, offset: 0x45139, size: 0x8, addend: 0x0, symName: '__ZNSt3__18__invokeB7v160006IRZ21test_order_book_cacheR9TestSuiteE3$_4JEEEDTclclsr3stdE7declvalIT_EEspclsr3stdE7declvalIT0_EEEEOS5_DpOS6_', symObjAddr: 0x2DFC8, symBinAddr: 0x100030624, symSize: 0x24 }
  - { offsetInCU: 0x45222, offset: 0x45222, size: 0x8, addend: 0x0, symName: '__ZNSt3__116forward_as_tupleB7v160006IJZ22test_spread_calculatorR9TestSuiteE3$_5EEENS_5tupleIJDpOT_EEES7_', symObjAddr: 0x2FD88, symBinAddr: 0x1000323E4, symSize: 0x1F8 }
  - { offsetInCU: 0x4525D, offset: 0x4525D, size: 0x8, addend: 0x0, symName: '__ZNSt3__116forward_as_tupleB7v160006IJNS_9allocatorIZ22test_spread_calculatorR9TestSuiteE3$_5EEEEENS_5tupleIJDpOT_EEES9_', symObjAddr: 0x2FF80, symBinAddr: 0x1000325DC, symSize: 0x1F8 }
  - { offsetInCU: 0x452C2, offset: 0x452C2, size: 0x8, addend: 0x0, symName: '__ZNSt3__13getB7v160006ILm0EJOZ22test_spread_calculatorR9TestSuiteE3$_5EEERNS_13tuple_elementIXT_ENS_5tupleIJDpT0_EEEE4typeERS9_', symObjAddr: 0x30E54, symBinAddr: 0x1000334B0, symSize: 0x24 }
  - { offsetInCU: 0x45306, offset: 0x45306, size: 0x8, addend: 0x0, symName: '__ZNSt3__13getB7v160006ILm0EJONS_9allocatorIZ22test_spread_calculatorR9TestSuiteE3$_5EEEEERNS_13tuple_elementIXT_ENS_5tupleIJDpT0_EEEE4typeERSB_', symObjAddr: 0x30ED8, symBinAddr: 0x100033534, symSize: 0x24 }
  - { offsetInCU: 0x45830, offset: 0x45830, size: 0x8, addend: 0x0, symName: '__ZNSt3__116forward_as_tupleB7v160006IJRKZ22test_spread_calculatorR9TestSuiteE3$_5EEENS_5tupleIJDpOT_EEES9_', symObjAddr: 0x31B5C, symBinAddr: 0x1000341B8, symSize: 0x1F8 }
  - { offsetInCU: 0x45880, offset: 0x45880, size: 0x8, addend: 0x0, symName: '__ZNSt3__13getB7v160006ILm0EJRKZ22test_spread_calculatorR9TestSuiteE3$_5EEERNS_13tuple_elementIXT_ENS_5tupleIJDpT0_EEEE4typeERSA_', symObjAddr: 0x326F0, symBinAddr: 0x100034D4C, symSize: 0x24 }
  - { offsetInCU: 0x458C4, offset: 0x458C4, size: 0x8, addend: 0x0, symName: '__ZNSt3__116forward_as_tupleB7v160006IJRKNS_9allocatorIZ22test_spread_calculatorR9TestSuiteE3$_5EEEEENS_5tupleIJDpOT_EEESB_', symObjAddr: 0x32E90, symBinAddr: 0x1000354EC, symSize: 0x1F8 }
  - { offsetInCU: 0x45914, offset: 0x45914, size: 0x8, addend: 0x0, symName: '__ZNSt3__13getB7v160006ILm0EJRKNS_9allocatorIZ22test_spread_calculatorR9TestSuiteE3$_5EEEEERNS_13tuple_elementIXT_ENS_5tupleIJDpT0_EEEE4typeERSC_', symObjAddr: 0x33A24, symBinAddr: 0x100036080, symSize: 0x24 }
  - { offsetInCU: 0x45958, offset: 0x45958, size: 0x8, addend: 0x0, symName: '__ZNSt3__18__invokeB7v160006IRZ22test_spread_calculatorR9TestSuiteE3$_5JEEEDTclclsr3stdE7declvalIT_EEspclsr3stdE7declvalIT0_EEEEOS5_DpOS6_', symObjAddr: 0x33B28, symBinAddr: 0x100036184, symSize: 0x24 }
  - { offsetInCU: 0x45991, offset: 0x45991, size: 0x8, addend: 0x0, symName: __ZNSt3__119__debug_db_insert_cB7v160006INS_6vectorIN4data15CorrelationPairENS_9allocatorIS3_EEEEEEvPT_, symObjAddr: 0x361DC, symBinAddr: 0x100038838, symSize: 0x10 }
  - { offsetInCU: 0x459C4, offset: 0x459C4, size: 0x8, addend: 0x0, symName: __ZNSt3__112__to_addressB7v160006IN4data15CorrelationPairEEEPT_S4_, symObjAddr: 0x36B1C, symBinAddr: 0x100039178, symSize: 0x14 }
  - { offsetInCU: 0x45A21, offset: 0x45A21, size: 0x8, addend: 0x0, symName: __ZNSt3__112construct_atB7v160006IN4data15CorrelationPairEJRKS2_EPS2_EEPT_S7_DpOT0_, symObjAddr: 0x370B4, symBinAddr: 0x100039710, symSize: 0x40 }
  - { offsetInCU: 0x45A95, offset: 0x45A95, size: 0x8, addend: 0x0, symName: __ZNSt3__119__allocate_at_leastB7v160006INS_9allocatorIN4data15CorrelationPairEEEEENS_19__allocation_resultINS_16allocator_traitsIT_E7pointerEEERS7_m, symObjAddr: 0x38700, symBinAddr: 0x10003AD5C, symSize: 0x28C }
  - { offsetInCU: 0x45ADC, offset: 0x45ADC, size: 0x8, addend: 0x0, symName: __ZNSt3__142__uninitialized_allocator_move_if_noexceptB7v160006INS_9allocatorIN4data15CorrelationPairEEENS_16reverse_iteratorIPS3_EES7_S3_vEET1_RT_T0_SB_S8_, symObjAddr: 0x38C88, symBinAddr: 0x10003B2E4, symSize: 0x4A8 }
  - { offsetInCU: 0x45B67, offset: 0x45B67, size: 0x8, addend: 0x0, symName: __ZNSt3__14swapB7v160006IPN4data15CorrelationPairEEENS_9enable_ifIXaasr21is_move_constructibleIT_EE5valuesr18is_move_assignableIS5_EE5valueEvE4typeERS5_S8_, symObjAddr: 0x391C8, symBinAddr: 0x10003B824, symSize: 0x134 }
  - { offsetInCU: 0x45BBC, offset: 0x45BBC, size: 0x8, addend: 0x0, symName: __ZNSt3__125__debug_db_invalidate_allB7v160006INS_6vectorIN4data15CorrelationPairENS_9allocatorIS3_EEEEEEvPT_, symObjAddr: 0x393D8, symBinAddr: 0x10003BA34, symSize: 0x10 }
  - { offsetInCU: 0x45BEE, offset: 0x45BEE, size: 0x8, addend: 0x0, symName: __ZNSt3__14moveB7v160006INS_16reverse_iteratorIPN4data15CorrelationPairEEES5_EET0_T_S7_S6_, symObjAddr: 0x393E8, symBinAddr: 0x10003BA44, symSize: 0x4B0 }
  - { offsetInCU: 0x45C58, offset: 0x45C58, size: 0x8, addend: 0x0, symName: __ZNSt3__16__moveB7v160006INS_17_ClassicAlgPolicyENS_16reverse_iteratorIPN4data15CorrelationPairEEES6_S6_EENS_4pairIT0_T2_EES8_T1_S9_, symObjAddr: 0x39898, symBinAddr: 0x10003BEF4, symSize: 0x424 }
  - { offsetInCU: 0x45CD3, offset: 0x45CD3, size: 0x8, addend: 0x0, symName: __ZNSt3__123__dispatch_copy_or_moveB7v160006INS_17_ClassicAlgPolicyENS_11__move_loopIS1_EENS_14__move_trivialENS_16reverse_iteratorIPN4data15CorrelationPairEEES9_S9_EENS_4pairIT2_T4_EESB_T3_SC_, symObjAddr: 0x39CBC, symBinAddr: 0x10003C318, symSize: 0x424 }
  - { offsetInCU: 0x45D60, offset: 0x45D60, size: 0x8, addend: 0x0, symName: __ZNSt3__121__unwrap_and_dispatchB7v160006INS_10__overloadINS_11__move_loopINS_17_ClassicAlgPolicyEEENS_14__move_trivialEEENS_16reverse_iteratorIPN4data15CorrelationPairEEESB_SB_Li0EEENS_4pairIT0_T2_EESD_T1_SE_, symObjAddr: 0x3A0E0, symBinAddr: 0x10003C73C, symSize: 0x880 }
  - { offsetInCU: 0x45E09, offset: 0x45E09, size: 0x8, addend: 0x0, symName: __ZNSt3__114__unwrap_rangeB7v160006INS_16reverse_iteratorIPN4data15CorrelationPairEEES5_EEDaT_T0_, symObjAddr: 0x3A960, symBinAddr: 0x10003CFBC, symSize: 0x35C }
  - { offsetInCU: 0x460C9, offset: 0x460C9, size: 0x8, addend: 0x0, symName: __ZNSt3__113__unwrap_iterB7v160006INS_16reverse_iteratorIPN4data15CorrelationPairEEENS_18__unwrap_iter_implIS5_Lb0EEELi0EEEDTclsrT0_8__unwrapclsr3stdE7declvalIT_EEEES9_, symObjAddr: 0x3B000, symBinAddr: 0x10003D65C, symSize: 0x2EC }
  - { offsetInCU: 0x46112, offset: 0x46112, size: 0x8, addend: 0x0, symName: __ZNSt3__19make_pairB7v160006INS_16reverse_iteratorIPN4data15CorrelationPairEEES5_EENS_4pairINS_18__unwrap_ref_decayIT_E4typeENS7_IT0_E4typeEEEOS8_OSB_, symObjAddr: 0x3B2EC, symBinAddr: 0x10003D948, symSize: 0x38 }
  - { offsetInCU: 0x46161, offset: 0x46161, size: 0x8, addend: 0x0, symName: __ZNSt3__114__rewrap_rangeB7v160006INS_16reverse_iteratorIPN4data15CorrelationPairEEES5_S5_EET0_S6_T1_, symObjAddr: 0x3B324, symBinAddr: 0x10003D980, symSize: 0x3D4 }
  - { offsetInCU: 0x461C0, offset: 0x461C0, size: 0x8, addend: 0x0, symName: __ZNSt3__113__rewrap_iterB7v160006INS_16reverse_iteratorIPN4data15CorrelationPairEEES5_NS_18__unwrap_iter_implIS5_Lb0EEEEET_S8_T0_, symObjAddr: 0x3B6F8, symBinAddr: 0x10003DD54, symSize: 0x3E8 }
  - { offsetInCU: 0x4626F, offset: 0x4626F, size: 0x8, addend: 0x0, symName: __ZNSt3__1neB7v160006IPN4data15CorrelationPairES3_EEbRKNS_16reverse_iteratorIT_EERKNS4_IT0_EE, symObjAddr: 0x3BFB8, symBinAddr: 0x10003E614, symSize: 0x48 }
  - { offsetInCU: 0x4646F, offset: 0x4646F, size: 0x8, addend: 0x0, symName: __ZNSt3__110destroy_atB7v160006IN4data15CorrelationPairELi0EEEvPT_, symObjAddr: 0x3CEA8, symBinAddr: 0x10003F504, symSize: 0x24 }
  - { offsetInCU: 0x464A8, offset: 0x464A8, size: 0x8, addend: 0x0, symName: __ZNSt3__112__destroy_atB7v160006IN4data15CorrelationPairELi0EEEvPT_, symObjAddr: 0x3CECC, symBinAddr: 0x10003F528, symSize: 0x10 }
  - { offsetInCU: 0x464E0, offset: 0x464E0, size: 0x8, addend: 0x0, symName: __ZNSt3__122__make_exception_guardB7v160006INS_6vectorIN4data15CorrelationPairENS_9allocatorIS3_EEE16__destroy_vectorEEENS_28__exception_guard_exceptionsIT_EES9_, symObjAddr: 0x3D564, symBinAddr: 0x10003FBC0, symSize: 0x278 }
  - { offsetInCU: 0x4651A, offset: 0x4651A, size: 0x8, addend: 0x0, symName: __ZNSt3__130__uninitialized_allocator_copyB7v160006INS_9allocatorIN4data15CorrelationPairEEEPS3_S5_S5_EET2_RT_T0_T1_S6_, symObjAddr: 0x3E5D8, symBinAddr: 0x100040C34, symSize: 0x520 }
  - { offsetInCU: 0x465C6, offset: 0x465C6, size: 0x8, addend: 0x0, symName: __ZNSt3__122__make_exception_guardB7v160006INS_29_AllocatorDestroyRangeReverseINS_9allocatorIN4data15CorrelationPairEEEPS4_EEEENS_28__exception_guard_exceptionsIT_EES9_, symObjAddr: 0x3EAF8, symBinAddr: 0x100041154, symSize: 0x1F8 }
  - { offsetInCU: 0x465FE, offset: 0x465FE, size: 0x8, addend: 0x0, symName: __ZNSt3__112construct_atB7v160006IN4data15CorrelationPairEJRS2_EPS2_EEPT_S6_DpOT0_, symObjAddr: 0x3EFF8, symBinAddr: 0x100041654, symSize: 0x40 }
  - { offsetInCU: 0x46673, offset: 0x46673, size: 0x8, addend: 0x0, symName: __ZNSt3__119__allocator_destroyB7v160006INS_9allocatorIN4data15CorrelationPairEEENS_16reverse_iteratorIPS3_EES7_EEvRT_T0_T1_, symObjAddr: 0x3F490, symBinAddr: 0x100041AEC, symSize: 0x2B8 }
  - { offsetInCU: 0x466DF, offset: 0x466DF, size: 0x8, addend: 0x0, symName: __ZNSt3__112__to_addressB7v160006INS_16reverse_iteratorIPN4data15CorrelationPairEEEvEENS_5decayIDTclsr19__to_address_helperIT_EE6__callclsr3stdE7declvalIRKS7_EEEEE4typeES9_, symObjAddr: 0x3F748, symBinAddr: 0x100041DA4, symSize: 0x24 }
  - { offsetInCU: 0x46740, offset: 0x46740, size: 0x8, addend: 0x0, symName: __ZNSt3__14prevB7v160006IPN4data15CorrelationPairEEENS_9enable_ifIXsr25__is_cpp17_input_iteratorIT_EE5valueES5_E4typeES5_NS_15iterator_traitsIS5_E15difference_typeE, symObjAddr: 0x3F81C, symBinAddr: 0x100041E78, symSize: 0x25C }
  - { offsetInCU: 0x4678B, offset: 0x4678B, size: 0x8, addend: 0x0, symName: __ZNSt3__19__advanceB7v160006IPN4data15CorrelationPairEEEvRT_NS_15iterator_traitsIS4_E15difference_typeENS_26random_access_iterator_tagE, symObjAddr: 0x3FAC8, symBinAddr: 0x100042124, symSize: 0x80 }
  - { offsetInCU: 0x467D7, offset: 0x467D7, size: 0x8, addend: 0x0, symName: __ZNSt3__118__debug_db_erase_cB7v160006INS_6vectorIN4data15CorrelationPairENS_9allocatorIS3_EEEEEEvPT_, symObjAddr: 0x3FE68, symBinAddr: 0x1000424C4, symSize: 0x10 }
  - { offsetInCU: 0x4680A, offset: 0x4680A, size: 0x8, addend: 0x0, symName: __ZNSt3__119__debug_db_insert_cB7v160006INS_6vectorIN4data11MarketPriceENS_9allocatorIS3_EEEEEEvPT_, symObjAddr: 0x40320, symBinAddr: 0x10004297C, symSize: 0x10 }
  - { offsetInCU: 0x4683D, offset: 0x4683D, size: 0x8, addend: 0x0, symName: __ZNSt3__112__to_addressB7v160006IN4data11MarketPriceEEEPT_S4_, symObjAddr: 0x40C4C, symBinAddr: 0x1000432A8, symSize: 0x14 }
  - { offsetInCU: 0x4689A, offset: 0x4689A, size: 0x8, addend: 0x0, symName: __ZNSt3__112construct_atB7v160006IN4data11MarketPriceEJS2_EPS2_EEPT_S5_DpOT0_, symObjAddr: 0x411D0, symBinAddr: 0x10004382C, symSize: 0x40 }
  - { offsetInCU: 0x4690E, offset: 0x4690E, size: 0x8, addend: 0x0, symName: __ZNSt3__119__allocate_at_leastB7v160006INS_9allocatorIN4data11MarketPriceEEEEENS_19__allocation_resultINS_16allocator_traitsIT_E7pointerEEERS7_m, symObjAddr: 0x4281C, symBinAddr: 0x100044E78, symSize: 0x28C }
  - { offsetInCU: 0x46955, offset: 0x46955, size: 0x8, addend: 0x0, symName: __ZNSt3__142__uninitialized_allocator_move_if_noexceptB7v160006INS_9allocatorIN4data11MarketPriceEEENS_16reverse_iteratorIPS3_EES7_S3_vEET1_RT_T0_SB_S8_, symObjAddr: 0x42DA4, symBinAddr: 0x100045400, symSize: 0x4A8 }
  - { offsetInCU: 0x469E0, offset: 0x469E0, size: 0x8, addend: 0x0, symName: __ZNSt3__14swapB7v160006IPN4data11MarketPriceEEENS_9enable_ifIXaasr21is_move_constructibleIT_EE5valuesr18is_move_assignableIS5_EE5valueEvE4typeERS5_S8_, symObjAddr: 0x432E4, symBinAddr: 0x100045940, symSize: 0x134 }
  - { offsetInCU: 0x46A35, offset: 0x46A35, size: 0x8, addend: 0x0, symName: __ZNSt3__125__debug_db_invalidate_allB7v160006INS_6vectorIN4data11MarketPriceENS_9allocatorIS3_EEEEEEvPT_, symObjAddr: 0x434F4, symBinAddr: 0x100045B50, symSize: 0x10 }
  - { offsetInCU: 0x46A67, offset: 0x46A67, size: 0x8, addend: 0x0, symName: __ZNSt3__14moveB7v160006INS_16reverse_iteratorIPN4data11MarketPriceEEES5_EET0_T_S7_S6_, symObjAddr: 0x43504, symBinAddr: 0x100045B60, symSize: 0x4B0 }
  - { offsetInCU: 0x46AD1, offset: 0x46AD1, size: 0x8, addend: 0x0, symName: __ZNSt3__16__moveB7v160006INS_17_ClassicAlgPolicyENS_16reverse_iteratorIPN4data11MarketPriceEEES6_S6_EENS_4pairIT0_T2_EES8_T1_S9_, symObjAddr: 0x439B4, symBinAddr: 0x100046010, symSize: 0x424 }
  - { offsetInCU: 0x46B4C, offset: 0x46B4C, size: 0x8, addend: 0x0, symName: __ZNSt3__123__dispatch_copy_or_moveB7v160006INS_17_ClassicAlgPolicyENS_11__move_loopIS1_EENS_14__move_trivialENS_16reverse_iteratorIPN4data11MarketPriceEEES9_S9_EENS_4pairIT2_T4_EESB_T3_SC_, symObjAddr: 0x43DD8, symBinAddr: 0x100046434, symSize: 0x424 }
  - { offsetInCU: 0x46BD9, offset: 0x46BD9, size: 0x8, addend: 0x0, symName: __ZNSt3__121__unwrap_and_dispatchB7v160006INS_10__overloadINS_11__move_loopINS_17_ClassicAlgPolicyEEENS_14__move_trivialEEENS_16reverse_iteratorIPN4data11MarketPriceEEESB_SB_Li0EEENS_4pairIT0_T2_EESD_T1_SE_, symObjAddr: 0x441FC, symBinAddr: 0x100046858, symSize: 0x880 }
  - { offsetInCU: 0x46C82, offset: 0x46C82, size: 0x8, addend: 0x0, symName: __ZNSt3__114__unwrap_rangeB7v160006INS_16reverse_iteratorIPN4data11MarketPriceEEES5_EEDaT_T0_, symObjAddr: 0x44A7C, symBinAddr: 0x1000470D8, symSize: 0x35C }
  - { offsetInCU: 0x46DAC, offset: 0x46DAC, size: 0x8, addend: 0x0, symName: __ZNSt3__113__unwrap_iterB7v160006INS_16reverse_iteratorIPN4data11MarketPriceEEENS_18__unwrap_iter_implIS5_Lb0EEELi0EEEDTclsrT0_8__unwrapclsr3stdE7declvalIT_EEEES9_, symObjAddr: 0x4511C, symBinAddr: 0x100047778, symSize: 0x2EC }
  - { offsetInCU: 0x46DF5, offset: 0x46DF5, size: 0x8, addend: 0x0, symName: __ZNSt3__19make_pairB7v160006INS_16reverse_iteratorIPN4data11MarketPriceEEES5_EENS_4pairINS_18__unwrap_ref_decayIT_E4typeENS7_IT0_E4typeEEEOS8_OSB_, symObjAddr: 0x45408, symBinAddr: 0x100047A64, symSize: 0x38 }
  - { offsetInCU: 0x46E44, offset: 0x46E44, size: 0x8, addend: 0x0, symName: __ZNSt3__114__rewrap_rangeB7v160006INS_16reverse_iteratorIPN4data11MarketPriceEEES5_S5_EET0_S6_T1_, symObjAddr: 0x45440, symBinAddr: 0x100047A9C, symSize: 0x3D4 }
  - { offsetInCU: 0x46EA3, offset: 0x46EA3, size: 0x8, addend: 0x0, symName: __ZNSt3__113__rewrap_iterB7v160006INS_16reverse_iteratorIPN4data11MarketPriceEEES5_NS_18__unwrap_iter_implIS5_Lb0EEEEET_S8_T0_, symObjAddr: 0x45814, symBinAddr: 0x100047E70, symSize: 0x3E8 }
  - { offsetInCU: 0x46F52, offset: 0x46F52, size: 0x8, addend: 0x0, symName: __ZNSt3__1neB7v160006IPN4data11MarketPriceES3_EEbRKNS_16reverse_iteratorIT_EERKNS4_IT0_EE, symObjAddr: 0x460D4, symBinAddr: 0x100048730, symSize: 0x48 }
  - { offsetInCU: 0x4700D, offset: 0x4700D, size: 0x8, addend: 0x0, symName: __ZNSt3__110destroy_atB7v160006IN4data11MarketPriceELi0EEEvPT_, symObjAddr: 0x46FC4, symBinAddr: 0x100049620, symSize: 0x24 }
  - { offsetInCU: 0x47046, offset: 0x47046, size: 0x8, addend: 0x0, symName: __ZNSt3__112__destroy_atB7v160006IN4data11MarketPriceELi0EEEvPT_, symObjAddr: 0x46FE8, symBinAddr: 0x100049644, symSize: 0x10 }
  - { offsetInCU: 0x4707E, offset: 0x4707E, size: 0x8, addend: 0x0, symName: __ZNSt3__1neB7v160006IPKN4data15CorrelationPairEEEbRKNS_11__wrap_iterIT_EES9_, symObjAddr: 0x478F8, symBinAddr: 0x100049F54, symSize: 0x34 }
  - { offsetInCU: 0x470C3, offset: 0x470C3, size: 0x8, addend: 0x0, symName: __ZNSt3__1neB7v160006IPKN4data11MarketPriceEEEbRKNS_11__wrap_iterIT_EES9_, symObjAddr: 0x47E60, symBinAddr: 0x10004A4BC, symSize: 0x34 }
  - { offsetInCU: 0x47109, offset: 0x47109, size: 0x8, addend: 0x0, symName: __ZNSt3__119__debug_db_insert_cB7v160006INS_6vectorIN4data15ArbitrageSignalENS_9allocatorIS3_EEEEEEvPT_, symObjAddr: 0x485E8, symBinAddr: 0x10004AC44, symSize: 0x10 }
  - { offsetInCU: 0x4713B, offset: 0x4713B, size: 0x8, addend: 0x0, symName: __ZNSt3__119__allocate_at_leastB7v160006INS_9allocatorIN4data15ArbitrageSignalEEEEENS_19__allocation_resultINS_16allocator_traitsIT_E7pointerEEERS7_m, symObjAddr: 0x49778, symBinAddr: 0x10004BDD4, symSize: 0x28C }
  - { offsetInCU: 0x47182, offset: 0x47182, size: 0x8, addend: 0x0, symName: __ZNSt3__142__uninitialized_allocator_move_if_noexceptB7v160006INS_9allocatorIN4data15ArbitrageSignalEEENS_16reverse_iteratorIPS3_EES7_S3_vEET1_RT_T0_SB_S8_, symObjAddr: 0x49D14, symBinAddr: 0x10004C370, symSize: 0x4A8 }
  - { offsetInCU: 0x4720D, offset: 0x4720D, size: 0x8, addend: 0x0, symName: __ZNSt3__14swapB7v160006IPN4data15ArbitrageSignalEEENS_9enable_ifIXaasr21is_move_constructibleIT_EE5valuesr18is_move_assignableIS5_EE5valueEvE4typeERS5_S8_, symObjAddr: 0x4A254, symBinAddr: 0x10004C8B0, symSize: 0x134 }
  - { offsetInCU: 0x47262, offset: 0x47262, size: 0x8, addend: 0x0, symName: __ZNSt3__125__debug_db_invalidate_allB7v160006INS_6vectorIN4data15ArbitrageSignalENS_9allocatorIS3_EEEEEEvPT_, symObjAddr: 0x4A48C, symBinAddr: 0x10004CAE8, symSize: 0x10 }
  - { offsetInCU: 0x47295, offset: 0x47295, size: 0x8, addend: 0x0, symName: __ZNSt3__112__to_addressB7v160006IN4data15ArbitrageSignalEEEPT_S4_, symObjAddr: 0x4A558, symBinAddr: 0x10004CBB4, symSize: 0x14 }
  - { offsetInCU: 0x472CB, offset: 0x472CB, size: 0x8, addend: 0x0, symName: __ZNSt3__14moveB7v160006INS_16reverse_iteratorIPN4data15ArbitrageSignalEEES5_EET0_T_S7_S6_, symObjAddr: 0x4A56C, symBinAddr: 0x10004CBC8, symSize: 0x4B0 }
  - { offsetInCU: 0x47335, offset: 0x47335, size: 0x8, addend: 0x0, symName: __ZNSt3__16__moveB7v160006INS_17_ClassicAlgPolicyENS_16reverse_iteratorIPN4data15ArbitrageSignalEEES6_S6_EENS_4pairIT0_T2_EES8_T1_S9_, symObjAddr: 0x4AA1C, symBinAddr: 0x10004D078, symSize: 0x424 }
  - { offsetInCU: 0x473B0, offset: 0x473B0, size: 0x8, addend: 0x0, symName: __ZNSt3__123__dispatch_copy_or_moveB7v160006INS_17_ClassicAlgPolicyENS_11__move_loopIS1_EENS_14__move_trivialENS_16reverse_iteratorIPN4data15ArbitrageSignalEEES9_S9_EENS_4pairIT2_T4_EESB_T3_SC_, symObjAddr: 0x4AE40, symBinAddr: 0x10004D49C, symSize: 0x424 }
  - { offsetInCU: 0x4743D, offset: 0x4743D, size: 0x8, addend: 0x0, symName: __ZNSt3__121__unwrap_and_dispatchB7v160006INS_10__overloadINS_11__move_loopINS_17_ClassicAlgPolicyEEENS_14__move_trivialEEENS_16reverse_iteratorIPN4data15ArbitrageSignalEEESB_SB_Li0EEENS_4pairIT0_T2_EESD_T1_SE_, symObjAddr: 0x4B264, symBinAddr: 0x10004D8C0, symSize: 0x880 }
  - { offsetInCU: 0x474E6, offset: 0x474E6, size: 0x8, addend: 0x0, symName: __ZNSt3__114__unwrap_rangeB7v160006INS_16reverse_iteratorIPN4data15ArbitrageSignalEEES5_EEDaT_T0_, symObjAddr: 0x4BAE4, symBinAddr: 0x10004E140, symSize: 0x35C }
  - { offsetInCU: 0x47610, offset: 0x47610, size: 0x8, addend: 0x0, symName: __ZNSt3__113__unwrap_iterB7v160006INS_16reverse_iteratorIPN4data15ArbitrageSignalEEENS_18__unwrap_iter_implIS5_Lb0EEELi0EEEDTclsrT0_8__unwrapclsr3stdE7declvalIT_EEEES9_, symObjAddr: 0x4C184, symBinAddr: 0x10004E7E0, symSize: 0x2EC }
  - { offsetInCU: 0x47659, offset: 0x47659, size: 0x8, addend: 0x0, symName: __ZNSt3__19make_pairB7v160006INS_16reverse_iteratorIPN4data15ArbitrageSignalEEES5_EENS_4pairINS_18__unwrap_ref_decayIT_E4typeENS7_IT0_E4typeEEEOS8_OSB_, symObjAddr: 0x4C470, symBinAddr: 0x10004EACC, symSize: 0x38 }
  - { offsetInCU: 0x476A8, offset: 0x476A8, size: 0x8, addend: 0x0, symName: __ZNSt3__114__rewrap_rangeB7v160006INS_16reverse_iteratorIPN4data15ArbitrageSignalEEES5_S5_EET0_S6_T1_, symObjAddr: 0x4C4A8, symBinAddr: 0x10004EB04, symSize: 0x3D4 }
  - { offsetInCU: 0x47707, offset: 0x47707, size: 0x8, addend: 0x0, symName: __ZNSt3__113__rewrap_iterB7v160006INS_16reverse_iteratorIPN4data15ArbitrageSignalEEES5_NS_18__unwrap_iter_implIS5_Lb0EEEEET_S8_T0_, symObjAddr: 0x4C87C, symBinAddr: 0x10004EED8, symSize: 0x3E8 }
  - { offsetInCU: 0x477B6, offset: 0x477B6, size: 0x8, addend: 0x0, symName: __ZNSt3__1neB7v160006IPN4data15ArbitrageSignalES3_EEbRKNS_16reverse_iteratorIT_EERKNS4_IT0_EE, symObjAddr: 0x4D13C, symBinAddr: 0x10004F798, symSize: 0x48 }
  - { offsetInCU: 0x47871, offset: 0x47871, size: 0x8, addend: 0x0, symName: __ZNSt3__110destroy_atB7v160006IN4data15ArbitrageSignalELi0EEEvPT_, symObjAddr: 0x4E050, symBinAddr: 0x1000506AC, symSize: 0x24 }
  - { offsetInCU: 0x478AA, offset: 0x478AA, size: 0x8, addend: 0x0, symName: __ZNSt3__112__destroy_atB7v160006IN4data15ArbitrageSignalELi0EEEvPT_, symObjAddr: 0x4E074, symBinAddr: 0x1000506D0, symSize: 0x10 }
  - { offsetInCU: 0x478E2, offset: 0x478E2, size: 0x8, addend: 0x0, symName: __ZNSt3__1eqB7v160006IPKN4data15CorrelationPairEEEbRKNS_11__wrap_iterIT_EES9_, symObjAddr: 0x4E3D0, symBinAddr: 0x100050A2C, symSize: 0x48 }
  - { offsetInCU: 0x47927, offset: 0x47927, size: 0x8, addend: 0x0, symName: __ZNSt3__1eqB7v160006IPKN4data11MarketPriceEEEbRKNS_11__wrap_iterIT_EES9_, symObjAddr: 0x4E728, symBinAddr: 0x100050D84, symSize: 0x48 }
  - { offsetInCU: 0x47993, offset: 0x47993, size: 0x8, addend: 0x0, symName: __ZNSt3__112construct_atB7v160006IN4data15ArbitrageSignalEJRKS2_EPS2_EEPT_S7_DpOT0_, symObjAddr: 0x4F27C, symBinAddr: 0x1000518D8, symSize: 0x40 }
  - { offsetInCU: 0x47A08, offset: 0x47A08, size: 0x8, addend: 0x0, symName: __ZNSt3__118__debug_db_erase_cB7v160006INS_6vectorIN4data15ArbitrageSignalENS_9allocatorIS3_EEEEEEvPT_, symObjAddr: 0x4FE9C, symBinAddr: 0x1000524F8, symSize: 0x10 }
  - { offsetInCU: 0x47A3B, offset: 0x47A3B, size: 0x8, addend: 0x0, symName: __ZNSt3__118__debug_db_erase_cB7v160006INS_6vectorIN4data11MarketPriceENS_9allocatorIS3_EEEEEEvPT_, symObjAddr: 0x50524, symBinAddr: 0x100052B80, symSize: 0x10 }
  - { offsetInCU: 0x47B1E, offset: 0x47B1E, size: 0x8, addend: 0x0, symName: '__ZNSt3__116forward_as_tupleB7v160006IJZ22test_spread_calculatorR9TestSuiteE3$_6EEENS_5tupleIJDpOT_EEES7_', symObjAddr: 0x51D20, symBinAddr: 0x10005437C, symSize: 0x1F8 }
  - { offsetInCU: 0x47B59, offset: 0x47B59, size: 0x8, addend: 0x0, symName: '__ZNSt3__116forward_as_tupleB7v160006IJNS_9allocatorIZ22test_spread_calculatorR9TestSuiteE3$_6EEEEENS_5tupleIJDpOT_EEES9_', symObjAddr: 0x51F18, symBinAddr: 0x100054574, symSize: 0x1F8 }
  - { offsetInCU: 0x47BBE, offset: 0x47BBE, size: 0x8, addend: 0x0, symName: '__ZNSt3__13getB7v160006ILm0EJOZ22test_spread_calculatorR9TestSuiteE3$_6EEERNS_13tuple_elementIXT_ENS_5tupleIJDpT0_EEEE4typeERS9_', symObjAddr: 0x52DEC, symBinAddr: 0x100055448, symSize: 0x24 }
  - { offsetInCU: 0x47C02, offset: 0x47C02, size: 0x8, addend: 0x0, symName: '__ZNSt3__13getB7v160006ILm0EJONS_9allocatorIZ22test_spread_calculatorR9TestSuiteE3$_6EEEEERNS_13tuple_elementIXT_ENS_5tupleIJDpT0_EEEE4typeERSB_', symObjAddr: 0x52E70, symBinAddr: 0x1000554CC, symSize: 0x24 }
  - { offsetInCU: 0x4812C, offset: 0x4812C, size: 0x8, addend: 0x0, symName: '__ZNSt3__116forward_as_tupleB7v160006IJRKZ22test_spread_calculatorR9TestSuiteE3$_6EEENS_5tupleIJDpOT_EEES9_', symObjAddr: 0x53AF4, symBinAddr: 0x100056150, symSize: 0x1F8 }
  - { offsetInCU: 0x4817C, offset: 0x4817C, size: 0x8, addend: 0x0, symName: '__ZNSt3__13getB7v160006ILm0EJRKZ22test_spread_calculatorR9TestSuiteE3$_6EEERNS_13tuple_elementIXT_ENS_5tupleIJDpT0_EEEE4typeERSA_', symObjAddr: 0x54688, symBinAddr: 0x100056CE4, symSize: 0x24 }
  - { offsetInCU: 0x481C0, offset: 0x481C0, size: 0x8, addend: 0x0, symName: '__ZNSt3__116forward_as_tupleB7v160006IJRKNS_9allocatorIZ22test_spread_calculatorR9TestSuiteE3$_6EEEEENS_5tupleIJDpOT_EEESB_', symObjAddr: 0x54E28, symBinAddr: 0x100057484, symSize: 0x1F8 }
  - { offsetInCU: 0x48210, offset: 0x48210, size: 0x8, addend: 0x0, symName: '__ZNSt3__13getB7v160006ILm0EJRKNS_9allocatorIZ22test_spread_calculatorR9TestSuiteE3$_6EEEEERNS_13tuple_elementIXT_ENS_5tupleIJDpT0_EEEE4typeERSC_', symObjAddr: 0x559BC, symBinAddr: 0x100058018, symSize: 0x24 }
  - { offsetInCU: 0x48254, offset: 0x48254, size: 0x8, addend: 0x0, symName: '__ZNSt3__18__invokeB7v160006IRZ22test_spread_calculatorR9TestSuiteE3$_6JEEEDTclclsr3stdE7declvalIT_EEspclsr3stdE7declvalIT0_EEEEOS5_DpOS6_', symObjAddr: 0x55AC0, symBinAddr: 0x10005811C, symSize: 0x24 }
  - { offsetInCU: 0x4833D, offset: 0x4833D, size: 0x8, addend: 0x0, symName: '__ZNSt3__116forward_as_tupleB7v160006IJZ21test_signal_generatorR9TestSuiteE3$_7EEENS_5tupleIJDpOT_EEES7_', symObjAddr: 0x57430, symBinAddr: 0x100059A8C, symSize: 0x1F8 }
  - { offsetInCU: 0x48378, offset: 0x48378, size: 0x8, addend: 0x0, symName: '__ZNSt3__116forward_as_tupleB7v160006IJNS_9allocatorIZ21test_signal_generatorR9TestSuiteE3$_7EEEEENS_5tupleIJDpOT_EEES9_', symObjAddr: 0x57628, symBinAddr: 0x100059C84, symSize: 0x1F8 }
  - { offsetInCU: 0x483DD, offset: 0x483DD, size: 0x8, addend: 0x0, symName: '__ZNSt3__13getB7v160006ILm0EJOZ21test_signal_generatorR9TestSuiteE3$_7EEERNS_13tuple_elementIXT_ENS_5tupleIJDpT0_EEEE4typeERS9_', symObjAddr: 0x584FC, symBinAddr: 0x10005AB58, symSize: 0x24 }
  - { offsetInCU: 0x48421, offset: 0x48421, size: 0x8, addend: 0x0, symName: '__ZNSt3__13getB7v160006ILm0EJONS_9allocatorIZ21test_signal_generatorR9TestSuiteE3$_7EEEEERNS_13tuple_elementIXT_ENS_5tupleIJDpT0_EEEE4typeERSB_', symObjAddr: 0x58580, symBinAddr: 0x10005ABDC, symSize: 0x24 }
  - { offsetInCU: 0x4894B, offset: 0x4894B, size: 0x8, addend: 0x0, symName: '__ZNSt3__116forward_as_tupleB7v160006IJRKZ21test_signal_generatorR9TestSuiteE3$_7EEENS_5tupleIJDpOT_EEES9_', symObjAddr: 0x59204, symBinAddr: 0x10005B860, symSize: 0x1F8 }
  - { offsetInCU: 0x4899B, offset: 0x4899B, size: 0x8, addend: 0x0, symName: '__ZNSt3__13getB7v160006ILm0EJRKZ21test_signal_generatorR9TestSuiteE3$_7EEERNS_13tuple_elementIXT_ENS_5tupleIJDpT0_EEEE4typeERSA_', symObjAddr: 0x59D98, symBinAddr: 0x10005C3F4, symSize: 0x24 }
  - { offsetInCU: 0x489DF, offset: 0x489DF, size: 0x8, addend: 0x0, symName: '__ZNSt3__116forward_as_tupleB7v160006IJRKNS_9allocatorIZ21test_signal_generatorR9TestSuiteE3$_7EEEEENS_5tupleIJDpOT_EEESB_', symObjAddr: 0x5A538, symBinAddr: 0x10005CB94, symSize: 0x1F8 }
  - { offsetInCU: 0x48A2F, offset: 0x48A2F, size: 0x8, addend: 0x0, symName: '__ZNSt3__13getB7v160006ILm0EJRKNS_9allocatorIZ21test_signal_generatorR9TestSuiteE3$_7EEEEERNS_13tuple_elementIXT_ENS_5tupleIJDpT0_EEEE4typeERSC_', symObjAddr: 0x5B0CC, symBinAddr: 0x10005D728, symSize: 0x24 }
  - { offsetInCU: 0x48A73, offset: 0x48A73, size: 0x8, addend: 0x0, symName: '__ZNSt3__18__invokeB7v160006IRZ21test_signal_generatorR9TestSuiteE3$_7JEEEDTclclsr3stdE7declvalIT_EEspclsr3stdE7declvalIT0_EEEEOS5_DpOS6_', symObjAddr: 0x5B1D0, symBinAddr: 0x10005D82C, symSize: 0x24 }
  - { offsetInCU: 0x48AAC, offset: 0x48AAC, size: 0x8, addend: 0x0, symName: __ZNSt3__119__debug_db_insert_cB7v160006INS_6vectorINS_4pairINS_12basic_stringIcNS_11char_traitsIcEENS_9allocatorIcEEEEyEENS6_IS9_EEEEEEvPT_, symObjAddr: 0x5C30C, symBinAddr: 0x10005E968, symSize: 0x10 }
  - { offsetInCU: 0x48B6E, offset: 0x48B6E, size: 0x8, addend: 0x0, symName: __ZNSt3__1neB7v160006IPKN4data15ArbitrageSignalEEEbRKNS_11__wrap_iterIT_EES9_, symObjAddr: 0x5C934, symBinAddr: 0x10005EF90, symSize: 0x34 }
  - { offsetInCU: 0x48BB3, offset: 0x48BB3, size: 0x8, addend: 0x0, symName: __ZNSt3__1eqB7v160006IPKN4data15ArbitrageSignalEEEbRKNS_11__wrap_iterIT_EES9_, symObjAddr: 0x5DE00, symBinAddr: 0x10006045C, symSize: 0x48 }
  - { offsetInCU: 0x48BF8, offset: 0x48BF8, size: 0x8, addend: 0x0, symName: __ZNSt3__1neB7v160006IPKNS_4pairINS_12basic_stringIcNS_11char_traitsIcEENS_9allocatorIcEEEEyEEEEbRKNS_11__wrap_iterIT_EESF_, symObjAddr: 0x5EE74, symBinAddr: 0x1000614D0, symSize: 0x34 }
  - { offsetInCU: 0x48C3D, offset: 0x48C3D, size: 0x8, addend: 0x0, symName: __ZNSt3__13getB7v160006ILm0ENS_12basic_stringIcNS_11char_traitsIcEENS_9allocatorIcEEEEyEERKNS_13tuple_elementIXT_ENS_4pairIT0_T1_EEE4typeERKSB_, symObjAddr: 0x5EF08, symBinAddr: 0x100061564, symSize: 0x24 }
  - { offsetInCU: 0x48C87, offset: 0x48C87, size: 0x8, addend: 0x0, symName: __ZNSt3__13getB7v160006ILm1ENS_12basic_stringIcNS_11char_traitsIcEENS_9allocatorIcEEEEyEERKNS_13tuple_elementIXT_ENS_4pairIT0_T1_EEE4typeERKSB_, symObjAddr: 0x5EF2C, symBinAddr: 0x100061588, symSize: 0x24 }
  - { offsetInCU: 0x48CD1, offset: 0x48CD1, size: 0x8, addend: 0x0, symName: __ZNSt3__1eqB7v160006INS_9allocatorIcEEEEbRKNS_12basic_stringIcNS_11char_traitsIcEET_EES9_, symObjAddr: 0x5EF50, symBinAddr: 0x1000615AC, symSize: 0x234 }
  - { offsetInCU: 0x48D44, offset: 0x48D44, size: 0x8, addend: 0x0, symName: __ZNSt3__1ltB7v160006ENS_15strong_orderingENS_20_CmpUnspecifiedParamE, symObjAddr: 0x5F1EC, symBinAddr: 0x100061848, symSize: 0x274 }
  - { offsetInCU: 0x48D83, offset: 0x48D83, size: 0x8, addend: 0x0, symName: __ZNSt3__1ssB7v160006IcNS_11char_traitsIcEENS_9allocatorIcEEEEDaRKNS_12basic_stringIT_T0_T1_EESC_, symObjAddr: 0x5F460, symBinAddr: 0x100061ABC, symSize: 0x3AC }
  - { offsetInCU: 0x48DF9, offset: 0x48DF9, size: 0x8, addend: 0x0, symName: __ZNSt3__1plB7v160006IcNS_11char_traitsIcEENS_9allocatorIcEEEENS_12basic_stringIT_T0_T1_EEOS9_SA_, symObjAddr: 0x5F840, symBinAddr: 0x100061E9C, symSize: 0x40 }
  - { offsetInCU: 0x48E51, offset: 0x48E51, size: 0x8, addend: 0x0, symName: __ZNSt3__1plB7v160006IcNS_11char_traitsIcEENS_9allocatorIcEEEENS_12basic_stringIT_T0_T1_EEOS9_PKS6_, symObjAddr: 0x5F880, symBinAddr: 0x100061EDC, symSize: 0x40 }
  - { offsetInCU: 0x48EA9, offset: 0x48EA9, size: 0x8, addend: 0x0, symName: __ZNSt3__1ssB7v160006IcNS_11char_traitsIcEEEEDaNS_17basic_string_viewIT_T0_EES7_, symObjAddr: 0x5F8C0, symBinAddr: 0x100061F1C, symSize: 0x3E8 }
  - { offsetInCU: 0x48F00, offset: 0x48F00, size: 0x8, addend: 0x0, symName: __ZNSt3__118__constexpr_memcmpB7v160006IcEEiPKT_S3_m, symObjAddr: 0x60440, symBinAddr: 0x100062A9C, symSize: 0x34 }
  - { offsetInCU: 0x48F55, offset: 0x48F55, size: 0x8, addend: 0x0, symName: __ZNSt3__115__debug_db_swapB7v160006INS_12basic_stringIcNS_11char_traitsIcEENS_9allocatorIcEEEEEEvPT_S8_, symObjAddr: 0x608D8, symBinAddr: 0x100062F34, symSize: 0x14 }
  - { offsetInCU: 0x48F96, offset: 0x48F96, size: 0x8, addend: 0x0, symName: __ZNSt3__1eqB7v160006IPKNS_4pairINS_12basic_stringIcNS_11char_traitsIcEENS_9allocatorIcEEEEyEEEEbRKNS_11__wrap_iterIT_EESF_, symObjAddr: 0x60B9C, symBinAddr: 0x1000631F8, symSize: 0x48 }
  - { offsetInCU: 0x490F5, offset: 0x490F5, size: 0x8, addend: 0x0, symName: __ZNSt3__1neB7v160006IPNS_4pairINS_12basic_stringIcNS_11char_traitsIcEENS_9allocatorIcEEEEyEEEEbRKNS_11__wrap_iterIT_EESE_, symObjAddr: 0x61144, symBinAddr: 0x1000637A0, symSize: 0x34 }
  - { offsetInCU: 0x4913A, offset: 0x4913A, size: 0x8, addend: 0x0, symName: __ZNSt3__13getB7v160006ILm0ENS_12basic_stringIcNS_11char_traitsIcEENS_9allocatorIcEEEEyEERNS_13tuple_elementIXT_ENS_4pairIT0_T1_EEE4typeERSB_, symObjAddr: 0x611D8, symBinAddr: 0x100063834, symSize: 0x24 }
  - { offsetInCU: 0x49184, offset: 0x49184, size: 0x8, addend: 0x0, symName: __ZNSt3__13getB7v160006ILm1ENS_12basic_stringIcNS_11char_traitsIcEENS_9allocatorIcEEEEyEERNS_13tuple_elementIXT_ENS_4pairIT0_T1_EEE4typeERSB_, symObjAddr: 0x611FC, symBinAddr: 0x100063858, symSize: 0x24 }
  - { offsetInCU: 0x491CE, offset: 0x491CE, size: 0x8, addend: 0x0, symName: __ZNSt3__1eqB7v160006IPNS_4pairINS_12basic_stringIcNS_11char_traitsIcEENS_9allocatorIcEEEEyEEEEbRKNS_11__wrap_iterIT_EESE_, symObjAddr: 0x61680, symBinAddr: 0x100063CDC, symSize: 0x48 }
  - { offsetInCU: 0x49214, offset: 0x49214, size: 0x8, addend: 0x0, symName: __ZNSt3__112__to_addressB7v160006INS_4pairINS_12basic_stringIcNS_11char_traitsIcEENS_9allocatorIcEEEEyEEEEPT_SA_, symObjAddr: 0x61F74, symBinAddr: 0x1000645D0, symSize: 0x14 }
  - { offsetInCU: 0x49271, offset: 0x49271, size: 0x8, addend: 0x0, symName: __ZNSt3__112construct_atB7v160006INS_4pairINS_12basic_stringIcNS_11char_traitsIcEENS_9allocatorIcEEEEyEEJS8_EPS8_EEPT_SB_DpOT0_, symObjAddr: 0x624E4, symBinAddr: 0x100064B40, symSize: 0x3C }
  - { offsetInCU: 0x492E5, offset: 0x492E5, size: 0x8, addend: 0x0, symName: __ZNSt3__119__allocate_at_leastB7v160006INS_9allocatorINS_4pairINS_12basic_stringIcNS_11char_traitsIcEENS1_IcEEEEyEEEEEENS_19__allocation_resultINS_16allocator_traitsIT_E7pointerEEERSC_m, symObjAddr: 0x63C00, symBinAddr: 0x10006625C, symSize: 0x28C }
  - { offsetInCU: 0x4932C, offset: 0x4932C, size: 0x8, addend: 0x0, symName: __ZNSt3__142__uninitialized_allocator_move_if_noexceptB7v160006INS_9allocatorINS_4pairINS_12basic_stringIcNS_11char_traitsIcEENS1_IcEEEEyEEEENS_16reverse_iteratorIPS8_EESC_SC_EET2_RT_T0_T1_SD_, symObjAddr: 0x64168, symBinAddr: 0x1000667C4, symSize: 0x544 }
  - { offsetInCU: 0x493E1, offset: 0x493E1, size: 0x8, addend: 0x0, symName: __ZNSt3__14swapB7v160006IPNS_4pairINS_12basic_stringIcNS_11char_traitsIcEENS_9allocatorIcEEEEyEEEENS_9enable_ifIXaasr21is_move_constructibleIT_EE5valuesr18is_move_assignableISB_EE5valueEvE4typeERSB_SE_, symObjAddr: 0x64744, symBinAddr: 0x100066DA0, symSize: 0x134 }
  - { offsetInCU: 0x49436, offset: 0x49436, size: 0x8, addend: 0x0, symName: __ZNSt3__125__debug_db_invalidate_allB7v160006INS_6vectorINS_4pairINS_12basic_stringIcNS_11char_traitsIcEENS_9allocatorIcEEEEyEENS6_IS9_EEEEEEvPT_, symObjAddr: 0x64938, symBinAddr: 0x100066F94, symSize: 0x10 }
  - { offsetInCU: 0x49468, offset: 0x49468, size: 0x8, addend: 0x0, symName: __ZNSt3__122__make_exception_guardB7v160006INS_29_AllocatorDestroyRangeReverseINS_9allocatorINS_4pairINS_12basic_stringIcNS_11char_traitsIcEENS2_IcEEEEyEEEENS_16reverse_iteratorIPS9_EEEEEENS_28__exception_guard_exceptionsIT_EESG_, symObjAddr: 0x64948, symBinAddr: 0x100066FA4, symSize: 0x1F8 }
  - { offsetInCU: 0x494A0, offset: 0x494A0, size: 0x8, addend: 0x0, symName: __ZNSt3__1neB7v160006IPNS_4pairINS_12basic_stringIcNS_11char_traitsIcEENS_9allocatorIcEEEEyEES9_EEbRKNS_16reverse_iteratorIT_EERKNSA_IT0_EE, symObjAddr: 0x64B84, symBinAddr: 0x1000671E0, symSize: 0x48 }
  - { offsetInCU: 0x494EE, offset: 0x494EE, size: 0x8, addend: 0x0, symName: __ZNSt3__112__to_addressB7v160006INS_16reverse_iteratorIPNS_4pairINS_12basic_stringIcNS_11char_traitsIcEENS_9allocatorIcEEEEyEEEEvEENS_5decayIDTclsr19__to_address_helperIT_EE6__callclsr3stdE7declvalIRKSD_EEEEE4typeESF_, symObjAddr: 0x64BCC, symBinAddr: 0x100067228, symSize: 0x24 }
  - { offsetInCU: 0x4954F, offset: 0x4954F, size: 0x8, addend: 0x0, symName: __ZNSt3__14prevB7v160006IPNS_4pairINS_12basic_stringIcNS_11char_traitsIcEENS_9allocatorIcEEEEyEEEENS_9enable_ifIXsr25__is_cpp17_input_iteratorIT_EE5valueESB_E4typeESB_NS_15iterator_traitsISB_E15difference_typeE, symObjAddr: 0x65014, symBinAddr: 0x100067670, symSize: 0x25C }
  - { offsetInCU: 0x4959A, offset: 0x4959A, size: 0x8, addend: 0x0, symName: __ZNSt3__19__advanceB7v160006IPNS_4pairINS_12basic_stringIcNS_11char_traitsIcEENS_9allocatorIcEEEEyEEEEvRT_NS_15iterator_traitsISA_E15difference_typeENS_26random_access_iterator_tagE, symObjAddr: 0x652C0, symBinAddr: 0x10006791C, symSize: 0x78 }
  - { offsetInCU: 0x495E6, offset: 0x495E6, size: 0x8, addend: 0x0, symName: __ZNSt3__119__allocator_destroyB7v160006INS_9allocatorINS_4pairINS_12basic_stringIcNS_11char_traitsIcEENS1_IcEEEEyEEEENS_16reverse_iteratorINSA_IPS8_EEEESD_EEvRT_T0_T1_, symObjAddr: 0x6579C, symBinAddr: 0x100067DF8, symSize: 0x70 }
  - { offsetInCU: 0x4964B, offset: 0x4964B, size: 0x8, addend: 0x0, symName: __ZNSt3__1neB7v160006INS_16reverse_iteratorIPNS_4pairINS_12basic_stringIcNS_11char_traitsIcEENS_9allocatorIcEEEEyEEEESB_EEbRKNS1_IT_EERKNS1_IT0_EE, symObjAddr: 0x65A54, symBinAddr: 0x1000680B0, symSize: 0x2CC }
  - { offsetInCU: 0x4969B, offset: 0x4969B, size: 0x8, addend: 0x0, symName: __ZNSt3__112__to_addressB7v160006INS_16reverse_iteratorINS1_IPNS_4pairINS_12basic_stringIcNS_11char_traitsIcEENS_9allocatorIcEEEEyEEEEEEvEENS_5decayIDTclsr19__to_address_helperIT_EE6__callclsr3stdE7declvalIRKSE_EEEEE4typeESG_, symObjAddr: 0x65D48, symBinAddr: 0x1000683A4, symSize: 0x24 }
  - { offsetInCU: 0x496D3, offset: 0x496D3, size: 0x8, addend: 0x0, symName: __ZNSt3__110destroy_atB7v160006INS_4pairINS_12basic_stringIcNS_11char_traitsIcEENS_9allocatorIcEEEEyEELi0EEEvPT_, symObjAddr: 0x65FA8, symBinAddr: 0x100068604, symSize: 0x24 }
  - { offsetInCU: 0x4970C, offset: 0x4970C, size: 0x8, addend: 0x0, symName: __ZNSt3__112__destroy_atB7v160006INS_4pairINS_12basic_stringIcNS_11char_traitsIcEENS_9allocatorIcEEEEyEELi0EEEvPT_, symObjAddr: 0x65FCC, symBinAddr: 0x100068628, symSize: 0x24 }
  - { offsetInCU: 0x4976E, offset: 0x4976E, size: 0x8, addend: 0x0, symName: __ZNSt3__14prevB7v160006INS_16reverse_iteratorIPNS_4pairINS_12basic_stringIcNS_11char_traitsIcEENS_9allocatorIcEEEEyEEEEEENS_9enable_ifIXsr25__is_cpp17_input_iteratorIT_EE5valueESD_E4typeESD_NS_15iterator_traitsISD_E15difference_typeE, symObjAddr: 0x662D4, symBinAddr: 0x100068930, symSize: 0x2B0 }
  - { offsetInCU: 0x497B9, offset: 0x497B9, size: 0x8, addend: 0x0, symName: __ZNSt3__19__advanceB7v160006INS_16reverse_iteratorIPNS_4pairINS_12basic_stringIcNS_11char_traitsIcEENS_9allocatorIcEEEEyEEEEEEvRT_NS_15iterator_traitsISC_E15difference_typeENS_26random_access_iterator_tagE, symObjAddr: 0x665D4, symBinAddr: 0x100068C30, symSize: 0x2C }
  - { offsetInCU: 0x49804, offset: 0x49804, size: 0x8, addend: 0x0, symName: __ZNSt3__19remove_ifB7v160006INS_11__wrap_iterIPNS_4pairINS_12basic_stringIcNS_11char_traitsIcEENS_9allocatorIcEEEEyEEEEZN8strategy15SignalGenerator15prune_cooldownsEyEUlRKT_E_EESE_SE_SE_T0_, symObjAddr: 0x67388, symBinAddr: 0x1000699E4, symSize: 0x524 }
  - { offsetInCU: 0x49888, offset: 0x49888, size: 0x8, addend: 0x0, symName: __ZNSt3__1miB7v160006IPKNS_4pairINS_12basic_stringIcNS_11char_traitsIcEENS_9allocatorIcEEEEyEEPS8_EEDTmicldtfp_4baseEcldtfp0_4baseEERKNS_11__wrap_iterIT_EERKNSD_IT0_EE, symObjAddr: 0x678E8, symBinAddr: 0x100069F44, symSize: 0x48 }
  - { offsetInCU: 0x498D6, offset: 0x498D6, size: 0x8, addend: 0x0, symName: __ZNSt3__14moveB7v160006IPNS_4pairINS_12basic_stringIcNS_11char_traitsIcEENS_9allocatorIcEEEEyEES9_EET0_T_SB_SA_, symObjAddr: 0x6799C, symBinAddr: 0x100069FF8, symSize: 0x26C }
  - { offsetInCU: 0x49936, offset: 0x49936, size: 0x8, addend: 0x0, symName: __ZNSt3__1miB7v160006IPKNS_4pairINS_12basic_stringIcNS_11char_traitsIcEENS_9allocatorIcEEEEyEESA_EEDTmicldtfp_4baseEcldtfp0_4baseEERKNS_11__wrap_iterIT_EERKNSC_IT0_EE, symObjAddr: 0x67C08, symBinAddr: 0x10006A264, symSize: 0x48 }
  - { offsetInCU: 0x49984, offset: 0x49984, size: 0x8, addend: 0x0, symName: __ZNSt3__16__moveB7v160006INS_17_ClassicAlgPolicyEPNS_4pairINS_12basic_stringIcNS_11char_traitsIcEENS_9allocatorIcEEEEyEESA_SA_EENS2_IT0_T2_EESB_T1_SC_, symObjAddr: 0x67D78, symBinAddr: 0x10006A3D4, symSize: 0x22C }
  - { offsetInCU: 0x499F6, offset: 0x499F6, size: 0x8, addend: 0x0, symName: __ZNSt3__123__dispatch_copy_or_moveB7v160006INS_17_ClassicAlgPolicyENS_11__move_loopIS1_EENS_14__move_trivialEPNS_4pairINS_12basic_stringIcNS_11char_traitsIcEENS_9allocatorIcEEEEyEESD_SD_EENS5_IT2_T4_EESE_T3_SF_, symObjAddr: 0x67FA4, symBinAddr: 0x10006A600, symSize: 0x22C }
  - { offsetInCU: 0x49A7A, offset: 0x49A7A, size: 0x8, addend: 0x0, symName: __ZNSt3__121__unwrap_and_dispatchB7v160006INS_10__overloadINS_11__move_loopINS_17_ClassicAlgPolicyEEENS_14__move_trivialEEEPNS_4pairINS_12basic_stringIcNS_11char_traitsIcEENS_9allocatorIcEEEEyEESF_SF_Li0EEENS7_IT0_T2_EESG_T1_SH_, symObjAddr: 0x681D0, symBinAddr: 0x10006A82C, symSize: 0x5A4 }
  - { offsetInCU: 0x49B18, offset: 0x49B18, size: 0x8, addend: 0x0, symName: __ZNSt3__114__unwrap_rangeB7v160006IPNS_4pairINS_12basic_stringIcNS_11char_traitsIcEENS_9allocatorIcEEEEyEES9_EEDaT_T0_, symObjAddr: 0x68774, symBinAddr: 0x10006ADD0, symSize: 0x224 }
  - { offsetInCU: 0x49C3C, offset: 0x49C3C, size: 0x8, addend: 0x0, symName: __ZNSt3__113__unwrap_iterB7v160006IPNS_4pairINS_12basic_stringIcNS_11char_traitsIcEENS_9allocatorIcEEEEyEENS_18__unwrap_iter_implIS9_Lb1EEELi0EEEDTclsrT0_8__unwrapclsr3stdE7declvalIT_EEEESD_, symObjAddr: 0x68DC0, symBinAddr: 0x10006B41C, symSize: 0x24 }
  - { offsetInCU: 0x49C81, offset: 0x49C81, size: 0x8, addend: 0x0, symName: __ZNSt3__19make_pairB7v160006IPNS_4pairINS_12basic_stringIcNS_11char_traitsIcEENS_9allocatorIcEEEEyEES9_EENS1_INS_18__unwrap_ref_decayIT_E4typeENSA_IT0_E4typeEEEOSB_OSE_, symObjAddr: 0x68DE4, symBinAddr: 0x10006B440, symSize: 0x20C }
  - { offsetInCU: 0x49CD2, offset: 0x49CD2, size: 0x8, addend: 0x0, symName: __ZNSt3__114__rewrap_rangeB7v160006IPNS_4pairINS_12basic_stringIcNS_11char_traitsIcEENS_9allocatorIcEEEEyEES9_S9_EET0_SA_T1_, symObjAddr: 0x68FF0, symBinAddr: 0x10006B64C, symSize: 0x2C }
  - { offsetInCU: 0x49D29, offset: 0x49D29, size: 0x8, addend: 0x0, symName: __ZNSt3__113__rewrap_iterB7v160006IPNS_4pairINS_12basic_stringIcNS_11char_traitsIcEENS_9allocatorIcEEEEyEES9_NS_18__unwrap_iter_implIS9_Lb1EEEEET_SC_T0_, symObjAddr: 0x6901C, symBinAddr: 0x10006B678, symSize: 0x48 }
  - { offsetInCU: 0x49E47, offset: 0x49E47, size: 0x8, addend: 0x0, symName: __ZNSt3__17find_ifB7v160006INS_11__wrap_iterIPNS_4pairINS_12basic_stringIcNS_11char_traitsIcEENS_9allocatorIcEEEEyEEEERZN8strategy15SignalGenerator15prune_cooldownsEyEUlRKT_E_EESE_SE_SE_T0_, symObjAddr: 0x69D98, symBinAddr: 0x10006C3F4, symSize: 0x334 }
  - { offsetInCU: 0x49EAE, offset: 0x49EAE, size: 0x8, addend: 0x0, symName: __ZNSt3__118__debug_db_erase_cB7v160006INS_6vectorINS_4pairINS_12basic_stringIcNS_11char_traitsIcEENS_9allocatorIcEEEEyEENS6_IS9_EEEEEEvPT_, symObjAddr: 0x6A7E4, symBinAddr: 0x10006CE40, symSize: 0x10 }
  - { offsetInCU: 0x49F91, offset: 0x49F91, size: 0x8, addend: 0x0, symName: '__ZNSt3__116forward_as_tupleB7v160006IJZ21test_signal_generatorR9TestSuiteE3$_8EEENS_5tupleIJDpOT_EEES7_', symObjAddr: 0x6BCA8, symBinAddr: 0x10006E304, symSize: 0x1F8 }
  - { offsetInCU: 0x49FCC, offset: 0x49FCC, size: 0x8, addend: 0x0, symName: '__ZNSt3__116forward_as_tupleB7v160006IJNS_9allocatorIZ21test_signal_generatorR9TestSuiteE3$_8EEEEENS_5tupleIJDpOT_EEES9_', symObjAddr: 0x6BEA0, symBinAddr: 0x10006E4FC, symSize: 0x1F8 }
  - { offsetInCU: 0x4A031, offset: 0x4A031, size: 0x8, addend: 0x0, symName: '__ZNSt3__13getB7v160006ILm0EJOZ21test_signal_generatorR9TestSuiteE3$_8EEERNS_13tuple_elementIXT_ENS_5tupleIJDpT0_EEEE4typeERS9_', symObjAddr: 0x6CD74, symBinAddr: 0x10006F3D0, symSize: 0x24 }
  - { offsetInCU: 0x4A075, offset: 0x4A075, size: 0x8, addend: 0x0, symName: '__ZNSt3__13getB7v160006ILm0EJONS_9allocatorIZ21test_signal_generatorR9TestSuiteE3$_8EEEEERNS_13tuple_elementIXT_ENS_5tupleIJDpT0_EEEE4typeERSB_', symObjAddr: 0x6CDF8, symBinAddr: 0x10006F454, symSize: 0x24 }
  - { offsetInCU: 0x4A59F, offset: 0x4A59F, size: 0x8, addend: 0x0, symName: '__ZNSt3__116forward_as_tupleB7v160006IJRKZ21test_signal_generatorR9TestSuiteE3$_8EEENS_5tupleIJDpOT_EEES9_', symObjAddr: 0x6DA7C, symBinAddr: 0x1000700D8, symSize: 0x1F8 }
  - { offsetInCU: 0x4A5EF, offset: 0x4A5EF, size: 0x8, addend: 0x0, symName: '__ZNSt3__13getB7v160006ILm0EJRKZ21test_signal_generatorR9TestSuiteE3$_8EEERNS_13tuple_elementIXT_ENS_5tupleIJDpT0_EEEE4typeERSA_', symObjAddr: 0x6E610, symBinAddr: 0x100070C6C, symSize: 0x24 }
  - { offsetInCU: 0x4A633, offset: 0x4A633, size: 0x8, addend: 0x0, symName: '__ZNSt3__116forward_as_tupleB7v160006IJRKNS_9allocatorIZ21test_signal_generatorR9TestSuiteE3$_8EEEEENS_5tupleIJDpOT_EEESB_', symObjAddr: 0x6EDB0, symBinAddr: 0x10007140C, symSize: 0x1F8 }
  - { offsetInCU: 0x4A683, offset: 0x4A683, size: 0x8, addend: 0x0, symName: '__ZNSt3__13getB7v160006ILm0EJRKNS_9allocatorIZ21test_signal_generatorR9TestSuiteE3$_8EEEEERNS_13tuple_elementIXT_ENS_5tupleIJDpT0_EEEE4typeERSC_', symObjAddr: 0x6F944, symBinAddr: 0x100071FA0, symSize: 0x24 }
  - { offsetInCU: 0x4A6C7, offset: 0x4A6C7, size: 0x8, addend: 0x0, symName: '__ZNSt3__18__invokeB7v160006IRZ21test_signal_generatorR9TestSuiteE3$_8JEEEDTclclsr3stdE7declvalIT_EEspclsr3stdE7declvalIT0_EEEEOS5_DpOS6_', symObjAddr: 0x6FA48, symBinAddr: 0x1000720A4, symSize: 0x24 }
  - { offsetInCU: 0x4A7B0, offset: 0x4A7B0, size: 0x8, addend: 0x0, symName: '__ZNSt3__116forward_as_tupleB7v160006IJZ17test_risk_managerR9TestSuiteE3$_9EEENS_5tupleIJDpOT_EEES7_', symObjAddr: 0x714A0, symBinAddr: 0x100073AFC, symSize: 0x1F8 }
  - { offsetInCU: 0x4A7EB, offset: 0x4A7EB, size: 0x8, addend: 0x0, symName: '__ZNSt3__116forward_as_tupleB7v160006IJNS_9allocatorIZ17test_risk_managerR9TestSuiteE3$_9EEEEENS_5tupleIJDpOT_EEES9_', symObjAddr: 0x71698, symBinAddr: 0x100073CF4, symSize: 0x1F8 }
  - { offsetInCU: 0x4A850, offset: 0x4A850, size: 0x8, addend: 0x0, symName: '__ZNSt3__13getB7v160006ILm0EJOZ17test_risk_managerR9TestSuiteE3$_9EEERNS_13tuple_elementIXT_ENS_5tupleIJDpT0_EEEE4typeERS9_', symObjAddr: 0x7256C, symBinAddr: 0x100074BC8, symSize: 0x24 }
  - { offsetInCU: 0x4A894, offset: 0x4A894, size: 0x8, addend: 0x0, symName: '__ZNSt3__13getB7v160006ILm0EJONS_9allocatorIZ17test_risk_managerR9TestSuiteE3$_9EEEEERNS_13tuple_elementIXT_ENS_5tupleIJDpT0_EEEE4typeERSB_', symObjAddr: 0x725F0, symBinAddr: 0x100074C4C, symSize: 0x24 }
  - { offsetInCU: 0x4ADBE, offset: 0x4ADBE, size: 0x8, addend: 0x0, symName: '__ZNSt3__116forward_as_tupleB7v160006IJRKZ17test_risk_managerR9TestSuiteE3$_9EEENS_5tupleIJDpOT_EEES9_', symObjAddr: 0x73274, symBinAddr: 0x1000758D0, symSize: 0x1F8 }
  - { offsetInCU: 0x4AE0E, offset: 0x4AE0E, size: 0x8, addend: 0x0, symName: '__ZNSt3__13getB7v160006ILm0EJRKZ17test_risk_managerR9TestSuiteE3$_9EEERNS_13tuple_elementIXT_ENS_5tupleIJDpT0_EEEE4typeERSA_', symObjAddr: 0x73E08, symBinAddr: 0x100076464, symSize: 0x24 }
  - { offsetInCU: 0x4AE52, offset: 0x4AE52, size: 0x8, addend: 0x0, symName: '__ZNSt3__116forward_as_tupleB7v160006IJRKNS_9allocatorIZ17test_risk_managerR9TestSuiteE3$_9EEEEENS_5tupleIJDpOT_EEESB_', symObjAddr: 0x745A8, symBinAddr: 0x100076C04, symSize: 0x1F8 }
  - { offsetInCU: 0x4AEA2, offset: 0x4AEA2, size: 0x8, addend: 0x0, symName: '__ZNSt3__13getB7v160006ILm0EJRKNS_9allocatorIZ17test_risk_managerR9TestSuiteE3$_9EEEEERNS_13tuple_elementIXT_ENS_5tupleIJDpT0_EEEE4typeERSC_', symObjAddr: 0x7513C, symBinAddr: 0x100077798, symSize: 0x24 }
  - { offsetInCU: 0x4AEE6, offset: 0x4AEE6, size: 0x8, addend: 0x0, symName: '__ZNSt3__18__invokeB7v160006IRZ17test_risk_managerR9TestSuiteE3$_9JEEEDTclclsr3stdE7declvalIT_EEspclsr3stdE7declvalIT0_EEEEOS5_DpOS6_', symObjAddr: 0x75240, symBinAddr: 0x10007789C, symSize: 0x24 }
  - { offsetInCU: 0x4AF1F, offset: 0x4AF1F, size: 0x8, addend: 0x0, symName: __ZNSt3__119__debug_db_insert_cB7v160006INS_6vectorIyNS_9allocatorIyEEEEEEvPT_, symObjAddr: 0x75B44, symBinAddr: 0x1000781A0, symSize: 0x10 }
  - { offsetInCU: 0x4AF52, offset: 0x4AF52, size: 0x8, addend: 0x0, symName: __ZNSt3__118__debug_db_erase_cB7v160006INS_6vectorIyNS_9allocatorIyEEEEEEvPT_, symObjAddr: 0x76294, symBinAddr: 0x1000788F0, symSize: 0x10 }
  - { offsetInCU: 0x4AF85, offset: 0x4AF85, size: 0x8, addend: 0x0, symName: __ZNSt3__112__to_addressB7v160006IyEEPT_S2_, symObjAddr: 0x7658C, symBinAddr: 0x100078BE8, symSize: 0x14 }
  - { offsetInCU: 0x4AFBC, offset: 0x4AFBC, size: 0x8, addend: 0x0, symName: __ZNSt3__110destroy_atB7v160006IyLi0EEEvPT_, symObjAddr: 0x766DC, symBinAddr: 0x100078D38, symSize: 0x24 }
  - { offsetInCU: 0x4AFF5, offset: 0x4AFF5, size: 0x8, addend: 0x0, symName: __ZNSt3__112__destroy_atB7v160006IyLi0EEEvPT_, symObjAddr: 0x76700, symBinAddr: 0x100078D5C, symSize: 0x10 }
  - { offsetInCU: 0x4B0DE, offset: 0x4B0DE, size: 0x8, addend: 0x0, symName: '__ZNSt3__116forward_as_tupleB7v160006IJZ17test_risk_managerR9TestSuiteE4$_10EEENS_5tupleIJDpOT_EEES7_', symObjAddr: 0x77C44, symBinAddr: 0x10007A2A0, symSize: 0x1F8 }
  - { offsetInCU: 0x4B119, offset: 0x4B119, size: 0x8, addend: 0x0, symName: '__ZNSt3__116forward_as_tupleB7v160006IJNS_9allocatorIZ17test_risk_managerR9TestSuiteE4$_10EEEEENS_5tupleIJDpOT_EEES9_', symObjAddr: 0x77E3C, symBinAddr: 0x10007A498, symSize: 0x1F8 }
  - { offsetInCU: 0x4B17E, offset: 0x4B17E, size: 0x8, addend: 0x0, symName: '__ZNSt3__13getB7v160006ILm0EJOZ17test_risk_managerR9TestSuiteE4$_10EEERNS_13tuple_elementIXT_ENS_5tupleIJDpT0_EEEE4typeERS9_', symObjAddr: 0x78D10, symBinAddr: 0x10007B36C, symSize: 0x24 }
  - { offsetInCU: 0x4B1C2, offset: 0x4B1C2, size: 0x8, addend: 0x0, symName: '__ZNSt3__13getB7v160006ILm0EJONS_9allocatorIZ17test_risk_managerR9TestSuiteE4$_10EEEEERNS_13tuple_elementIXT_ENS_5tupleIJDpT0_EEEE4typeERSB_', symObjAddr: 0x78D94, symBinAddr: 0x10007B3F0, symSize: 0x24 }
  - { offsetInCU: 0x4B6EC, offset: 0x4B6EC, size: 0x8, addend: 0x0, symName: '__ZNSt3__116forward_as_tupleB7v160006IJRKZ17test_risk_managerR9TestSuiteE4$_10EEENS_5tupleIJDpOT_EEES9_', symObjAddr: 0x79A18, symBinAddr: 0x10007C074, symSize: 0x1F8 }
  - { offsetInCU: 0x4B73C, offset: 0x4B73C, size: 0x8, addend: 0x0, symName: '__ZNSt3__13getB7v160006ILm0EJRKZ17test_risk_managerR9TestSuiteE4$_10EEERNS_13tuple_elementIXT_ENS_5tupleIJDpT0_EEEE4typeERSA_', symObjAddr: 0x7A5AC, symBinAddr: 0x10007CC08, symSize: 0x24 }
  - { offsetInCU: 0x4B780, offset: 0x4B780, size: 0x8, addend: 0x0, symName: '__ZNSt3__116forward_as_tupleB7v160006IJRKNS_9allocatorIZ17test_risk_managerR9TestSuiteE4$_10EEEEENS_5tupleIJDpOT_EEESB_', symObjAddr: 0x7AD4C, symBinAddr: 0x10007D3A8, symSize: 0x1F8 }
  - { offsetInCU: 0x4B7D0, offset: 0x4B7D0, size: 0x8, addend: 0x0, symName: '__ZNSt3__13getB7v160006ILm0EJRKNS_9allocatorIZ17test_risk_managerR9TestSuiteE4$_10EEEEERNS_13tuple_elementIXT_ENS_5tupleIJDpT0_EEEE4typeERSC_', symObjAddr: 0x7B8E0, symBinAddr: 0x10007DF3C, symSize: 0x24 }
  - { offsetInCU: 0x4B814, offset: 0x4B814, size: 0x8, addend: 0x0, symName: '__ZNSt3__18__invokeB7v160006IRZ17test_risk_managerR9TestSuiteE4$_10JEEEDTclclsr3stdE7declvalIT_EEspclsr3stdE7declvalIT0_EEEEOS5_DpOS6_', symObjAddr: 0x7B9E4, symBinAddr: 0x10007E040, symSize: 0x24 }
  - { offsetInCU: 0x4B8FD, offset: 0x4B8FD, size: 0x8, addend: 0x0, symName: '__ZNSt3__116forward_as_tupleB7v160006IJZ17test_risk_managerR9TestSuiteE4$_11EEENS_5tupleIJDpOT_EEES7_', symObjAddr: 0x7D33C, symBinAddr: 0x10007F998, symSize: 0x1F8 }
  - { offsetInCU: 0x4B938, offset: 0x4B938, size: 0x8, addend: 0x0, symName: '__ZNSt3__116forward_as_tupleB7v160006IJNS_9allocatorIZ17test_risk_managerR9TestSuiteE4$_11EEEEENS_5tupleIJDpOT_EEES9_', symObjAddr: 0x7D534, symBinAddr: 0x10007FB90, symSize: 0x1F8 }
  - { offsetInCU: 0x4B99D, offset: 0x4B99D, size: 0x8, addend: 0x0, symName: '__ZNSt3__13getB7v160006ILm0EJOZ17test_risk_managerR9TestSuiteE4$_11EEERNS_13tuple_elementIXT_ENS_5tupleIJDpT0_EEEE4typeERS9_', symObjAddr: 0x7E408, symBinAddr: 0x100080A64, symSize: 0x24 }
  - { offsetInCU: 0x4B9E1, offset: 0x4B9E1, size: 0x8, addend: 0x0, symName: '__ZNSt3__13getB7v160006ILm0EJONS_9allocatorIZ17test_risk_managerR9TestSuiteE4$_11EEEEERNS_13tuple_elementIXT_ENS_5tupleIJDpT0_EEEE4typeERSB_', symObjAddr: 0x7E48C, symBinAddr: 0x100080AE8, symSize: 0x24 }
  - { offsetInCU: 0x4BF0B, offset: 0x4BF0B, size: 0x8, addend: 0x0, symName: '__ZNSt3__116forward_as_tupleB7v160006IJRKZ17test_risk_managerR9TestSuiteE4$_11EEENS_5tupleIJDpOT_EEES9_', symObjAddr: 0x7F110, symBinAddr: 0x10008176C, symSize: 0x1F8 }
  - { offsetInCU: 0x4BF5B, offset: 0x4BF5B, size: 0x8, addend: 0x0, symName: '__ZNSt3__13getB7v160006ILm0EJRKZ17test_risk_managerR9TestSuiteE4$_11EEERNS_13tuple_elementIXT_ENS_5tupleIJDpT0_EEEE4typeERSA_', symObjAddr: 0x7FCA4, symBinAddr: 0x100082300, symSize: 0x24 }
  - { offsetInCU: 0x4BF9F, offset: 0x4BF9F, size: 0x8, addend: 0x0, symName: '__ZNSt3__116forward_as_tupleB7v160006IJRKNS_9allocatorIZ17test_risk_managerR9TestSuiteE4$_11EEEEENS_5tupleIJDpOT_EEESB_', symObjAddr: 0x80444, symBinAddr: 0x100082AA0, symSize: 0x1F8 }
  - { offsetInCU: 0x4BFEF, offset: 0x4BFEF, size: 0x8, addend: 0x0, symName: '__ZNSt3__13getB7v160006ILm0EJRKNS_9allocatorIZ17test_risk_managerR9TestSuiteE4$_11EEEEERNS_13tuple_elementIXT_ENS_5tupleIJDpT0_EEEE4typeERSC_', symObjAddr: 0x80FD8, symBinAddr: 0x100083634, symSize: 0x24 }
  - { offsetInCU: 0x4C033, offset: 0x4C033, size: 0x8, addend: 0x0, symName: '__ZNSt3__18__invokeB7v160006IRZ17test_risk_managerR9TestSuiteE4$_11JEEEDTclclsr3stdE7declvalIT_EEspclsr3stdE7declvalIT0_EEEEOS5_DpOS6_', symObjAddr: 0x810DC, symBinAddr: 0x100083738, symSize: 0x24 }
  - { offsetInCU: 0x4C06B, offset: 0x4C06B, size: 0x8, addend: 0x0, symName: __ZNSt3__19remove_ifB7v160006INS_11__wrap_iterIPyEEZN4risk11RiskManager31update_circuit_breaker_internalEbyEUlyE_EET_S7_S7_T0_, symObjAddr: 0x82824, symBinAddr: 0x100084E80, symSize: 0x5C0 }
  - { offsetInCU: 0x4C116, offset: 0x4C116, size: 0x8, addend: 0x0, symName: __ZNSt3__112construct_atB7v160006IyJRKyEPyEEPT_S5_DpOT0_, symObjAddr: 0x83DC0, symBinAddr: 0x10008641C, symSize: 0xB8 }
  - { offsetInCU: 0x4C18A, offset: 0x4C18A, size: 0x8, addend: 0x0, symName: __ZNSt3__119__allocate_at_leastB7v160006INS_9allocatorIyEEEENS_19__allocation_resultINS_16allocator_traitsIT_E7pointerEEERS5_m, symObjAddr: 0x85420, symBinAddr: 0x100087A7C, symSize: 0x28C }
  - { offsetInCU: 0x4C1D1, offset: 0x4C1D1, size: 0x8, addend: 0x0, symName: __ZNSt3__142__uninitialized_allocator_move_if_noexceptB7v160006INS_9allocatorIyEENS_16reverse_iteratorIPyEES5_yvEET1_RT_T0_S9_S6_, symObjAddr: 0x858BC, symBinAddr: 0x100087F18, symSize: 0x4A8 }
  - { offsetInCU: 0x4C25C, offset: 0x4C25C, size: 0x8, addend: 0x0, symName: __ZNSt3__14swapB7v160006IPyEENS_9enable_ifIXaasr21is_move_constructibleIT_EE5valuesr18is_move_assignableIS3_EE5valueEvE4typeERS3_S6_, symObjAddr: 0x85DFC, symBinAddr: 0x100088458, symSize: 0x134 }
  - { offsetInCU: 0x4C2B1, offset: 0x4C2B1, size: 0x8, addend: 0x0, symName: __ZNSt3__125__debug_db_invalidate_allB7v160006INS_6vectorIyNS_9allocatorIyEEEEEEvPT_, symObjAddr: 0x85FF0, symBinAddr: 0x10008864C, symSize: 0x10 }
  - { offsetInCU: 0x4C2E3, offset: 0x4C2E3, size: 0x8, addend: 0x0, symName: __ZNSt3__14moveB7v160006INS_16reverse_iteratorIPyEES3_EET0_T_S5_S4_, symObjAddr: 0x86000, symBinAddr: 0x10008865C, symSize: 0x4B0 }
  - { offsetInCU: 0x4C34D, offset: 0x4C34D, size: 0x8, addend: 0x0, symName: __ZNSt3__16__moveB7v160006INS_17_ClassicAlgPolicyENS_16reverse_iteratorIPyEES4_S4_EENS_4pairIT0_T2_EES6_T1_S7_, symObjAddr: 0x864B0, symBinAddr: 0x100088B0C, symSize: 0x424 }
  - { offsetInCU: 0x4C3C8, offset: 0x4C3C8, size: 0x8, addend: 0x0, symName: __ZNSt3__123__dispatch_copy_or_moveB7v160006INS_17_ClassicAlgPolicyENS_11__move_loopIS1_EENS_14__move_trivialENS_16reverse_iteratorIPyEES7_S7_EENS_4pairIT2_T4_EES9_T3_SA_, symObjAddr: 0x868D4, symBinAddr: 0x100088F30, symSize: 0x424 }
  - { offsetInCU: 0x4C455, offset: 0x4C455, size: 0x8, addend: 0x0, symName: __ZNSt3__121__unwrap_and_dispatchB7v160006INS_10__overloadINS_11__move_loopINS_17_ClassicAlgPolicyEEENS_14__move_trivialEEENS_16reverse_iteratorIPyEES9_S9_Li0EEENS_4pairIT0_T2_EESB_T1_SC_, symObjAddr: 0x86CF8, symBinAddr: 0x100089354, symSize: 0x880 }
  - { offsetInCU: 0x4C4FE, offset: 0x4C4FE, size: 0x8, addend: 0x0, symName: __ZNSt3__114__unwrap_rangeB7v160006INS_16reverse_iteratorIPyEES3_EEDaT_T0_, symObjAddr: 0x87578, symBinAddr: 0x100089BD4, symSize: 0x35C }
  - { offsetInCU: 0x4C628, offset: 0x4C628, size: 0x8, addend: 0x0, symName: __ZNSt3__113__unwrap_iterB7v160006INS_16reverse_iteratorIPyEENS_18__unwrap_iter_implIS3_Lb0EEELi0EEEDTclsrT0_8__unwrapclsr3stdE7declvalIT_EEEES7_, symObjAddr: 0x87C7C, symBinAddr: 0x10008A2D8, symSize: 0x2EC }
  - { offsetInCU: 0x4C671, offset: 0x4C671, size: 0x8, addend: 0x0, symName: __ZNSt3__19make_pairB7v160006INS_16reverse_iteratorIPyEES3_EENS_4pairINS_18__unwrap_ref_decayIT_E4typeENS5_IT0_E4typeEEEOS6_OS9_, symObjAddr: 0x87F68, symBinAddr: 0x10008A5C4, symSize: 0x38 }
  - { offsetInCU: 0x4C6C0, offset: 0x4C6C0, size: 0x8, addend: 0x0, symName: __ZNSt3__114__rewrap_rangeB7v160006INS_16reverse_iteratorIPyEES3_S3_EET0_S4_T1_, symObjAddr: 0x87FA0, symBinAddr: 0x10008A5FC, symSize: 0x3D4 }
  - { offsetInCU: 0x4C71F, offset: 0x4C71F, size: 0x8, addend: 0x0, symName: __ZNSt3__113__rewrap_iterB7v160006INS_16reverse_iteratorIPyEES3_NS_18__unwrap_iter_implIS3_Lb0EEEEET_S6_T0_, symObjAddr: 0x88374, symBinAddr: 0x10008A9D0, symSize: 0x3E8 }
  - { offsetInCU: 0x4C7CE, offset: 0x4C7CE, size: 0x8, addend: 0x0, symName: __ZNSt3__1neB7v160006IPyS1_EEbRKNS_16reverse_iteratorIT_EERKNS2_IT0_EE, symObjAddr: 0x88C34, symBinAddr: 0x10008B290, symSize: 0x48 }
  - { offsetInCU: 0x4C888, offset: 0x4C888, size: 0x8, addend: 0x0, symName: __ZNSt3__1miB7v160006IPKyPyEEDTmicldtfp_4baseEcldtfp0_4baseEERKNS_11__wrap_iterIT_EERKNS5_IT0_EE, symObjAddr: 0x89B14, symBinAddr: 0x10008C170, symSize: 0x48 }
  - { offsetInCU: 0x4C8D6, offset: 0x4C8D6, size: 0x8, addend: 0x0, symName: __ZNSt3__1neB7v160006IPKyEEbRKNS_11__wrap_iterIT_EES7_, symObjAddr: 0x89B5C, symBinAddr: 0x10008C1B8, symSize: 0x34 }
  - { offsetInCU: 0x4C91B, offset: 0x4C91B, size: 0x8, addend: 0x0, symName: __ZNSt3__14moveB7v160006IPyS1_EET0_T_S3_S2_, symObjAddr: 0x89BFC, symBinAddr: 0x10008C258, symSize: 0x26C }
  - { offsetInCU: 0x4C97B, offset: 0x4C97B, size: 0x8, addend: 0x0, symName: __ZNSt3__1miB7v160006IPKyS2_EEDTmicldtfp_4baseEcldtfp0_4baseEERKNS_11__wrap_iterIT_EERKNS4_IT0_EE, symObjAddr: 0x89E68, symBinAddr: 0x10008C4C4, symSize: 0x48 }
  - { offsetInCU: 0x4C9C9, offset: 0x4C9C9, size: 0x8, addend: 0x0, symName: __ZNSt3__1eqB7v160006IPKyEEbRKNS_11__wrap_iterIT_EES7_, symObjAddr: 0x8A184, symBinAddr: 0x10008C7E0, symSize: 0x48 }
  - { offsetInCU: 0x4CA0E, offset: 0x4CA0E, size: 0x8, addend: 0x0, symName: __ZNSt3__16__moveB7v160006INS_17_ClassicAlgPolicyEPyS2_S2_EENS_4pairIT0_T2_EES4_T1_S5_, symObjAddr: 0x8A1CC, symBinAddr: 0x10008C828, symSize: 0x22C }
  - { offsetInCU: 0x4CA80, offset: 0x4CA80, size: 0x8, addend: 0x0, symName: __ZNSt3__123__dispatch_copy_or_moveB7v160006INS_17_ClassicAlgPolicyENS_11__move_loopIS1_EENS_14__move_trivialEPyS5_S5_EENS_4pairIT2_T4_EES7_T3_S8_, symObjAddr: 0x8A3F8, symBinAddr: 0x10008CA54, symSize: 0x22C }
  - { offsetInCU: 0x4CB04, offset: 0x4CB04, size: 0x8, addend: 0x0, symName: __ZNSt3__121__unwrap_and_dispatchB7v160006INS_10__overloadINS_11__move_loopINS_17_ClassicAlgPolicyEEENS_14__move_trivialEEEPyS7_S7_Li0EEENS_4pairIT0_T2_EES9_T1_SA_, symObjAddr: 0x8A624, symBinAddr: 0x10008CC80, symSize: 0x5A4 }
  - { offsetInCU: 0x4CBA2, offset: 0x4CBA2, size: 0x8, addend: 0x0, symName: __ZNSt3__114__unwrap_rangeB7v160006IPyS1_EEDaT_T0_, symObjAddr: 0x8ABC8, symBinAddr: 0x10008D224, symSize: 0x224 }
  - { offsetInCU: 0x4CD77, offset: 0x4CD77, size: 0x8, addend: 0x0, symName: __ZNSt3__113__unwrap_iterB7v160006IPyNS_18__unwrap_iter_implIS1_Lb1EEELi0EEEDTclsrT0_8__unwrapclsr3stdE7declvalIT_EEEES5_, symObjAddr: 0x8B01C, symBinAddr: 0x10008D678, symSize: 0x24 }
  - { offsetInCU: 0x4CDBC, offset: 0x4CDBC, size: 0x8, addend: 0x0, symName: __ZNSt3__19make_pairB7v160006IPyS1_EENS_4pairINS_18__unwrap_ref_decayIT_E4typeENS3_IT0_E4typeEEEOS4_OS7_, symObjAddr: 0x8B040, symBinAddr: 0x10008D69C, symSize: 0x20C }
  - { offsetInCU: 0x4CE0D, offset: 0x4CE0D, size: 0x8, addend: 0x0, symName: __ZNSt3__114__rewrap_rangeB7v160006IPyS1_S1_EET0_S2_T1_, symObjAddr: 0x8B24C, symBinAddr: 0x10008D8A8, symSize: 0x2C }
  - { offsetInCU: 0x4CE64, offset: 0x4CE64, size: 0x8, addend: 0x0, symName: __ZNSt3__113__rewrap_iterB7v160006IPyS1_NS_18__unwrap_iter_implIS1_Lb1EEEEET_S4_T0_, symObjAddr: 0x8B278, symBinAddr: 0x10008D8D4, symSize: 0x48 }
  - { offsetInCU: 0x4CF0B, offset: 0x4CF0B, size: 0x8, addend: 0x0, symName: __ZNSt3__119__copy_trivial_implB7v160006IyyEENS_4pairIPT_PT0_EES3_S3_S5_, symObjAddr: 0x8B740, symBinAddr: 0x10008DD9C, symSize: 0x3B8 }
  - { offsetInCU: 0x4CF7E, offset: 0x4CF7E, size: 0x8, addend: 0x0, symName: __ZNSt3__19make_pairB7v160006IRPyS1_EENS_4pairINS_18__unwrap_ref_decayIT_E4typeENS4_IT0_E4typeEEEOS5_OS8_, symObjAddr: 0x8BAF8, symBinAddr: 0x10008E154, symSize: 0x20C }
  - { offsetInCU: 0x4D022, offset: 0x4D022, size: 0x8, addend: 0x0, symName: __ZNSt3__17find_ifB7v160006INS_11__wrap_iterIPyEERZN4risk11RiskManager31update_circuit_breaker_internalEbyEUlyE_EET_S8_S8_T0_, symObjAddr: 0x8BFC8, symBinAddr: 0x10008E624, symSize: 0x368 }
  - { offsetInCU: 0x4D088, offset: 0x4D088, size: 0x8, addend: 0x0, symName: __ZNSt3__1neB7v160006IPyEEbRKNS_11__wrap_iterIT_EES6_, symObjAddr: 0x8C330, symBinAddr: 0x10008E98C, symSize: 0x34 }
  - { offsetInCU: 0x4D0CD, offset: 0x4D0CD, size: 0x8, addend: 0x0, symName: __ZNSt3__1eqB7v160006IPyEEbRKNS_11__wrap_iterIT_EES6_, symObjAddr: 0x8C4AC, symBinAddr: 0x10008EB08, symSize: 0x48 }
  - { offsetInCU: 0x4D1C3, offset: 0x4D1C3, size: 0x8, addend: 0x0, symName: '__ZNSt3__116forward_as_tupleB7v160006IJZ17test_risk_managerR9TestSuiteE4$_12EEENS_5tupleIJDpOT_EEES7_', symObjAddr: 0x8D9C8, symBinAddr: 0x100090024, symSize: 0x1F8 }
  - { offsetInCU: 0x4D1FE, offset: 0x4D1FE, size: 0x8, addend: 0x0, symName: '__ZNSt3__116forward_as_tupleB7v160006IJNS_9allocatorIZ17test_risk_managerR9TestSuiteE4$_12EEEEENS_5tupleIJDpOT_EEES9_', symObjAddr: 0x8DBC0, symBinAddr: 0x10009021C, symSize: 0x1F8 }
  - { offsetInCU: 0x4D263, offset: 0x4D263, size: 0x8, addend: 0x0, symName: '__ZNSt3__13getB7v160006ILm0EJOZ17test_risk_managerR9TestSuiteE4$_12EEERNS_13tuple_elementIXT_ENS_5tupleIJDpT0_EEEE4typeERS9_', symObjAddr: 0x8EA94, symBinAddr: 0x1000910F0, symSize: 0x24 }
  - { offsetInCU: 0x4D2A7, offset: 0x4D2A7, size: 0x8, addend: 0x0, symName: '__ZNSt3__13getB7v160006ILm0EJONS_9allocatorIZ17test_risk_managerR9TestSuiteE4$_12EEEEERNS_13tuple_elementIXT_ENS_5tupleIJDpT0_EEEE4typeERSB_', symObjAddr: 0x8EB18, symBinAddr: 0x100091174, symSize: 0x24 }
  - { offsetInCU: 0x4D7D1, offset: 0x4D7D1, size: 0x8, addend: 0x0, symName: '__ZNSt3__116forward_as_tupleB7v160006IJRKZ17test_risk_managerR9TestSuiteE4$_12EEENS_5tupleIJDpOT_EEES9_', symObjAddr: 0x8F79C, symBinAddr: 0x100091DF8, symSize: 0x1F8 }
  - { offsetInCU: 0x4D821, offset: 0x4D821, size: 0x8, addend: 0x0, symName: '__ZNSt3__13getB7v160006ILm0EJRKZ17test_risk_managerR9TestSuiteE4$_12EEERNS_13tuple_elementIXT_ENS_5tupleIJDpT0_EEEE4typeERSA_', symObjAddr: 0x90330, symBinAddr: 0x10009298C, symSize: 0x24 }
  - { offsetInCU: 0x4D865, offset: 0x4D865, size: 0x8, addend: 0x0, symName: '__ZNSt3__116forward_as_tupleB7v160006IJRKNS_9allocatorIZ17test_risk_managerR9TestSuiteE4$_12EEEEENS_5tupleIJDpOT_EEESB_', symObjAddr: 0x90AD0, symBinAddr: 0x10009312C, symSize: 0x1F8 }
  - { offsetInCU: 0x4D8B5, offset: 0x4D8B5, size: 0x8, addend: 0x0, symName: '__ZNSt3__13getB7v160006ILm0EJRKNS_9allocatorIZ17test_risk_managerR9TestSuiteE4$_12EEEEERNS_13tuple_elementIXT_ENS_5tupleIJDpT0_EEEE4typeERSC_', symObjAddr: 0x91664, symBinAddr: 0x100093CC0, symSize: 0x24 }
  - { offsetInCU: 0x4D8F9, offset: 0x4D8F9, size: 0x8, addend: 0x0, symName: '__ZNSt3__18__invokeB7v160006IRZ17test_risk_managerR9TestSuiteE4$_12JEEEDTclclsr3stdE7declvalIT_EEspclsr3stdE7declvalIT0_EEEEOS5_DpOS6_', symObjAddr: 0x91768, symBinAddr: 0x100093DC4, symSize: 0x24 }
  - { offsetInCU: 0x4D932, offset: 0x4D932, size: 0x8, addend: 0x0, symName: __ZNSt3__119__debug_db_insert_cB7v160006INS_6vectorIN4data12OpenPositionENS_9allocatorIS3_EEEEEEvPT_, symObjAddr: 0x92510, symBinAddr: 0x100094B6C, symSize: 0x10 }
  - { offsetInCU: 0x4D965, offset: 0x4D965, size: 0x8, addend: 0x0, symName: __ZNSt3__118__debug_db_erase_cB7v160006INS_6vectorIN4data12OpenPositionENS_9allocatorIS3_EEEEEEvPT_, symObjAddr: 0x92BFC, symBinAddr: 0x100095258, symSize: 0x10 }
  - { offsetInCU: 0x4D998, offset: 0x4D998, size: 0x8, addend: 0x0, symName: __ZNSt3__112__to_addressB7v160006IN4data12OpenPositionEEEPT_S4_, symObjAddr: 0x92EF4, symBinAddr: 0x100095550, symSize: 0x14 }
  - { offsetInCU: 0x4D9CF, offset: 0x4D9CF, size: 0x8, addend: 0x0, symName: __ZNSt3__110destroy_atB7v160006IN4data12OpenPositionELi0EEEvPT_, symObjAddr: 0x93044, symBinAddr: 0x1000956A0, symSize: 0x24 }
  - { offsetInCU: 0x4DA08, offset: 0x4DA08, size: 0x8, addend: 0x0, symName: __ZNSt3__112__destroy_atB7v160006IN4data12OpenPositionELi0EEEvPT_, symObjAddr: 0x93068, symBinAddr: 0x1000956C4, symSize: 0x10 }
  - { offsetInCU: 0x4DAF1, offset: 0x4DAF1, size: 0x8, addend: 0x0, symName: '__ZNSt3__116forward_as_tupleB7v160006IJZ17test_order_routerR9TestSuiteE4$_13EEENS_5tupleIJDpOT_EEES7_', symObjAddr: 0x945AC, symBinAddr: 0x100096C08, symSize: 0x1F8 }
  - { offsetInCU: 0x4DB2C, offset: 0x4DB2C, size: 0x8, addend: 0x0, symName: '__ZNSt3__116forward_as_tupleB7v160006IJNS_9allocatorIZ17test_order_routerR9TestSuiteE4$_13EEEEENS_5tupleIJDpOT_EEES9_', symObjAddr: 0x947A4, symBinAddr: 0x100096E00, symSize: 0x1F8 }
  - { offsetInCU: 0x4DB91, offset: 0x4DB91, size: 0x8, addend: 0x0, symName: '__ZNSt3__13getB7v160006ILm0EJOZ17test_order_routerR9TestSuiteE4$_13EEERNS_13tuple_elementIXT_ENS_5tupleIJDpT0_EEEE4typeERS9_', symObjAddr: 0x95678, symBinAddr: 0x100097CD4, symSize: 0x24 }
  - { offsetInCU: 0x4DBD5, offset: 0x4DBD5, size: 0x8, addend: 0x0, symName: '__ZNSt3__13getB7v160006ILm0EJONS_9allocatorIZ17test_order_routerR9TestSuiteE4$_13EEEEERNS_13tuple_elementIXT_ENS_5tupleIJDpT0_EEEE4typeERSB_', symObjAddr: 0x956FC, symBinAddr: 0x100097D58, symSize: 0x24 }
  - { offsetInCU: 0x4E0FF, offset: 0x4E0FF, size: 0x8, addend: 0x0, symName: '__ZNSt3__116forward_as_tupleB7v160006IJRKZ17test_order_routerR9TestSuiteE4$_13EEENS_5tupleIJDpOT_EEES9_', symObjAddr: 0x96380, symBinAddr: 0x1000989DC, symSize: 0x1F8 }
  - { offsetInCU: 0x4E14F, offset: 0x4E14F, size: 0x8, addend: 0x0, symName: '__ZNSt3__13getB7v160006ILm0EJRKZ17test_order_routerR9TestSuiteE4$_13EEERNS_13tuple_elementIXT_ENS_5tupleIJDpT0_EEEE4typeERSA_', symObjAddr: 0x96F14, symBinAddr: 0x100099570, symSize: 0x24 }
  - { offsetInCU: 0x4E193, offset: 0x4E193, size: 0x8, addend: 0x0, symName: '__ZNSt3__116forward_as_tupleB7v160006IJRKNS_9allocatorIZ17test_order_routerR9TestSuiteE4$_13EEEEENS_5tupleIJDpOT_EEESB_', symObjAddr: 0x976B4, symBinAddr: 0x100099D10, symSize: 0x1F8 }
  - { offsetInCU: 0x4E1E3, offset: 0x4E1E3, size: 0x8, addend: 0x0, symName: '__ZNSt3__13getB7v160006ILm0EJRKNS_9allocatorIZ17test_order_routerR9TestSuiteE4$_13EEEEERNS_13tuple_elementIXT_ENS_5tupleIJDpT0_EEEE4typeERSC_', symObjAddr: 0x98248, symBinAddr: 0x10009A8A4, symSize: 0x24 }
  - { offsetInCU: 0x4E227, offset: 0x4E227, size: 0x8, addend: 0x0, symName: '__ZNSt3__18__invokeB7v160006IRZ17test_order_routerR9TestSuiteE4$_13JEEEDTclclsr3stdE7declvalIT_EEspclsr3stdE7declvalIT0_EEEEOS5_DpOS6_', symObjAddr: 0x9834C, symBinAddr: 0x10009A9A8, symSize: 0x24 }
  - { offsetInCU: 0x4E310, offset: 0x4E310, size: 0x8, addend: 0x0, symName: '__ZNSt3__116forward_as_tupleB7v160006IJZ17test_order_routerR9TestSuiteE4$_14EEENS_5tupleIJDpOT_EEES7_', symObjAddr: 0x9A9E4, symBinAddr: 0x10009D040, symSize: 0x1F8 }
  - { offsetInCU: 0x4E34B, offset: 0x4E34B, size: 0x8, addend: 0x0, symName: '__ZNSt3__116forward_as_tupleB7v160006IJNS_9allocatorIZ17test_order_routerR9TestSuiteE4$_14EEEEENS_5tupleIJDpOT_EEES9_', symObjAddr: 0x9ABDC, symBinAddr: 0x10009D238, symSize: 0x1F8 }
  - { offsetInCU: 0x4E3B0, offset: 0x4E3B0, size: 0x8, addend: 0x0, symName: '__ZNSt3__13getB7v160006ILm0EJOZ17test_order_routerR9TestSuiteE4$_14EEERNS_13tuple_elementIXT_ENS_5tupleIJDpT0_EEEE4typeERS9_', symObjAddr: 0x9BAB0, symBinAddr: 0x10009E10C, symSize: 0x24 }
  - { offsetInCU: 0x4E3F4, offset: 0x4E3F4, size: 0x8, addend: 0x0, symName: '__ZNSt3__13getB7v160006ILm0EJONS_9allocatorIZ17test_order_routerR9TestSuiteE4$_14EEEEERNS_13tuple_elementIXT_ENS_5tupleIJDpT0_EEEE4typeERSB_', symObjAddr: 0x9BB34, symBinAddr: 0x10009E190, symSize: 0x24 }
  - { offsetInCU: 0x4E91E, offset: 0x4E91E, size: 0x8, addend: 0x0, symName: '__ZNSt3__116forward_as_tupleB7v160006IJRKZ17test_order_routerR9TestSuiteE4$_14EEENS_5tupleIJDpOT_EEES9_', symObjAddr: 0x9C7B8, symBinAddr: 0x10009EE14, symSize: 0x1F8 }
  - { offsetInCU: 0x4E96E, offset: 0x4E96E, size: 0x8, addend: 0x0, symName: '__ZNSt3__13getB7v160006ILm0EJRKZ17test_order_routerR9TestSuiteE4$_14EEERNS_13tuple_elementIXT_ENS_5tupleIJDpT0_EEEE4typeERSA_', symObjAddr: 0x9D34C, symBinAddr: 0x10009F9A8, symSize: 0x24 }
  - { offsetInCU: 0x4E9B2, offset: 0x4E9B2, size: 0x8, addend: 0x0, symName: '__ZNSt3__116forward_as_tupleB7v160006IJRKNS_9allocatorIZ17test_order_routerR9TestSuiteE4$_14EEEEENS_5tupleIJDpOT_EEESB_', symObjAddr: 0x9DAEC, symBinAddr: 0x1000A0148, symSize: 0x1F8 }
  - { offsetInCU: 0x4EA02, offset: 0x4EA02, size: 0x8, addend: 0x0, symName: '__ZNSt3__13getB7v160006ILm0EJRKNS_9allocatorIZ17test_order_routerR9TestSuiteE4$_14EEEEERNS_13tuple_elementIXT_ENS_5tupleIJDpT0_EEEE4typeERSC_', symObjAddr: 0x9E680, symBinAddr: 0x1000A0CDC, symSize: 0x24 }
  - { offsetInCU: 0x4EA46, offset: 0x4EA46, size: 0x8, addend: 0x0, symName: '__ZNSt3__18__invokeB7v160006IRZ17test_order_routerR9TestSuiteE4$_14JEEEDTclclsr3stdE7declvalIT_EEspclsr3stdE7declvalIT0_EEEEOS5_DpOS6_', symObjAddr: 0x9E784, symBinAddr: 0x1000A0DE0, symSize: 0x24 }
  - { offsetInCU: 0x4EA7E, offset: 0x4EA7E, size: 0x8, addend: 0x0, symName: __ZNSt3__110__str_findB7v160006IcmNS_11char_traitsIcEELm18446744073709551615EEET0_PKT_S3_S6_S3_S3_, symObjAddr: 0x9F540, symBinAddr: 0x1000A1B9C, symSize: 0xF8 }
  - { offsetInCU: 0x4EB25, offset: 0x4EB25, size: 0x8, addend: 0x0, symName: __ZNSt3__118__search_substringB7v160006IcNS_11char_traitsIcEEEEPKT_S5_S5_S5_S5_, symObjAddr: 0x9F638, symBinAddr: 0x1000A1C94, symSize: 0x3F8 }
  - { offsetInCU: 0x4EBC9, offset: 0x4EBC9, size: 0x8, addend: 0x0, symName: __ZNSt3__123__constexpr_char_memchrB7v160006EPKcim, symObjAddr: 0x9FB1C, symBinAddr: 0x1000A2178, symSize: 0x34 }
  - { offsetInCU: 0x4ECC5, offset: 0x4ECC5, size: 0x8, addend: 0x0, symName: '__ZNSt3__116forward_as_tupleB7v160006IJZ17test_order_routerR9TestSuiteE4$_15EEENS_5tupleIJDpOT_EEES7_', symObjAddr: 0xA0FA0, symBinAddr: 0x1000A35FC, symSize: 0x1F8 }
  - { offsetInCU: 0x4ED00, offset: 0x4ED00, size: 0x8, addend: 0x0, symName: '__ZNSt3__116forward_as_tupleB7v160006IJNS_9allocatorIZ17test_order_routerR9TestSuiteE4$_15EEEEENS_5tupleIJDpOT_EEES9_', symObjAddr: 0xA1198, symBinAddr: 0x1000A37F4, symSize: 0x1F8 }
  - { offsetInCU: 0x4ED65, offset: 0x4ED65, size: 0x8, addend: 0x0, symName: '__ZNSt3__13getB7v160006ILm0EJOZ17test_order_routerR9TestSuiteE4$_15EEERNS_13tuple_elementIXT_ENS_5tupleIJDpT0_EEEE4typeERS9_', symObjAddr: 0xA206C, symBinAddr: 0x1000A46C8, symSize: 0x24 }
  - { offsetInCU: 0x4EDA9, offset: 0x4EDA9, size: 0x8, addend: 0x0, symName: '__ZNSt3__13getB7v160006ILm0EJONS_9allocatorIZ17test_order_routerR9TestSuiteE4$_15EEEEERNS_13tuple_elementIXT_ENS_5tupleIJDpT0_EEEE4typeERSB_', symObjAddr: 0xA20F0, symBinAddr: 0x1000A474C, symSize: 0x24 }
  - { offsetInCU: 0x4F2D3, offset: 0x4F2D3, size: 0x8, addend: 0x0, symName: '__ZNSt3__116forward_as_tupleB7v160006IJRKZ17test_order_routerR9TestSuiteE4$_15EEENS_5tupleIJDpOT_EEES9_', symObjAddr: 0xA2D74, symBinAddr: 0x1000A53D0, symSize: 0x1F8 }
  - { offsetInCU: 0x4F323, offset: 0x4F323, size: 0x8, addend: 0x0, symName: '__ZNSt3__13getB7v160006ILm0EJRKZ17test_order_routerR9TestSuiteE4$_15EEERNS_13tuple_elementIXT_ENS_5tupleIJDpT0_EEEE4typeERSA_', symObjAddr: 0xA3908, symBinAddr: 0x1000A5F64, symSize: 0x24 }
  - { offsetInCU: 0x4F367, offset: 0x4F367, size: 0x8, addend: 0x0, symName: '__ZNSt3__116forward_as_tupleB7v160006IJRKNS_9allocatorIZ17test_order_routerR9TestSuiteE4$_15EEEEENS_5tupleIJDpOT_EEESB_', symObjAddr: 0xA40A8, symBinAddr: 0x1000A6704, symSize: 0x1F8 }
  - { offsetInCU: 0x4F3B7, offset: 0x4F3B7, size: 0x8, addend: 0x0, symName: '__ZNSt3__13getB7v160006ILm0EJRKNS_9allocatorIZ17test_order_routerR9TestSuiteE4$_15EEEEERNS_13tuple_elementIXT_ENS_5tupleIJDpT0_EEEE4typeERSC_', symObjAddr: 0xA4C3C, symBinAddr: 0x1000A7298, symSize: 0x24 }
  - { offsetInCU: 0x4F3FB, offset: 0x4F3FB, size: 0x8, addend: 0x0, symName: '__ZNSt3__18__invokeB7v160006IRZ17test_order_routerR9TestSuiteE4$_15JEEEDTclclsr3stdE7declvalIT_EEspclsr3stdE7declvalIT0_EEEEOS5_DpOS6_', symObjAddr: 0xA4D40, symBinAddr: 0x1000A739C, symSize: 0x24 }
  - { offsetInCU: 0x4F433, offset: 0x4F433, size: 0x8, addend: 0x0, symName: __ZNSt3__13getB7v160006ILm0EN4data11OrderResultES2_EEONS_13tuple_elementIXT_ENS_4pairIT0_T1_EEE4typeEOS7_, symObjAddr: 0xA5D88, symBinAddr: 0x1000A83E4, symSize: 0x24 }
  - { offsetInCU: 0x4F47D, offset: 0x4F47D, size: 0x8, addend: 0x0, symName: __ZNSt3__13getB7v160006ILm1EN4data11OrderResultES2_EEONS_13tuple_elementIXT_ENS_4pairIT0_T1_EEE4typeEOS7_, symObjAddr: 0xA5DAC, symBinAddr: 0x1000A8408, symSize: 0x24 }
  - { offsetInCU: 0x4F4CD, offset: 0x4F4CD, size: 0x8, addend: 0x0, symName: __ZNSt3__111this_thread9sleep_forB7v160006IxNS_5ratioILl1ELl1000000EEEEEvRKNS_6chrono8durationIT_T0_EE, symObjAddr: 0xA62A4, symBinAddr: 0x1000A8900, symSize: 0x410 }
  - { offsetInCU: 0x4F537, offset: 0x4F537, size: 0x8, addend: 0x0, symName: __ZNSt3__111this_thread9sleep_forB7v160006IxNS_5ratioILl1ELl1000EEEEEvRKNS_6chrono8durationIT_T0_EE, symObjAddr: 0xCEDA8, symBinAddr: 0x1000D1404, symSize: 0x410 }
  - { offsetInCU: 0x4F5A1, offset: 0x4F5A1, size: 0x8, addend: 0x0, symName: __ZNSt3__111this_thread9sleep_forB7v160006IxNS_5ratioILl1ELl1EEEEEvRKNS_6chrono8durationIT_T0_EE, symObjAddr: 0xED134, symBinAddr: 0x1000EF790, symSize: 0x410 }
  - { offsetInCU: 0x4F8A6, offset: 0x4F8A6, size: 0x8, addend: 0x0, symName: '__ZNSt3__116forward_as_tupleB7v160006IJZ21test_position_trackerR9TestSuiteE4$_16EEENS_5tupleIJDpOT_EEES7_', symObjAddr: 0xAA750, symBinAddr: 0x1000ACDAC, symSize: 0x1F8 }
  - { offsetInCU: 0x4F8E1, offset: 0x4F8E1, size: 0x8, addend: 0x0, symName: '__ZNSt3__116forward_as_tupleB7v160006IJNS_9allocatorIZ21test_position_trackerR9TestSuiteE4$_16EEEEENS_5tupleIJDpOT_EEES9_', symObjAddr: 0xAA948, symBinAddr: 0x1000ACFA4, symSize: 0x1F8 }
  - { offsetInCU: 0x4F946, offset: 0x4F946, size: 0x8, addend: 0x0, symName: '__ZNSt3__13getB7v160006ILm0EJOZ21test_position_trackerR9TestSuiteE4$_16EEERNS_13tuple_elementIXT_ENS_5tupleIJDpT0_EEEE4typeERS9_', symObjAddr: 0xAB81C, symBinAddr: 0x1000ADE78, symSize: 0x24 }
  - { offsetInCU: 0x4F98A, offset: 0x4F98A, size: 0x8, addend: 0x0, symName: '__ZNSt3__13getB7v160006ILm0EJONS_9allocatorIZ21test_position_trackerR9TestSuiteE4$_16EEEEERNS_13tuple_elementIXT_ENS_5tupleIJDpT0_EEEE4typeERSB_', symObjAddr: 0xAB8A0, symBinAddr: 0x1000ADEFC, symSize: 0x24 }
  - { offsetInCU: 0x4FEB4, offset: 0x4FEB4, size: 0x8, addend: 0x0, symName: '__ZNSt3__116forward_as_tupleB7v160006IJRKZ21test_position_trackerR9TestSuiteE4$_16EEENS_5tupleIJDpOT_EEES9_', symObjAddr: 0xAC524, symBinAddr: 0x1000AEB80, symSize: 0x1F8 }
  - { offsetInCU: 0x4FF04, offset: 0x4FF04, size: 0x8, addend: 0x0, symName: '__ZNSt3__13getB7v160006ILm0EJRKZ21test_position_trackerR9TestSuiteE4$_16EEERNS_13tuple_elementIXT_ENS_5tupleIJDpT0_EEEE4typeERSA_', symObjAddr: 0xAD0B8, symBinAddr: 0x1000AF714, symSize: 0x24 }
  - { offsetInCU: 0x4FF48, offset: 0x4FF48, size: 0x8, addend: 0x0, symName: '__ZNSt3__116forward_as_tupleB7v160006IJRKNS_9allocatorIZ21test_position_trackerR9TestSuiteE4$_16EEEEENS_5tupleIJDpOT_EEESB_', symObjAddr: 0xAD858, symBinAddr: 0x1000AFEB4, symSize: 0x1F8 }
  - { offsetInCU: 0x4FF98, offset: 0x4FF98, size: 0x8, addend: 0x0, symName: '__ZNSt3__13getB7v160006ILm0EJRKNS_9allocatorIZ21test_position_trackerR9TestSuiteE4$_16EEEEERNS_13tuple_elementIXT_ENS_5tupleIJDpT0_EEEE4typeERSC_', symObjAddr: 0xAE3EC, symBinAddr: 0x1000B0A48, symSize: 0x24 }
  - { offsetInCU: 0x4FFDC, offset: 0x4FFDC, size: 0x8, addend: 0x0, symName: '__ZNSt3__18__invokeB7v160006IRZ21test_position_trackerR9TestSuiteE4$_16JEEEDTclclsr3stdE7declvalIT_EEspclsr3stdE7declvalIT0_EEEEOS5_DpOS6_', symObjAddr: 0xAE4F0, symBinAddr: 0x1000B0B4C, symSize: 0x24 }
  - { offsetInCU: 0x50014, offset: 0x50014, size: 0x8, addend: 0x0, symName: __ZNSt3__13minB7v160006IjEERKT_S3_S3_, symObjAddr: 0xB07F0, symBinAddr: 0x1000B2E4C, symSize: 0x2C }
  - { offsetInCU: 0x50059, offset: 0x50059, size: 0x8, addend: 0x0, symName: __ZNSt3__13minB7v160006IjNS_6__lessIjjEEEERKT_S5_S5_T0_, symObjAddr: 0xB08FC, symBinAddr: 0x1000B2F58, symSize: 0x1E8 }
  - { offsetInCU: 0x5011E, offset: 0x5011E, size: 0x8, addend: 0x0, symName: __ZNSt3__112construct_atB7v160006IN4data12OpenPositionEJRKS2_EPS2_EEPT_S7_DpOT0_, symObjAddr: 0xB16BC, symBinAddr: 0x1000B3D18, symSize: 0x40 }
  - { offsetInCU: 0x50192, offset: 0x50192, size: 0x8, addend: 0x0, symName: __ZNSt3__119__allocate_at_leastB7v160006INS_9allocatorIN4data12OpenPositionEEEEENS_19__allocation_resultINS_16allocator_traitsIT_E7pointerEEERS7_m, symObjAddr: 0xB2CA4, symBinAddr: 0x1000B5300, symSize: 0x28C }
  - { offsetInCU: 0x501D9, offset: 0x501D9, size: 0x8, addend: 0x0, symName: __ZNSt3__142__uninitialized_allocator_move_if_noexceptB7v160006INS_9allocatorIN4data12OpenPositionEEENS_16reverse_iteratorIPS3_EES7_S3_vEET1_RT_T0_SB_S8_, symObjAddr: 0xB3140, symBinAddr: 0x1000B579C, symSize: 0x4A8 }
  - { offsetInCU: 0x50264, offset: 0x50264, size: 0x8, addend: 0x0, symName: __ZNSt3__14swapB7v160006IPN4data12OpenPositionEEENS_9enable_ifIXaasr21is_move_constructibleIT_EE5valuesr18is_move_assignableIS5_EE5valueEvE4typeERS5_S8_, symObjAddr: 0xB3680, symBinAddr: 0x1000B5CDC, symSize: 0x134 }
  - { offsetInCU: 0x502B9, offset: 0x502B9, size: 0x8, addend: 0x0, symName: __ZNSt3__125__debug_db_invalidate_allB7v160006INS_6vectorIN4data12OpenPositionENS_9allocatorIS3_EEEEEEvPT_, symObjAddr: 0xB3874, symBinAddr: 0x1000B5ED0, symSize: 0x10 }
  - { offsetInCU: 0x502EB, offset: 0x502EB, size: 0x8, addend: 0x0, symName: __ZNSt3__14moveB7v160006INS_16reverse_iteratorIPN4data12OpenPositionEEES5_EET0_T_S7_S6_, symObjAddr: 0xB3884, symBinAddr: 0x1000B5EE0, symSize: 0x4B0 }
  - { offsetInCU: 0x50355, offset: 0x50355, size: 0x8, addend: 0x0, symName: __ZNSt3__16__moveB7v160006INS_17_ClassicAlgPolicyENS_16reverse_iteratorIPN4data12OpenPositionEEES6_S6_EENS_4pairIT0_T2_EES8_T1_S9_, symObjAddr: 0xB3D34, symBinAddr: 0x1000B6390, symSize: 0x424 }
  - { offsetInCU: 0x503D0, offset: 0x503D0, size: 0x8, addend: 0x0, symName: __ZNSt3__123__dispatch_copy_or_moveB7v160006INS_17_ClassicAlgPolicyENS_11__move_loopIS1_EENS_14__move_trivialENS_16reverse_iteratorIPN4data12OpenPositionEEES9_S9_EENS_4pairIT2_T4_EESB_T3_SC_, symObjAddr: 0xB4158, symBinAddr: 0x1000B67B4, symSize: 0x424 }
  - { offsetInCU: 0x5045D, offset: 0x5045D, size: 0x8, addend: 0x0, symName: __ZNSt3__121__unwrap_and_dispatchB7v160006INS_10__overloadINS_11__move_loopINS_17_ClassicAlgPolicyEEENS_14__move_trivialEEENS_16reverse_iteratorIPN4data12OpenPositionEEESB_SB_Li0EEENS_4pairIT0_T2_EESD_T1_SE_, symObjAddr: 0xB457C, symBinAddr: 0x1000B6BD8, symSize: 0x880 }
  - { offsetInCU: 0x50506, offset: 0x50506, size: 0x8, addend: 0x0, symName: __ZNSt3__114__unwrap_rangeB7v160006INS_16reverse_iteratorIPN4data12OpenPositionEEES5_EEDaT_T0_, symObjAddr: 0xB4DFC, symBinAddr: 0x1000B7458, symSize: 0x35C }
  - { offsetInCU: 0x50630, offset: 0x50630, size: 0x8, addend: 0x0, symName: __ZNSt3__113__unwrap_iterB7v160006INS_16reverse_iteratorIPN4data12OpenPositionEEENS_18__unwrap_iter_implIS5_Lb0EEELi0EEEDTclsrT0_8__unwrapclsr3stdE7declvalIT_EEEES9_, symObjAddr: 0xB549C, symBinAddr: 0x1000B7AF8, symSize: 0x2EC }
  - { offsetInCU: 0x50679, offset: 0x50679, size: 0x8, addend: 0x0, symName: __ZNSt3__19make_pairB7v160006INS_16reverse_iteratorIPN4data12OpenPositionEEES5_EENS_4pairINS_18__unwrap_ref_decayIT_E4typeENS7_IT0_E4typeEEEOS8_OSB_, symObjAddr: 0xB5788, symBinAddr: 0x1000B7DE4, symSize: 0x38 }
  - { offsetInCU: 0x506C8, offset: 0x506C8, size: 0x8, addend: 0x0, symName: __ZNSt3__114__rewrap_rangeB7v160006INS_16reverse_iteratorIPN4data12OpenPositionEEES5_S5_EET0_S6_T1_, symObjAddr: 0xB57C0, symBinAddr: 0x1000B7E1C, symSize: 0x3D4 }
  - { offsetInCU: 0x50727, offset: 0x50727, size: 0x8, addend: 0x0, symName: __ZNSt3__113__rewrap_iterB7v160006INS_16reverse_iteratorIPN4data12OpenPositionEEES5_NS_18__unwrap_iter_implIS5_Lb0EEEEET_S8_T0_, symObjAddr: 0xB5B94, symBinAddr: 0x1000B81F0, symSize: 0x3E8 }
  - { offsetInCU: 0x507D6, offset: 0x507D6, size: 0x8, addend: 0x0, symName: __ZNSt3__1neB7v160006IPN4data12OpenPositionES3_EEbRKNS_16reverse_iteratorIT_EERKNS4_IT0_EE, symObjAddr: 0xB6454, symBinAddr: 0x1000B8AB0, symSize: 0x48 }
  - { offsetInCU: 0x50890, offset: 0x50890, size: 0x8, addend: 0x0, symName: __ZNSt3__122__make_exception_guardB7v160006INS_6vectorIN4data12OpenPositionENS_9allocatorIS3_EEE16__destroy_vectorEEENS_28__exception_guard_exceptionsIT_EES9_, symObjAddr: 0xB78EC, symBinAddr: 0x1000B9F48, symSize: 0x278 }
  - { offsetInCU: 0x508CA, offset: 0x508CA, size: 0x8, addend: 0x0, symName: __ZNSt3__130__uninitialized_allocator_copyB7v160006INS_9allocatorIN4data12OpenPositionEEEPS3_S5_S5_EET2_RT_T0_T1_S6_, symObjAddr: 0xB88B4, symBinAddr: 0x1000BAF10, symSize: 0x520 }
  - { offsetInCU: 0x50976, offset: 0x50976, size: 0x8, addend: 0x0, symName: __ZNSt3__122__make_exception_guardB7v160006INS_29_AllocatorDestroyRangeReverseINS_9allocatorIN4data12OpenPositionEEEPS4_EEEENS_28__exception_guard_exceptionsIT_EES9_, symObjAddr: 0xB8DD4, symBinAddr: 0x1000BB430, symSize: 0x1F8 }
  - { offsetInCU: 0x509AE, offset: 0x509AE, size: 0x8, addend: 0x0, symName: __ZNSt3__112construct_atB7v160006IN4data12OpenPositionEJRS2_EPS2_EEPT_S6_DpOT0_, symObjAddr: 0xB92D4, symBinAddr: 0x1000BB930, symSize: 0x40 }
  - { offsetInCU: 0x50A23, offset: 0x50A23, size: 0x8, addend: 0x0, symName: __ZNSt3__119__allocator_destroyB7v160006INS_9allocatorIN4data12OpenPositionEEENS_16reverse_iteratorIPS3_EES7_EEvRT_T0_T1_, symObjAddr: 0xB976C, symBinAddr: 0x1000BBDC8, symSize: 0x2B8 }
  - { offsetInCU: 0x50A8F, offset: 0x50A8F, size: 0x8, addend: 0x0, symName: __ZNSt3__112__to_addressB7v160006INS_16reverse_iteratorIPN4data12OpenPositionEEEvEENS_5decayIDTclsr19__to_address_helperIT_EE6__callclsr3stdE7declvalIRKS7_EEEEE4typeES9_, symObjAddr: 0xB9A24, symBinAddr: 0x1000BC080, symSize: 0x24 }
  - { offsetInCU: 0x50AF0, offset: 0x50AF0, size: 0x8, addend: 0x0, symName: __ZNSt3__14prevB7v160006IPN4data12OpenPositionEEENS_9enable_ifIXsr25__is_cpp17_input_iteratorIT_EE5valueES5_E4typeES5_NS_15iterator_traitsIS5_E15difference_typeE, symObjAddr: 0xB9AF8, symBinAddr: 0x1000BC154, symSize: 0x25C }
  - { offsetInCU: 0x50B3B, offset: 0x50B3B, size: 0x8, addend: 0x0, symName: __ZNSt3__19__advanceB7v160006IPN4data12OpenPositionEEEvRT_NS_15iterator_traitsIS4_E15difference_typeENS_26random_access_iterator_tagE, symObjAddr: 0xB9DA4, symBinAddr: 0x1000BC400, symSize: 0x78 }
  - { offsetInCU: 0x50B86, offset: 0x50B86, size: 0x8, addend: 0x0, symName: __ZNSt3__1neB7v160006IPN4data12OpenPositionEEEbRKNS_11__wrap_iterIT_EES8_, symObjAddr: 0xBA140, symBinAddr: 0x1000BC79C, symSize: 0x34 }
  - { offsetInCU: 0x50BCB, offset: 0x50BCB, size: 0x8, addend: 0x0, symName: __ZNSt3__1eqB7v160006IPN4data12OpenPositionEEEbRKNS_11__wrap_iterIT_EES8_, symObjAddr: 0xBAB98, symBinAddr: 0x1000BD1F4, symSize: 0x48 }
  - { offsetInCU: 0x50C10, offset: 0x50C10, size: 0x8, addend: 0x0, symName: __ZNSt3__1miB7v160006IPKN4data12OpenPositionES4_EEDTmicldtfp_4baseEcldtfp0_4baseEERKNS_11__wrap_iterIT_EERKNS6_IT0_EE, symObjAddr: 0xBAC40, symBinAddr: 0x1000BD29C, symSize: 0x48 }
  - { offsetInCU: 0x50C5E, offset: 0x50C5E, size: 0x8, addend: 0x0, symName: __ZNSt3__14moveB7v160006IPN4data12OpenPositionES3_EET0_T_S5_S4_, symObjAddr: 0xBAF28, symBinAddr: 0x1000BD584, symSize: 0x26C }
  - { offsetInCU: 0x50CBE, offset: 0x50CBE, size: 0x8, addend: 0x0, symName: __ZNSt3__16__moveB7v160006INS_17_ClassicAlgPolicyEPN4data12OpenPositionES4_S4_EENS_4pairIT0_T2_EES6_T1_S7_, symObjAddr: 0xBB720, symBinAddr: 0x1000BDD7C, symSize: 0x22C }
  - { offsetInCU: 0x50D30, offset: 0x50D30, size: 0x8, addend: 0x0, symName: __ZNSt3__123__dispatch_copy_or_moveB7v160006INS_17_ClassicAlgPolicyENS_11__move_loopIS1_EENS_14__move_trivialEPN4data12OpenPositionES7_S7_EENS_4pairIT2_T4_EES9_T3_SA_, symObjAddr: 0xBB94C, symBinAddr: 0x1000BDFA8, symSize: 0x22C }
  - { offsetInCU: 0x50DB4, offset: 0x50DB4, size: 0x8, addend: 0x0, symName: __ZNSt3__121__unwrap_and_dispatchB7v160006INS_10__overloadINS_11__move_loopINS_17_ClassicAlgPolicyEEENS_14__move_trivialEEEPN4data12OpenPositionES9_S9_Li0EEENS_4pairIT0_T2_EESB_T1_SC_, symObjAddr: 0xBBB78, symBinAddr: 0x1000BE1D4, symSize: 0x5A4 }
  - { offsetInCU: 0x50E52, offset: 0x50E52, size: 0x8, addend: 0x0, symName: __ZNSt3__114__unwrap_rangeB7v160006IPN4data12OpenPositionES3_EEDaT_T0_, symObjAddr: 0xBC11C, symBinAddr: 0x1000BE778, symSize: 0x224 }
  - { offsetInCU: 0x50FA5, offset: 0x50FA5, size: 0x8, addend: 0x0, symName: __ZNSt3__113__unwrap_iterB7v160006IPN4data12OpenPositionENS_18__unwrap_iter_implIS3_Lb1EEELi0EEEDTclsrT0_8__unwrapclsr3stdE7declvalIT_EEEES7_, symObjAddr: 0xBC570, symBinAddr: 0x1000BEBCC, symSize: 0x24 }
  - { offsetInCU: 0x50FEA, offset: 0x50FEA, size: 0x8, addend: 0x0, symName: __ZNSt3__19make_pairB7v160006IPN4data12OpenPositionES3_EENS_4pairINS_18__unwrap_ref_decayIT_E4typeENS5_IT0_E4typeEEEOS6_OS9_, symObjAddr: 0xBC594, symBinAddr: 0x1000BEBF0, symSize: 0x20C }
  - { offsetInCU: 0x5103B, offset: 0x5103B, size: 0x8, addend: 0x0, symName: __ZNSt3__114__rewrap_rangeB7v160006IPN4data12OpenPositionES3_S3_EET0_S4_T1_, symObjAddr: 0xBC7A0, symBinAddr: 0x1000BEDFC, symSize: 0x2C }
  - { offsetInCU: 0x51092, offset: 0x51092, size: 0x8, addend: 0x0, symName: __ZNSt3__113__rewrap_iterB7v160006IPN4data12OpenPositionES3_NS_18__unwrap_iter_implIS3_Lb1EEEEET_S6_T0_, symObjAddr: 0xBC7CC, symBinAddr: 0x1000BEE28, symSize: 0x48 }
  - { offsetInCU: 0x51139, offset: 0x51139, size: 0x8, addend: 0x0, symName: __ZNSt3__119__copy_trivial_implB7v160006IN4data12OpenPositionES2_EENS_4pairIPT_PT0_EES5_S5_S7_, symObjAddr: 0xBCC94, symBinAddr: 0x1000BF2F0, symSize: 0x3B8 }
  - { offsetInCU: 0x511AC, offset: 0x511AC, size: 0x8, addend: 0x0, symName: __ZNSt3__19make_pairB7v160006IRPN4data12OpenPositionES3_EENS_4pairINS_18__unwrap_ref_decayIT_E4typeENS6_IT0_E4typeEEEOS7_OSA_, symObjAddr: 0xBD04C, symBinAddr: 0x1000BF6A8, symSize: 0x20C }
  - { offsetInCU: 0x51301, offset: 0x51301, size: 0x8, addend: 0x0, symName: '__ZNSt3__116forward_as_tupleB7v160006IJZ21test_position_trackerR9TestSuiteE4$_17EEENS_5tupleIJDpOT_EEES7_', symObjAddr: 0xBE978, symBinAddr: 0x1000C0FD4, symSize: 0x1F8 }
  - { offsetInCU: 0x5133C, offset: 0x5133C, size: 0x8, addend: 0x0, symName: '__ZNSt3__116forward_as_tupleB7v160006IJNS_9allocatorIZ21test_position_trackerR9TestSuiteE4$_17EEEEENS_5tupleIJDpOT_EEES9_', symObjAddr: 0xBEB70, symBinAddr: 0x1000C11CC, symSize: 0x1F8 }
  - { offsetInCU: 0x513A1, offset: 0x513A1, size: 0x8, addend: 0x0, symName: '__ZNSt3__13getB7v160006ILm0EJOZ21test_position_trackerR9TestSuiteE4$_17EEERNS_13tuple_elementIXT_ENS_5tupleIJDpT0_EEEE4typeERS9_', symObjAddr: 0xBFA44, symBinAddr: 0x1000C20A0, symSize: 0x24 }
  - { offsetInCU: 0x513E5, offset: 0x513E5, size: 0x8, addend: 0x0, symName: '__ZNSt3__13getB7v160006ILm0EJONS_9allocatorIZ21test_position_trackerR9TestSuiteE4$_17EEEEERNS_13tuple_elementIXT_ENS_5tupleIJDpT0_EEEE4typeERSB_', symObjAddr: 0xBFAC8, symBinAddr: 0x1000C2124, symSize: 0x24 }
  - { offsetInCU: 0x5190F, offset: 0x5190F, size: 0x8, addend: 0x0, symName: '__ZNSt3__116forward_as_tupleB7v160006IJRKZ21test_position_trackerR9TestSuiteE4$_17EEENS_5tupleIJDpOT_EEES9_', symObjAddr: 0xC074C, symBinAddr: 0x1000C2DA8, symSize: 0x1F8 }
  - { offsetInCU: 0x5195F, offset: 0x5195F, size: 0x8, addend: 0x0, symName: '__ZNSt3__13getB7v160006ILm0EJRKZ21test_position_trackerR9TestSuiteE4$_17EEERNS_13tuple_elementIXT_ENS_5tupleIJDpT0_EEEE4typeERSA_', symObjAddr: 0xC12E0, symBinAddr: 0x1000C393C, symSize: 0x24 }
  - { offsetInCU: 0x519A3, offset: 0x519A3, size: 0x8, addend: 0x0, symName: '__ZNSt3__116forward_as_tupleB7v160006IJRKNS_9allocatorIZ21test_position_trackerR9TestSuiteE4$_17EEEEENS_5tupleIJDpOT_EEESB_', symObjAddr: 0xC1A80, symBinAddr: 0x1000C40DC, symSize: 0x1F8 }
  - { offsetInCU: 0x519F3, offset: 0x519F3, size: 0x8, addend: 0x0, symName: '__ZNSt3__13getB7v160006ILm0EJRKNS_9allocatorIZ21test_position_trackerR9TestSuiteE4$_17EEEEERNS_13tuple_elementIXT_ENS_5tupleIJDpT0_EEEE4typeERSC_', symObjAddr: 0xC2614, symBinAddr: 0x1000C4C70, symSize: 0x24 }
  - { offsetInCU: 0x51A37, offset: 0x51A37, size: 0x8, addend: 0x0, symName: '__ZNSt3__18__invokeB7v160006IRZ21test_position_trackerR9TestSuiteE4$_17JEEEDTclclsr3stdE7declvalIT_EEspclsr3stdE7declvalIT0_EEEEOS5_DpOS6_', symObjAddr: 0xC2718, symBinAddr: 0x1000C4D74, symSize: 0x24 }
  - { offsetInCU: 0x51B20, offset: 0x51B20, size: 0x8, addend: 0x0, symName: '__ZNSt3__116forward_as_tupleB7v160006IJZ21test_position_trackerR9TestSuiteE4$_18EEENS_5tupleIJDpOT_EEES7_', symObjAddr: 0xC4310, symBinAddr: 0x1000C696C, symSize: 0x1F8 }
  - { offsetInCU: 0x51B5B, offset: 0x51B5B, size: 0x8, addend: 0x0, symName: '__ZNSt3__116forward_as_tupleB7v160006IJNS_9allocatorIZ21test_position_trackerR9TestSuiteE4$_18EEEEENS_5tupleIJDpOT_EEES9_', symObjAddr: 0xC4508, symBinAddr: 0x1000C6B64, symSize: 0x1F8 }
  - { offsetInCU: 0x51BC0, offset: 0x51BC0, size: 0x8, addend: 0x0, symName: '__ZNSt3__13getB7v160006ILm0EJOZ21test_position_trackerR9TestSuiteE4$_18EEERNS_13tuple_elementIXT_ENS_5tupleIJDpT0_EEEE4typeERS9_', symObjAddr: 0xC53DC, symBinAddr: 0x1000C7A38, symSize: 0x24 }
  - { offsetInCU: 0x51C04, offset: 0x51C04, size: 0x8, addend: 0x0, symName: '__ZNSt3__13getB7v160006ILm0EJONS_9allocatorIZ21test_position_trackerR9TestSuiteE4$_18EEEEERNS_13tuple_elementIXT_ENS_5tupleIJDpT0_EEEE4typeERSB_', symObjAddr: 0xC5460, symBinAddr: 0x1000C7ABC, symSize: 0x24 }
  - { offsetInCU: 0x5212E, offset: 0x5212E, size: 0x8, addend: 0x0, symName: '__ZNSt3__116forward_as_tupleB7v160006IJRKZ21test_position_trackerR9TestSuiteE4$_18EEENS_5tupleIJDpOT_EEES9_', symObjAddr: 0xC60E4, symBinAddr: 0x1000C8740, symSize: 0x1F8 }
  - { offsetInCU: 0x5217E, offset: 0x5217E, size: 0x8, addend: 0x0, symName: '__ZNSt3__13getB7v160006ILm0EJRKZ21test_position_trackerR9TestSuiteE4$_18EEERNS_13tuple_elementIXT_ENS_5tupleIJDpT0_EEEE4typeERSA_', symObjAddr: 0xC6C78, symBinAddr: 0x1000C92D4, symSize: 0x24 }
  - { offsetInCU: 0x521C2, offset: 0x521C2, size: 0x8, addend: 0x0, symName: '__ZNSt3__116forward_as_tupleB7v160006IJRKNS_9allocatorIZ21test_position_trackerR9TestSuiteE4$_18EEEEENS_5tupleIJDpOT_EEESB_', symObjAddr: 0xC7418, symBinAddr: 0x1000C9A74, symSize: 0x1F8 }
  - { offsetInCU: 0x52212, offset: 0x52212, size: 0x8, addend: 0x0, symName: '__ZNSt3__13getB7v160006ILm0EJRKNS_9allocatorIZ21test_position_trackerR9TestSuiteE4$_18EEEEERNS_13tuple_elementIXT_ENS_5tupleIJDpT0_EEEE4typeERSC_', symObjAddr: 0xC7FAC, symBinAddr: 0x1000CA608, symSize: 0x24 }
  - { offsetInCU: 0x52256, offset: 0x52256, size: 0x8, addend: 0x0, symName: '__ZNSt3__18__invokeB7v160006IRZ21test_position_trackerR9TestSuiteE4$_18JEEEDTclclsr3stdE7declvalIT_EEspclsr3stdE7declvalIT0_EEEEOS5_DpOS6_', symObjAddr: 0xC80B0, symBinAddr: 0x1000CA70C, symSize: 0x24 }
  - { offsetInCU: 0x5233F, offset: 0x5233F, size: 0x8, addend: 0x0, symName: '__ZNSt3__116forward_as_tupleB7v160006IJZ16test_full_engineR9TestSuiteE4$_19EEENS_5tupleIJDpOT_EEES7_', symObjAddr: 0xC9A44, symBinAddr: 0x1000CC0A0, symSize: 0x1F8 }
  - { offsetInCU: 0x5237A, offset: 0x5237A, size: 0x8, addend: 0x0, symName: '__ZNSt3__116forward_as_tupleB7v160006IJNS_9allocatorIZ16test_full_engineR9TestSuiteE4$_19EEEEENS_5tupleIJDpOT_EEES9_', symObjAddr: 0xC9C3C, symBinAddr: 0x1000CC298, symSize: 0x1F8 }
  - { offsetInCU: 0x523DF, offset: 0x523DF, size: 0x8, addend: 0x0, symName: '__ZNSt3__13getB7v160006ILm0EJOZ16test_full_engineR9TestSuiteE4$_19EEERNS_13tuple_elementIXT_ENS_5tupleIJDpT0_EEEE4typeERS9_', symObjAddr: 0xCAB10, symBinAddr: 0x1000CD16C, symSize: 0x24 }
  - { offsetInCU: 0x52423, offset: 0x52423, size: 0x8, addend: 0x0, symName: '__ZNSt3__13getB7v160006ILm0EJONS_9allocatorIZ16test_full_engineR9TestSuiteE4$_19EEEEERNS_13tuple_elementIXT_ENS_5tupleIJDpT0_EEEE4typeERSB_', symObjAddr: 0xCAB94, symBinAddr: 0x1000CD1F0, symSize: 0x24 }
  - { offsetInCU: 0x5294D, offset: 0x5294D, size: 0x8, addend: 0x0, symName: '__ZNSt3__116forward_as_tupleB7v160006IJRKZ16test_full_engineR9TestSuiteE4$_19EEENS_5tupleIJDpOT_EEES9_', symObjAddr: 0xCB818, symBinAddr: 0x1000CDE74, symSize: 0x1F8 }
  - { offsetInCU: 0x5299D, offset: 0x5299D, size: 0x8, addend: 0x0, symName: '__ZNSt3__13getB7v160006ILm0EJRKZ16test_full_engineR9TestSuiteE4$_19EEERNS_13tuple_elementIXT_ENS_5tupleIJDpT0_EEEE4typeERSA_', symObjAddr: 0xCC3AC, symBinAddr: 0x1000CEA08, symSize: 0x24 }
  - { offsetInCU: 0x529E1, offset: 0x529E1, size: 0x8, addend: 0x0, symName: '__ZNSt3__116forward_as_tupleB7v160006IJRKNS_9allocatorIZ16test_full_engineR9TestSuiteE4$_19EEEEENS_5tupleIJDpOT_EEESB_', symObjAddr: 0xCCB4C, symBinAddr: 0x1000CF1A8, symSize: 0x1F8 }
  - { offsetInCU: 0x52A31, offset: 0x52A31, size: 0x8, addend: 0x0, symName: '__ZNSt3__13getB7v160006ILm0EJRKNS_9allocatorIZ16test_full_engineR9TestSuiteE4$_19EEEEERNS_13tuple_elementIXT_ENS_5tupleIJDpT0_EEEE4typeERSC_', symObjAddr: 0xCD6E0, symBinAddr: 0x1000CFD3C, symSize: 0x24 }
  - { offsetInCU: 0x52A75, offset: 0x52A75, size: 0x8, addend: 0x0, symName: '__ZNSt3__18__invokeB7v160006IRZ16test_full_engineR9TestSuiteE4$_19JEEEDTclclsr3stdE7declvalIT_EEspclsr3stdE7declvalIT0_EEEEOS5_DpOS6_', symObjAddr: 0xCD7E4, symBinAddr: 0x1000CFE40, symSize: 0x24 }
  - { offsetInCU: 0x52AAD, offset: 0x52AAD, size: 0x8, addend: 0x0, symName: __ZNSt3__111make_uniqueB7v160006IN5queue20MarketDataRingBufferEJEEENS_11__unique_ifIT_E15__unique_singleEDpOT0_, symObjAddr: 0xD1A20, symBinAddr: 0x1000D407C, symSize: 0x70 }
  - { offsetInCU: 0x52ADA, offset: 0x52ADA, size: 0x8, addend: 0x0, symName: __ZNSt3__111make_uniqueB7v160006IN5cache14OrderBookCacheEJEEENS_11__unique_ifIT_E15__unique_singleEDpOT0_, symObjAddr: 0xD1B0C, symBinAddr: 0x1000D4168, symSize: 0x78 }
  - { offsetInCU: 0x52B07, offset: 0x52B07, size: 0x8, addend: 0x0, symName: __ZNSt3__111make_uniqueB7v160006IN8strategy16SpreadCalculatorEJRNS_6vectorIN4data15CorrelationPairENS_9allocatorIS5_EEEEEEENS_11__unique_ifIT_E15__unique_singleEDpOT0_, symObjAddr: 0xD1C00, symBinAddr: 0x1000D425C, symSize: 0x6C }
  - { offsetInCU: 0x52B49, offset: 0x52B49, size: 0x8, addend: 0x0, symName: __ZNSt3__111make_uniqueB7v160006IN8strategy15SignalGeneratorEJEEENS_11__unique_ifIT_E15__unique_singleEDpOT0_, symObjAddr: 0xD1CE8, symBinAddr: 0x1000D4344, symSize: 0x50 }
  - { offsetInCU: 0x52B76, offset: 0x52B76, size: 0x8, addend: 0x0, symName: __ZNSt3__111make_uniqueB7v160006IN4risk11RiskManagerEJEEENS_11__unique_ifIT_E15__unique_singleEDpOT0_, symObjAddr: 0xD1DB4, symBinAddr: 0x1000D4410, symSize: 0x64 }
  - { offsetInCU: 0x52BA3, offset: 0x52BA3, size: 0x8, addend: 0x0, symName: __ZNSt3__111make_uniqueB7v160006IN6router11OrderRouterEJRKNS1_15KalshiApiConfigEEEENS_11__unique_ifIT_E15__unique_singleEDpOT0_, symObjAddr: 0xD1E94, symBinAddr: 0x1000D44F0, symSize: 0x6C }
  - { offsetInCU: 0x52BE5, offset: 0x52BE5, size: 0x8, addend: 0x0, symName: __ZNSt3__111make_uniqueB7v160006IN8position15PositionTrackerEJEEENS_11__unique_ifIT_E15__unique_singleEDpOT0_, symObjAddr: 0xD1F7C, symBinAddr: 0x1000D45D8, symSize: 0x64 }
  - { offsetInCU: 0x52C12, offset: 0x52C12, size: 0x8, addend: 0x0, symName: __ZNSt3__111make_uniqueB7v160006IN4feed17MarketFeedHandlerEJRN5queue20MarketDataRingBufferEEEENS_11__unique_ifIT_E15__unique_singleEDpOT0_, symObjAddr: 0xD205C, symBinAddr: 0x1000D46B8, symSize: 0x6C }
  - { offsetInCU: 0x534D1, offset: 0x534D1, size: 0x8, addend: 0x0, symName: __ZNSt3__1eqB7v160006IcNS_11char_traitsIcEEEEbRKNS_19istreambuf_iteratorIT_T0_EES8_, symObjAddr: 0xD4F34, symBinAddr: 0x1000D7590, symSize: 0x30 }
  - { offsetInCU: 0x5351F, offset: 0x5351F, size: 0x8, addend: 0x0, symName: __ZNSt3__1eqB7v160006IcNS_11char_traitsIcEENS_9allocatorIcEEEEbRKNS_12basic_stringIT_T0_T1_EEPKS6_, symObjAddr: 0xD6054, symBinAddr: 0x1000D86B0, symSize: 0x2EC }
  - { offsetInCU: 0x53579, offset: 0x53579, size: 0x8, addend: 0x0, symName: __ZNSt3__119__str_find_first_ofB7v160006IcmNS_11char_traitsIcEELm18446744073709551615EEET0_PKT_S3_S6_S3_S3_, symObjAddr: 0xD6B84, symBinAddr: 0x1000D91E0, symSize: 0x110 }
  - { offsetInCU: 0x53620, offset: 0x53620, size: 0x8, addend: 0x0, symName: __ZNSt3__118__find_first_of_ceB7v160006IPKcS2_RDoFbccEEET_S5_S5_T0_S6_OT1_, symObjAddr: 0xD6C94, symBinAddr: 0x1000D92F0, symSize: 0x1C8 }
  - { offsetInCU: 0x536C2, offset: 0x536C2, size: 0x8, addend: 0x0, symName: __ZNSt3__1eqB7v160006IcNS_11char_traitsIcEEEEbNS_17basic_string_viewIT_T0_EES6_, symObjAddr: 0xD6E84, symBinAddr: 0x1000D94E0, symSize: 0x348 }
  - { offsetInCU: 0x53719, offset: 0x53719, size: 0x8, addend: 0x0, symName: __ZNSt3__128__char_traits_length_checkedB7v160006INS_11char_traitsIcEEEEmPKNT_9char_typeE, symObjAddr: 0xD72C4, symBinAddr: 0x1000D9920, symSize: 0x24 }
  - { offsetInCU: 0x5374F, offset: 0x5374F, size: 0x8, addend: 0x0, symName: __ZNSt3__1neB7v160006IPcEEbRKNS_11__wrap_iterIT_EES6_, symObjAddr: 0xD779C, symBinAddr: 0x1000D9DF8, symSize: 0x34 }
  - { offsetInCU: 0x53794, offset: 0x53794, size: 0x8, addend: 0x0, symName: __ZNSt3__1eqB7v160006IPcEEbRKNS_11__wrap_iterIT_EES6_, symObjAddr: 0xD7B6C, symBinAddr: 0x1000DA1C8, symSize: 0x48 }
  - { offsetInCU: 0x537D9, offset: 0x537D9, size: 0x8, addend: 0x0, symName: __ZNSt3__18distanceB7v160006IPN4data15CorrelationPairEEENS_15iterator_traitsIT_E15difference_typeES5_S5_, symObjAddr: 0xD89E8, symBinAddr: 0x1000DB044, symSize: 0x2C }
  - { offsetInCU: 0x5381E, offset: 0x5381E, size: 0x8, addend: 0x0, symName: __ZNSt3__14copyB7v160006IPN4data15CorrelationPairES3_EET0_T_S5_S4_, symObjAddr: 0xD8A64, symBinAddr: 0x1000DB0C0, symSize: 0x26C }
  - { offsetInCU: 0x5387F, offset: 0x5387F, size: 0x8, addend: 0x0, symName: __ZNSt3__110__distanceB7v160006IPN4data15CorrelationPairEEENS_15iterator_traitsIT_E15difference_typeES5_S5_NS_26random_access_iterator_tagE, symObjAddr: 0xD8EC8, symBinAddr: 0x1000DB524, symSize: 0x28 }
  - { offsetInCU: 0x538CF, offset: 0x538CF, size: 0x8, addend: 0x0, symName: __ZNSt3__121__convert_to_integralB7v160006Em, symObjAddr: 0xD8EF0, symBinAddr: 0x1000DB54C, symSize: 0x14 }
  - { offsetInCU: 0x538FC, offset: 0x538FC, size: 0x8, addend: 0x0, symName: __ZNSt3__16__copyB7v160006INS_17_ClassicAlgPolicyEPN4data15CorrelationPairES4_S4_EENS_4pairIT0_T2_EES6_T1_S7_, symObjAddr: 0xD8F04, symBinAddr: 0x1000DB560, symSize: 0x22C }
  - { offsetInCU: 0x5396E, offset: 0x5396E, size: 0x8, addend: 0x0, symName: __ZNSt3__123__dispatch_copy_or_moveB7v160006INS_17_ClassicAlgPolicyENS_11__copy_loopIS1_EENS_14__copy_trivialEPN4data15CorrelationPairES7_S7_EENS_4pairIT2_T4_EES9_T3_SA_, symObjAddr: 0xD9130, symBinAddr: 0x1000DB78C, symSize: 0x22C }
  - { offsetInCU: 0x539F2, offset: 0x539F2, size: 0x8, addend: 0x0, symName: __ZNSt3__121__unwrap_and_dispatchB7v160006INS_10__overloadINS_11__copy_loopINS_17_ClassicAlgPolicyEEENS_14__copy_trivialEEEPN4data15CorrelationPairES9_S9_Li0EEENS_4pairIT0_T2_EESB_T1_SC_, symObjAddr: 0xD935C, symBinAddr: 0x1000DB9B8, symSize: 0x5A4 }
  - { offsetInCU: 0x53A90, offset: 0x53A90, size: 0x8, addend: 0x0, symName: __ZNSt3__114__unwrap_rangeB7v160006IPN4data15CorrelationPairES3_EEDaT_T0_, symObjAddr: 0xD9900, symBinAddr: 0x1000DBF5C, symSize: 0x224 }
  - { offsetInCU: 0x53C65, offset: 0x53C65, size: 0x8, addend: 0x0, symName: __ZNSt3__113__unwrap_iterB7v160006IPN4data15CorrelationPairENS_18__unwrap_iter_implIS3_Lb1EEELi0EEEDTclsrT0_8__unwrapclsr3stdE7declvalIT_EEEES7_, symObjAddr: 0xD9D54, symBinAddr: 0x1000DC3B0, symSize: 0x24 }
  - { offsetInCU: 0x53CAA, offset: 0x53CAA, size: 0x8, addend: 0x0, symName: __ZNSt3__19make_pairB7v160006IPN4data15CorrelationPairES3_EENS_4pairINS_18__unwrap_ref_decayIT_E4typeENS5_IT0_E4typeEEEOS6_OS9_, symObjAddr: 0xD9D78, symBinAddr: 0x1000DC3D4, symSize: 0x20C }
  - { offsetInCU: 0x53CFB, offset: 0x53CFB, size: 0x8, addend: 0x0, symName: __ZNSt3__114__rewrap_rangeB7v160006IPN4data15CorrelationPairES3_S3_EET0_S4_T1_, symObjAddr: 0xD9F84, symBinAddr: 0x1000DC5E0, symSize: 0x2C }
  - { offsetInCU: 0x53D52, offset: 0x53D52, size: 0x8, addend: 0x0, symName: __ZNSt3__113__rewrap_iterB7v160006IPN4data15CorrelationPairES3_NS_18__unwrap_iter_implIS3_Lb1EEEEET_S6_T0_, symObjAddr: 0xD9FB0, symBinAddr: 0x1000DC60C, symSize: 0x48 }
  - { offsetInCU: 0x53DF9, offset: 0x53DF9, size: 0x8, addend: 0x0, symName: __ZNSt3__119__copy_trivial_implB7v160006IN4data15CorrelationPairES2_EENS_4pairIPT_PT0_EES5_S5_S7_, symObjAddr: 0xDA478, symBinAddr: 0x1000DCAD4, symSize: 0x3C0 }
  - { offsetInCU: 0x53E6C, offset: 0x53E6C, size: 0x8, addend: 0x0, symName: __ZNSt3__19make_pairB7v160006IRPN4data15CorrelationPairES3_EENS_4pairINS_18__unwrap_ref_decayIT_E4typeENS6_IT0_E4typeEEEOS7_OSA_, symObjAddr: 0xDA838, symBinAddr: 0x1000DCE94, symSize: 0x20C }
  - { offsetInCU: 0x53F11, offset: 0x53F11, size: 0x8, addend: 0x0, symName: __ZNSt3__118__cxx_atomic_storeB7v160006IN4feed9FeedStateEEEvPNS_22__cxx_atomic_base_implIT_EES4_NS_12memory_orderE, symObjAddr: 0xDE5D0, symBinAddr: 0x1000E0C2C, symSize: 0x1C0 }
  - { offsetInCU: 0x53F63, offset: 0x53F63, size: 0x8, addend: 0x0, symName: __ZNSt3__118__cxx_atomic_storeB7v160006IbEEvPNS_22__cxx_atomic_base_implIT_EES2_NS_12memory_orderE, symObjAddr: 0xE1148, symBinAddr: 0x1000E37A4, symSize: 0x1C0 }
  - { offsetInCU: 0x543B1, offset: 0x543B1, size: 0x8, addend: 0x0, symName: __ZNSt3__122__libcpp_thread_createB7v160006EPP17_opaque_pthread_tPFPvS3_ES3_, symObjAddr: 0xE1998, symBinAddr: 0x1000E3FF4, symSize: 0x38 }
  - { offsetInCU: 0x543FD, offset: 0x543FD, size: 0x8, addend: 0x0, symName: __ZNSt3__114__thread_proxyB7v160006INS_5tupleIJNS_10unique_ptrINS_15__thread_structENS_14default_deleteIS3_EEEEMN4feed17MarketFeedHandlerEFvvEPS8_EEEEEPvSD_, symObjAddr: 0xE19D0, symBinAddr: 0x1000E402C, symSize: 0x2B4 }
  - { offsetInCU: 0x5454E, offset: 0x5454E, size: 0x8, addend: 0x0, symName: __ZNSt3__13getB7v160006ILm0EJNS_10unique_ptrINS_15__thread_structENS_14default_deleteIS2_EEEEMN4feed17MarketFeedHandlerEFvvEPS7_EEERNS_13tuple_elementIXT_ENS_5tupleIJDpT0_EEEE4typeERSF_, symObjAddr: 0xE2D48, symBinAddr: 0x1000E53A4, symSize: 0x24 }
  - { offsetInCU: 0x5459C, offset: 0x5459C, size: 0x8, addend: 0x0, symName: __ZNSt3__116__thread_executeB7v160006INS_10unique_ptrINS_15__thread_structENS_14default_deleteIS2_EEEEMN4feed17MarketFeedHandlerEFvvEJPS7_EJLm2EEEEvRNS_5tupleIJT_T0_DpT1_EEENS_15__tuple_indicesIJXspT2_EEEE, symObjAddr: 0xE2D6C, symBinAddr: 0x1000E53C8, symSize: 0x3C }
  - { offsetInCU: 0x545FB, offset: 0x545FB, size: 0x8, addend: 0x0, symName: __ZNSt3__116__libcpp_tls_setB7v160006EmPv, symObjAddr: 0xE2DA8, symBinAddr: 0x1000E5404, symSize: 0x2C }
  - { offsetInCU: 0x54639, offset: 0x54639, size: 0x8, addend: 0x0, symName: __ZNSt3__18__invokeB7v160006IMN4feed17MarketFeedHandlerEFvvEPS2_JEvEEDTcldsdeclsr3stdE7declvalIT0_EEclsr3stdE7declvalIT_EEspclsr3stdE7declvalIT1_EEEEOS7_OS6_DpOS8_, symObjAddr: 0xE2DE8, symBinAddr: 0x1000E5444, symSize: 0x12C }
  - { offsetInCU: 0x5468A, offset: 0x5468A, size: 0x8, addend: 0x0, symName: __ZNSt3__13getB7v160006ILm1EJNS_10unique_ptrINS_15__thread_structENS_14default_deleteIS2_EEEEMN4feed17MarketFeedHandlerEFvvEPS7_EEERNS_13tuple_elementIXT_ENS_5tupleIJDpT0_EEEE4typeERSF_, symObjAddr: 0xE2F14, symBinAddr: 0x1000E5570, symSize: 0x28 }
  - { offsetInCU: 0x546D7, offset: 0x546D7, size: 0x8, addend: 0x0, symName: __ZNSt3__13getB7v160006ILm2EJNS_10unique_ptrINS_15__thread_structENS_14default_deleteIS2_EEEEMN4feed17MarketFeedHandlerEFvvEPS7_EEERNS_13tuple_elementIXT_ENS_5tupleIJDpT0_EEEE4typeERSF_, symObjAddr: 0xE2F3C, symBinAddr: 0x1000E5598, symSize: 0x28 }
  - { offsetInCU: 0x54724, offset: 0x54724, size: 0x8, addend: 0x0, symName: __ZNSt3__122__libcpp_thread_isnullB7v160006EPKP17_opaque_pthread_t, symObjAddr: 0xE33E0, symBinAddr: 0x1000E5A3C, symSize: 0x30 }
  - { offsetInCU: 0x54752, offset: 0x54752, size: 0x8, addend: 0x0, symName: __ZNSt3__122__libcpp_thread_get_idB7v160006EPKP17_opaque_pthread_t, symObjAddr: 0xE3410, symBinAddr: 0x1000E5A6C, symSize: 0x60 }
  - { offsetInCU: 0x54780, offset: 0x54780, size: 0x8, addend: 0x0, symName: __ZNSt3__1neB7v160006IPN4data15ArbitrageSignalEEEbRKNS_11__wrap_iterIT_EES8_, symObjAddr: 0xE4818, symBinAddr: 0x1000E6E74, symSize: 0x34 }
  - { offsetInCU: 0x547C5, offset: 0x547C5, size: 0x8, addend: 0x0, symName: __ZNSt3__112construct_atB7v160006IN4data11MarketPriceEJRKS2_EPS2_EEPT_S7_DpOT0_, symObjAddr: 0xE5F5C, symBinAddr: 0x1000E85B8, symSize: 0x40 }
  - { offsetInCU: 0x54839, offset: 0x54839, size: 0x8, addend: 0x0, symName: __ZNSt3__18distanceB7v160006IPN4data15ArbitrageSignalEEENS_15iterator_traitsIT_E15difference_typeES5_S5_, symObjAddr: 0xE6490, symBinAddr: 0x1000E8AEC, symSize: 0x2C }
  - { offsetInCU: 0x5487E, offset: 0x5487E, size: 0x8, addend: 0x0, symName: __ZNSt3__14copyB7v160006IPN4data15ArbitrageSignalES3_EET0_T_S5_S4_, symObjAddr: 0xE650C, symBinAddr: 0x1000E8B68, symSize: 0x26C }
  - { offsetInCU: 0x548DF, offset: 0x548DF, size: 0x8, addend: 0x0, symName: __ZNSt3__110__distanceB7v160006IPN4data15ArbitrageSignalEEENS_15iterator_traitsIT_E15difference_typeES5_S5_NS_26random_access_iterator_tagE, symObjAddr: 0xE7118, symBinAddr: 0x1000E9774, symSize: 0x28 }
  - { offsetInCU: 0x5492F, offset: 0x5492F, size: 0x8, addend: 0x0, symName: __ZNSt3__19__advanceB7v160006IPN4data15ArbitrageSignalEEEvRT_NS_15iterator_traitsIS4_E15difference_typeENS_26random_access_iterator_tagE, symObjAddr: 0xE7140, symBinAddr: 0x1000E979C, symSize: 0x80 }
  - { offsetInCU: 0x5497A, offset: 0x5497A, size: 0x8, addend: 0x0, symName: __ZNSt3__16__copyB7v160006INS_17_ClassicAlgPolicyEPN4data15ArbitrageSignalES4_S4_EENS_4pairIT0_T2_EES6_T1_S7_, symObjAddr: 0xE71C0, symBinAddr: 0x1000E981C, symSize: 0x22C }
  - { offsetInCU: 0x549EC, offset: 0x549EC, size: 0x8, addend: 0x0, symName: __ZNSt3__123__dispatch_copy_or_moveB7v160006INS_17_ClassicAlgPolicyENS_11__copy_loopIS1_EENS_14__copy_trivialEPN4data15ArbitrageSignalES7_S7_EENS_4pairIT2_T4_EES9_T3_SA_, symObjAddr: 0xE73EC, symBinAddr: 0x1000E9A48, symSize: 0x22C }
  - { offsetInCU: 0x54A70, offset: 0x54A70, size: 0x8, addend: 0x0, symName: __ZNSt3__121__unwrap_and_dispatchB7v160006INS_10__overloadINS_11__copy_loopINS_17_ClassicAlgPolicyEEENS_14__copy_trivialEEEPN4data15ArbitrageSignalES9_S9_Li0EEENS_4pairIT0_T2_EESB_T1_SC_, symObjAddr: 0xE7618, symBinAddr: 0x1000E9C74, symSize: 0x5A4 }
  - { offsetInCU: 0x54B0E, offset: 0x54B0E, size: 0x8, addend: 0x0, symName: __ZNSt3__114__unwrap_rangeB7v160006IPN4data15ArbitrageSignalES3_EEDaT_T0_, symObjAddr: 0xE7BBC, symBinAddr: 0x1000EA218, symSize: 0x224 }
  - { offsetInCU: 0x54C61, offset: 0x54C61, size: 0x8, addend: 0x0, symName: __ZNSt3__113__unwrap_iterB7v160006IPN4data15ArbitrageSignalENS_18__unwrap_iter_implIS3_Lb1EEELi0EEEDTclsrT0_8__unwrapclsr3stdE7declvalIT_EEEES7_, symObjAddr: 0xE8010, symBinAddr: 0x1000EA66C, symSize: 0x24 }
  - { offsetInCU: 0x54CA6, offset: 0x54CA6, size: 0x8, addend: 0x0, symName: __ZNSt3__19make_pairB7v160006IPN4data15ArbitrageSignalES3_EENS_4pairINS_18__unwrap_ref_decayIT_E4typeENS5_IT0_E4typeEEEOS6_OS9_, symObjAddr: 0xE8034, symBinAddr: 0x1000EA690, symSize: 0x20C }
  - { offsetInCU: 0x54CF7, offset: 0x54CF7, size: 0x8, addend: 0x0, symName: __ZNSt3__114__rewrap_rangeB7v160006IPN4data15ArbitrageSignalES3_S3_EET0_S4_T1_, symObjAddr: 0xE8240, symBinAddr: 0x1000EA89C, symSize: 0x2C }
  - { offsetInCU: 0x54D4E, offset: 0x54D4E, size: 0x8, addend: 0x0, symName: __ZNSt3__113__rewrap_iterB7v160006IPN4data15ArbitrageSignalES3_NS_18__unwrap_iter_implIS3_Lb1EEEEET_S6_T0_, symObjAddr: 0xE826C, symBinAddr: 0x1000EA8C8, symSize: 0x48 }
  - { offsetInCU: 0x54DF5, offset: 0x54DF5, size: 0x8, addend: 0x0, symName: __ZNSt3__119__copy_trivial_implB7v160006IN4data15ArbitrageSignalES2_EENS_4pairIPT_PT0_EES5_S5_S7_, symObjAddr: 0xE8734, symBinAddr: 0x1000EAD90, symSize: 0x3C0 }
  - { offsetInCU: 0x54E68, offset: 0x54E68, size: 0x8, addend: 0x0, symName: __ZNSt3__19make_pairB7v160006IRPN4data15ArbitrageSignalES3_EENS_4pairINS_18__unwrap_ref_decayIT_E4typeENS6_IT0_E4typeEEEOS7_OSA_, symObjAddr: 0xE8AF4, symBinAddr: 0x1000EB150, symSize: 0x20C }
  - { offsetInCU: 0x54F0C, offset: 0x54F0C, size: 0x8, addend: 0x0, symName: __ZNSt3__130__uninitialized_allocator_copyB7v160006INS_9allocatorIN4data15ArbitrageSignalEEEPS3_S5_S5_EET2_RT_T0_T1_S6_, symObjAddr: 0xE8F1C, symBinAddr: 0x1000EB578, symSize: 0x520 }
  - { offsetInCU: 0x54FB8, offset: 0x54FB8, size: 0x8, addend: 0x0, symName: __ZNSt3__122__make_exception_guardB7v160006INS_29_AllocatorDestroyRangeReverseINS_9allocatorIN4data15ArbitrageSignalEEEPS4_EEEENS_28__exception_guard_exceptionsIT_EES9_, symObjAddr: 0xE943C, symBinAddr: 0x1000EBA98, symSize: 0x1F8 }
  - { offsetInCU: 0x54FF0, offset: 0x54FF0, size: 0x8, addend: 0x0, symName: __ZNSt3__112construct_atB7v160006IN4data15ArbitrageSignalEJRS2_EPS2_EEPT_S6_DpOT0_, symObjAddr: 0xE993C, symBinAddr: 0x1000EBF98, symSize: 0x40 }
  - { offsetInCU: 0x55065, offset: 0x55065, size: 0x8, addend: 0x0, symName: __ZNSt3__119__allocator_destroyB7v160006INS_9allocatorIN4data15ArbitrageSignalEEENS_16reverse_iteratorIPS3_EES7_EEvRT_T0_T1_, symObjAddr: 0xE9DD4, symBinAddr: 0x1000EC430, symSize: 0x2B8 }
  - { offsetInCU: 0x550D1, offset: 0x550D1, size: 0x8, addend: 0x0, symName: __ZNSt3__112__to_addressB7v160006INS_16reverse_iteratorIPN4data15ArbitrageSignalEEEvEENS_5decayIDTclsr19__to_address_helperIT_EE6__callclsr3stdE7declvalIRKS7_EEEEE4typeES9_, symObjAddr: 0xEA08C, symBinAddr: 0x1000EC6E8, symSize: 0x24 }
  - { offsetInCU: 0x55132, offset: 0x55132, size: 0x8, addend: 0x0, symName: __ZNSt3__14prevB7v160006IPN4data15ArbitrageSignalEEENS_9enable_ifIXsr25__is_cpp17_input_iteratorIT_EE5valueES5_E4typeES5_NS_15iterator_traitsIS5_E15difference_typeE, symObjAddr: 0xEA160, symBinAddr: 0x1000EC7BC, symSize: 0x25C }
  - { offsetInCU: 0x5517C, offset: 0x5517C, size: 0x8, addend: 0x0, symName: __ZNSt3__1eqB7v160006IPN4data15ArbitrageSignalEEEbRKNS_11__wrap_iterIT_EES8_, symObjAddr: 0xEA754, symBinAddr: 0x1000ECDB0, symSize: 0x48 }
  - { offsetInCU: 0x555BE, offset: 0x555BE, size: 0x8, addend: 0x0, symName: __ZNSt3__114__thread_proxyB7v160006INS_5tupleIJNS_10unique_ptrINS_15__thread_structENS_14default_deleteIS3_EEEEMN6engine15ExecutionEngineEFvvEPS8_EEEEEPvSD_, symObjAddr: 0xEAD74, symBinAddr: 0x1000ED3D0, symSize: 0x2B4 }
  - { offsetInCU: 0x55628, offset: 0x55628, size: 0x8, addend: 0x0, symName: __ZNSt3__13getB7v160006ILm0EJNS_10unique_ptrINS_15__thread_structENS_14default_deleteIS2_EEEEMN6engine15ExecutionEngineEFvvEPS7_EEERNS_13tuple_elementIXT_ENS_5tupleIJDpT0_EEEE4typeERSF_, symObjAddr: 0xEB76C, symBinAddr: 0x1000EDDC8, symSize: 0x24 }
  - { offsetInCU: 0x55676, offset: 0x55676, size: 0x8, addend: 0x0, symName: __ZNSt3__116__thread_executeB7v160006INS_10unique_ptrINS_15__thread_structENS_14default_deleteIS2_EEEEMN6engine15ExecutionEngineEFvvEJPS7_EJLm2EEEEvRNS_5tupleIJT_T0_DpT1_EEENS_15__tuple_indicesIJXspT2_EEEE, symObjAddr: 0xEB790, symBinAddr: 0x1000EDDEC, symSize: 0x3C }
  - { offsetInCU: 0x556D6, offset: 0x556D6, size: 0x8, addend: 0x0, symName: __ZNSt3__18__invokeB7v160006IMN6engine15ExecutionEngineEFvvEPS2_JEvEEDTcldsdeclsr3stdE7declvalIT0_EEclsr3stdE7declvalIT_EEspclsr3stdE7declvalIT1_EEEEOS7_OS6_DpOS8_, symObjAddr: 0xEB7CC, symBinAddr: 0x1000EDE28, symSize: 0x12C }
  - { offsetInCU: 0x55727, offset: 0x55727, size: 0x8, addend: 0x0, symName: __ZNSt3__13getB7v160006ILm1EJNS_10unique_ptrINS_15__thread_structENS_14default_deleteIS2_EEEEMN6engine15ExecutionEngineEFvvEPS7_EEERNS_13tuple_elementIXT_ENS_5tupleIJDpT0_EEEE4typeERSF_, symObjAddr: 0xEB8F8, symBinAddr: 0x1000EDF54, symSize: 0x28 }
  - { offsetInCU: 0x55774, offset: 0x55774, size: 0x8, addend: 0x0, symName: __ZNSt3__13getB7v160006ILm2EJNS_10unique_ptrINS_15__thread_structENS_14default_deleteIS2_EEEEMN6engine15ExecutionEngineEFvvEPS7_EEERNS_13tuple_elementIXT_ENS_5tupleIJDpT0_EEEE4typeERSF_, symObjAddr: 0xEB920, symBinAddr: 0x1000EDF7C, symSize: 0x28 }
  - { offsetInCU: 0x55872, offset: 0x55872, size: 0x8, addend: 0x0, symName: '__ZNSt3__116forward_as_tupleB7v160006IJZ16test_full_engineR9TestSuiteE4$_20EEENS_5tupleIJDpOT_EEES7_', symObjAddr: 0xF35CC, symBinAddr: 0x1000F5C28, symSize: 0x1F8 }
  - { offsetInCU: 0x558AD, offset: 0x558AD, size: 0x8, addend: 0x0, symName: '__ZNSt3__116forward_as_tupleB7v160006IJNS_9allocatorIZ16test_full_engineR9TestSuiteE4$_20EEEEENS_5tupleIJDpOT_EEES9_', symObjAddr: 0xF37C4, symBinAddr: 0x1000F5E20, symSize: 0x1F8 }
  - { offsetInCU: 0x55912, offset: 0x55912, size: 0x8, addend: 0x0, symName: '__ZNSt3__13getB7v160006ILm0EJOZ16test_full_engineR9TestSuiteE4$_20EEERNS_13tuple_elementIXT_ENS_5tupleIJDpT0_EEEE4typeERS9_', symObjAddr: 0xF4698, symBinAddr: 0x1000F6CF4, symSize: 0x24 }
  - { offsetInCU: 0x55956, offset: 0x55956, size: 0x8, addend: 0x0, symName: '__ZNSt3__13getB7v160006ILm0EJONS_9allocatorIZ16test_full_engineR9TestSuiteE4$_20EEEEERNS_13tuple_elementIXT_ENS_5tupleIJDpT0_EEEE4typeERSB_', symObjAddr: 0xF471C, symBinAddr: 0x1000F6D78, symSize: 0x24 }
  - { offsetInCU: 0x55E80, offset: 0x55E80, size: 0x8, addend: 0x0, symName: '__ZNSt3__116forward_as_tupleB7v160006IJRKZ16test_full_engineR9TestSuiteE4$_20EEENS_5tupleIJDpOT_EEES9_', symObjAddr: 0xF53A0, symBinAddr: 0x1000F79FC, symSize: 0x1F8 }
  - { offsetInCU: 0x55ED0, offset: 0x55ED0, size: 0x8, addend: 0x0, symName: '__ZNSt3__13getB7v160006ILm0EJRKZ16test_full_engineR9TestSuiteE4$_20EEERNS_13tuple_elementIXT_ENS_5tupleIJDpT0_EEEE4typeERSA_', symObjAddr: 0xF5F34, symBinAddr: 0x1000F8590, symSize: 0x24 }
  - { offsetInCU: 0x55F14, offset: 0x55F14, size: 0x8, addend: 0x0, symName: '__ZNSt3__116forward_as_tupleB7v160006IJRKNS_9allocatorIZ16test_full_engineR9TestSuiteE4$_20EEEEENS_5tupleIJDpOT_EEESB_', symObjAddr: 0xF66D4, symBinAddr: 0x1000F8D30, symSize: 0x1F8 }
  - { offsetInCU: 0x55F64, offset: 0x55F64, size: 0x8, addend: 0x0, symName: '__ZNSt3__13getB7v160006ILm0EJRKNS_9allocatorIZ16test_full_engineR9TestSuiteE4$_20EEEEERNS_13tuple_elementIXT_ENS_5tupleIJDpT0_EEEE4typeERSC_', symObjAddr: 0xF7268, symBinAddr: 0x1000F98C4, symSize: 0x24 }
  - { offsetInCU: 0x55FA8, offset: 0x55FA8, size: 0x8, addend: 0x0, symName: '__ZNSt3__18__invokeB7v160006IRZ16test_full_engineR9TestSuiteE4$_20JEEEDTclclsr3stdE7declvalIT_EEspclsr3stdE7declvalIT0_EEEEOS5_DpOS6_', symObjAddr: 0xF736C, symBinAddr: 0x1000F99C8, symSize: 0x24 }
  - { offsetInCU: 0x55FE1, offset: 0x55FE1, size: 0x8, addend: 0x0, symName: __ZNSt3__118__cxx_atomic_storeB7v160006IyEEvPNS_22__cxx_atomic_base_implIT_EES2_NS_12memory_orderE, symObjAddr: 0xF7DD4, symBinAddr: 0x1000FA430, symSize: 0x148 }
  - { offsetInCU: 0x560E3, offset: 0x560E3, size: 0x8, addend: 0x0, symName: '__ZNSt3__116forward_as_tupleB7v160006IJZ16test_full_engineR9TestSuiteE4$_21EEENS_5tupleIJDpOT_EEES7_', symObjAddr: 0xF93D8, symBinAddr: 0x1000FBA34, symSize: 0x1F8 }
  - { offsetInCU: 0x5611E, offset: 0x5611E, size: 0x8, addend: 0x0, symName: '__ZNSt3__116forward_as_tupleB7v160006IJNS_9allocatorIZ16test_full_engineR9TestSuiteE4$_21EEEEENS_5tupleIJDpOT_EEES9_', symObjAddr: 0xF95D0, symBinAddr: 0x1000FBC2C, symSize: 0x1F8 }
  - { offsetInCU: 0x56183, offset: 0x56183, size: 0x8, addend: 0x0, symName: '__ZNSt3__13getB7v160006ILm0EJOZ16test_full_engineR9TestSuiteE4$_21EEERNS_13tuple_elementIXT_ENS_5tupleIJDpT0_EEEE4typeERS9_', symObjAddr: 0xFA4A4, symBinAddr: 0x1000FCB00, symSize: 0x24 }
  - { offsetInCU: 0x561C7, offset: 0x561C7, size: 0x8, addend: 0x0, symName: '__ZNSt3__13getB7v160006ILm0EJONS_9allocatorIZ16test_full_engineR9TestSuiteE4$_21EEEEERNS_13tuple_elementIXT_ENS_5tupleIJDpT0_EEEE4typeERSB_', symObjAddr: 0xFA528, symBinAddr: 0x1000FCB84, symSize: 0x24 }
  - { offsetInCU: 0x566F1, offset: 0x566F1, size: 0x8, addend: 0x0, symName: '__ZNSt3__116forward_as_tupleB7v160006IJRKZ16test_full_engineR9TestSuiteE4$_21EEENS_5tupleIJDpOT_EEES9_', symObjAddr: 0xFB1AC, symBinAddr: 0x1000FD808, symSize: 0x1F8 }
  - { offsetInCU: 0x56741, offset: 0x56741, size: 0x8, addend: 0x0, symName: '__ZNSt3__13getB7v160006ILm0EJRKZ16test_full_engineR9TestSuiteE4$_21EEERNS_13tuple_elementIXT_ENS_5tupleIJDpT0_EEEE4typeERSA_', symObjAddr: 0xFBD40, symBinAddr: 0x1000FE39C, symSize: 0x24 }
  - { offsetInCU: 0x56785, offset: 0x56785, size: 0x8, addend: 0x0, symName: '__ZNSt3__116forward_as_tupleB7v160006IJRKNS_9allocatorIZ16test_full_engineR9TestSuiteE4$_21EEEEENS_5tupleIJDpOT_EEESB_', symObjAddr: 0xFC4E0, symBinAddr: 0x1000FEB3C, symSize: 0x1F8 }
  - { offsetInCU: 0x567D5, offset: 0x567D5, size: 0x8, addend: 0x0, symName: '__ZNSt3__13getB7v160006ILm0EJRKNS_9allocatorIZ16test_full_engineR9TestSuiteE4$_21EEEEERNS_13tuple_elementIXT_ENS_5tupleIJDpT0_EEEE4typeERSC_', symObjAddr: 0xFD074, symBinAddr: 0x1000FF6D0, symSize: 0x24 }
  - { offsetInCU: 0x56819, offset: 0x56819, size: 0x8, addend: 0x0, symName: '__ZNSt3__18__invokeB7v160006IRZ16test_full_engineR9TestSuiteE4$_21JEEEDTclclsr3stdE7declvalIT_EEspclsr3stdE7declvalIT0_EEEEOS5_DpOS6_', symObjAddr: 0xFD178, symBinAddr: 0x1000FF7D4, symSize: 0x24 }
  - { offsetInCU: 0x56902, offset: 0x56902, size: 0x8, addend: 0x0, symName: '__ZNSt3__116forward_as_tupleB7v160006IJZ23test_latency_benchmarksR9TestSuiteE4$_22EEENS_5tupleIJDpOT_EEES7_', symObjAddr: 0xFEC74, symBinAddr: 0x1001012D0, symSize: 0x1F8 }
  - { offsetInCU: 0x5693D, offset: 0x5693D, size: 0x8, addend: 0x0, symName: '__ZNSt3__116forward_as_tupleB7v160006IJNS_9allocatorIZ23test_latency_benchmarksR9TestSuiteE4$_22EEEEENS_5tupleIJDpOT_EEES9_', symObjAddr: 0xFEE6C, symBinAddr: 0x1001014C8, symSize: 0x1F8 }
  - { offsetInCU: 0x569A2, offset: 0x569A2, size: 0x8, addend: 0x0, symName: '__ZNSt3__13getB7v160006ILm0EJOZ23test_latency_benchmarksR9TestSuiteE4$_22EEERNS_13tuple_elementIXT_ENS_5tupleIJDpT0_EEEE4typeERS9_', symObjAddr: 0xFFD40, symBinAddr: 0x10010239C, symSize: 0x24 }
  - { offsetInCU: 0x569E6, offset: 0x569E6, size: 0x8, addend: 0x0, symName: '__ZNSt3__13getB7v160006ILm0EJONS_9allocatorIZ23test_latency_benchmarksR9TestSuiteE4$_22EEEEERNS_13tuple_elementIXT_ENS_5tupleIJDpT0_EEEE4typeERSB_', symObjAddr: 0xFFDC4, symBinAddr: 0x100102420, symSize: 0x24 }
  - { offsetInCU: 0x56F10, offset: 0x56F10, size: 0x8, addend: 0x0, symName: '__ZNSt3__116forward_as_tupleB7v160006IJRKZ23test_latency_benchmarksR9TestSuiteE4$_22EEENS_5tupleIJDpOT_EEES9_', symObjAddr: 0x100A48, symBinAddr: 0x1001030A4, symSize: 0x1F8 }
  - { offsetInCU: 0x56F60, offset: 0x56F60, size: 0x8, addend: 0x0, symName: '__ZNSt3__13getB7v160006ILm0EJRKZ23test_latency_benchmarksR9TestSuiteE4$_22EEERNS_13tuple_elementIXT_ENS_5tupleIJDpT0_EEEE4typeERSA_', symObjAddr: 0x1015DC, symBinAddr: 0x100103C38, symSize: 0x24 }
  - { offsetInCU: 0x56FA4, offset: 0x56FA4, size: 0x8, addend: 0x0, symName: '__ZNSt3__116forward_as_tupleB7v160006IJRKNS_9allocatorIZ23test_latency_benchmarksR9TestSuiteE4$_22EEEEENS_5tupleIJDpOT_EEESB_', symObjAddr: 0x101D7C, symBinAddr: 0x1001043D8, symSize: 0x1F8 }
  - { offsetInCU: 0x56FF4, offset: 0x56FF4, size: 0x8, addend: 0x0, symName: '__ZNSt3__13getB7v160006ILm0EJRKNS_9allocatorIZ23test_latency_benchmarksR9TestSuiteE4$_22EEEEERNS_13tuple_elementIXT_ENS_5tupleIJDpT0_EEEE4typeERSC_', symObjAddr: 0x102910, symBinAddr: 0x100104F6C, symSize: 0x24 }
  - { offsetInCU: 0x57038, offset: 0x57038, size: 0x8, addend: 0x0, symName: '__ZNSt3__18__invokeB7v160006IRZ23test_latency_benchmarksR9TestSuiteE4$_22JEEEDTclclsr3stdE7declvalIT_EEspclsr3stdE7declvalIT0_EEEEOS5_DpOS6_', symObjAddr: 0x102A14, symBinAddr: 0x100105070, symSize: 0x24 }
  - { offsetInCU: 0x57121, offset: 0x57121, size: 0x8, addend: 0x0, symName: '__ZNSt3__116forward_as_tupleB7v160006IJZ23test_latency_benchmarksR9TestSuiteE4$_23EEENS_5tupleIJDpOT_EEES7_', symObjAddr: 0x104DFC, symBinAddr: 0x100107458, symSize: 0x1F8 }
  - { offsetInCU: 0x5715C, offset: 0x5715C, size: 0x8, addend: 0x0, symName: '__ZNSt3__116forward_as_tupleB7v160006IJNS_9allocatorIZ23test_latency_benchmarksR9TestSuiteE4$_23EEEEENS_5tupleIJDpOT_EEES9_', symObjAddr: 0x104FF4, symBinAddr: 0x100107650, symSize: 0x1F8 }
  - { offsetInCU: 0x571C1, offset: 0x571C1, size: 0x8, addend: 0x0, symName: '__ZNSt3__13getB7v160006ILm0EJOZ23test_latency_benchmarksR9TestSuiteE4$_23EEERNS_13tuple_elementIXT_ENS_5tupleIJDpT0_EEEE4typeERS9_', symObjAddr: 0x105EC8, symBinAddr: 0x100108524, symSize: 0x24 }
  - { offsetInCU: 0x57205, offset: 0x57205, size: 0x8, addend: 0x0, symName: '__ZNSt3__13getB7v160006ILm0EJONS_9allocatorIZ23test_latency_benchmarksR9TestSuiteE4$_23EEEEERNS_13tuple_elementIXT_ENS_5tupleIJDpT0_EEEE4typeERSB_', symObjAddr: 0x105F4C, symBinAddr: 0x1001085A8, symSize: 0x24 }
  - { offsetInCU: 0x5772F, offset: 0x5772F, size: 0x8, addend: 0x0, symName: '__ZNSt3__116forward_as_tupleB7v160006IJRKZ23test_latency_benchmarksR9TestSuiteE4$_23EEENS_5tupleIJDpOT_EEES9_', symObjAddr: 0x106BD0, symBinAddr: 0x10010922C, symSize: 0x1F8 }
  - { offsetInCU: 0x5777F, offset: 0x5777F, size: 0x8, addend: 0x0, symName: '__ZNSt3__13getB7v160006ILm0EJRKZ23test_latency_benchmarksR9TestSuiteE4$_23EEERNS_13tuple_elementIXT_ENS_5tupleIJDpT0_EEEE4typeERSA_', symObjAddr: 0x107764, symBinAddr: 0x100109DC0, symSize: 0x24 }
  - { offsetInCU: 0x577C3, offset: 0x577C3, size: 0x8, addend: 0x0, symName: '__ZNSt3__116forward_as_tupleB7v160006IJRKNS_9allocatorIZ23test_latency_benchmarksR9TestSuiteE4$_23EEEEENS_5tupleIJDpOT_EEESB_', symObjAddr: 0x107F04, symBinAddr: 0x10010A560, symSize: 0x1F8 }
  - { offsetInCU: 0x57813, offset: 0x57813, size: 0x8, addend: 0x0, symName: '__ZNSt3__13getB7v160006ILm0EJRKNS_9allocatorIZ23test_latency_benchmarksR9TestSuiteE4$_23EEEEERNS_13tuple_elementIXT_ENS_5tupleIJDpT0_EEEE4typeERSC_', symObjAddr: 0x108A98, symBinAddr: 0x10010B0F4, symSize: 0x24 }
  - { offsetInCU: 0x57857, offset: 0x57857, size: 0x8, addend: 0x0, symName: '__ZNSt3__18__invokeB7v160006IRZ23test_latency_benchmarksR9TestSuiteE4$_23JEEEDTclclsr3stdE7declvalIT_EEspclsr3stdE7declvalIT0_EEEEOS5_DpOS6_', symObjAddr: 0x108B9C, symBinAddr: 0x10010B1F8, symSize: 0x24 }
  - { offsetInCU: 0x591C3, offset: 0x591C3, size: 0x8, addend: 0x0, symName: __ZSt28__throw_bad_array_new_lengthB7v160006v, symObjAddr: 0x8E54, symBinAddr: 0x10000B4B0, symSize: 0x38 }
  - { offsetInCU: 0x591F0, offset: 0x591F0, size: 0x8, addend: 0x0, symName: _.str.42, symObjAddr: 0x10CD00, symBinAddr: 0x100110380, symSize: 0x0 }
  - { offsetInCU: 0x5920D, offset: 0x5920D, size: 0x8, addend: 0x0, symName: '___func__._ZZ16test_ring_bufferR9TestSuiteENK3$_0clEv', symObjAddr: 0x10CD20, symBinAddr: 0x1001103A0, symSize: 0x0 }
  - { offsetInCU: 0x5921E, offset: 0x5921E, size: 0x8, addend: 0x0, symName: _.str.43, symObjAddr: 0x10CD40, symBinAddr: 0x1001103C0, symSize: 0x0 }
  - { offsetInCU: 0x5923B, offset: 0x5923B, size: 0x8, addend: 0x0, symName: _.str.44, symObjAddr: 0x10CD60, symBinAddr: 0x1001103E0, symSize: 0x0 }
  - { offsetInCU: 0x59258, offset: 0x59258, size: 0x8, addend: 0x0, symName: _.str.45, symObjAddr: 0x10CDA0, symBinAddr: 0x100110420, symSize: 0x0 }
  - { offsetInCU: 0x59269, offset: 0x59269, size: 0x8, addend: 0x0, symName: _.str.46, symObjAddr: 0x10CDE0, symBinAddr: 0x100110460, symSize: 0x0 }
  - { offsetInCU: 0x5927A, offset: 0x5927A, size: 0x8, addend: 0x0, symName: _.str.47, symObjAddr: 0x10CE40, symBinAddr: 0x1001104C0, symSize: 0x0 }
  - { offsetInCU: 0x59337, offset: 0x59337, size: 0x8, addend: 0x0, symName: __ZN6configL21ORDER_RETRY_DELAYS_USE, symObjAddr: 0x10FD60, symBinAddr: 0x10010F5A0, symSize: 0x0 }
  - { offsetInCU: 0x59384, offset: 0x59384, size: 0x8, addend: 0x0, symName: _.str.48, symObjAddr: 0x10CF60, symBinAddr: 0x1001105E0, symSize: 0x0 }
  - { offsetInCU: 0x593A1, offset: 0x593A1, size: 0x8, addend: 0x0, symName: _.str.49, symObjAddr: 0x10CFA0, symBinAddr: 0x100110620, symSize: 0x0 }
  - { offsetInCU: 0x593B2, offset: 0x593B2, size: 0x8, addend: 0x0, symName: _.str.50, symObjAddr: 0x10D0C0, symBinAddr: 0x100110740, symSize: 0x0 }
  - { offsetInCU: 0x593C3, offset: 0x593C3, size: 0x8, addend: 0x0, symName: _.str.51, symObjAddr: 0x10D0E0, symBinAddr: 0x100110760, symSize: 0x0 }
  - { offsetInCU: 0x593D4, offset: 0x593D4, size: 0x8, addend: 0x0, symName: _.str.52, symObjAddr: 0x10D140, symBinAddr: 0x1001107C0, symSize: 0x0 }
  - { offsetInCU: 0x593E5, offset: 0x593E5, size: 0x8, addend: 0x0, symName: _.str.53, symObjAddr: 0x10D180, symBinAddr: 0x100110800, symSize: 0x0 }
  - { offsetInCU: 0x593F6, offset: 0x593F6, size: 0x8, addend: 0x0, symName: _.str.54, symObjAddr: 0x10D1C0, symBinAddr: 0x100110840, symSize: 0x0 }
  - { offsetInCU: 0x59408, offset: 0x59408, size: 0x8, addend: 0x0, symName: _.str.55, symObjAddr: 0x10D200, symBinAddr: 0x100110880, symSize: 0x0 }
  - { offsetInCU: 0x59425, offset: 0x59425, size: 0x8, addend: 0x0, symName: _.str.56, symObjAddr: 0x10D300, symBinAddr: 0x100110980, symSize: 0x0 }
  - { offsetInCU: 0x59442, offset: 0x59442, size: 0x8, addend: 0x0, symName: _.str.57, symObjAddr: 0x10D320, symBinAddr: 0x1001109A0, symSize: 0x0 }
  - { offsetInCU: 0x59453, offset: 0x59453, size: 0x8, addend: 0x0, symName: _.str.58, symObjAddr: 0x10D460, symBinAddr: 0x100110AE0, symSize: 0x0 }
  - { offsetInCU: 0x59464, offset: 0x59464, size: 0x8, addend: 0x0, symName: _.str.59, symObjAddr: 0x10D5A0, symBinAddr: 0x100110C20, symSize: 0x0 }
  - { offsetInCU: 0x59475, offset: 0x59475, size: 0x8, addend: 0x0, symName: _.str.60, symObjAddr: 0x10D5C0, symBinAddr: 0x100110C40, symSize: 0x0 }
  - { offsetInCU: 0x59486, offset: 0x59486, size: 0x8, addend: 0x0, symName: _.str.61, symObjAddr: 0x10D5E0, symBinAddr: 0x100110C60, symSize: 0x0 }
  - { offsetInCU: 0x59497, offset: 0x59497, size: 0x8, addend: 0x0, symName: _.str.62, symObjAddr: 0x10D620, symBinAddr: 0x100110CA0, symSize: 0x0 }
  - { offsetInCU: 0x594B4, offset: 0x594B4, size: 0x8, addend: 0x0, symName: _.str.63, symObjAddr: 0x10D660, symBinAddr: 0x100110CE0, symSize: 0x0 }
  - { offsetInCU: 0x594DE, offset: 0x594DE, size: 0x8, addend: 0x0, symName: _.str.64, symObjAddr: 0x10D680, symBinAddr: 0x100110D00, symSize: 0x0 }
  - { offsetInCU: 0x594EF, offset: 0x594EF, size: 0x8, addend: 0x0, symName: _.str.65, symObjAddr: 0x10D780, symBinAddr: 0x100110E00, symSize: 0x0 }
  - { offsetInCU: 0x59500, offset: 0x59500, size: 0x8, addend: 0x0, symName: _.str.66, symObjAddr: 0x10D8A0, symBinAddr: 0x100110F20, symSize: 0x0 }
  - { offsetInCU: 0x5951D, offset: 0x5951D, size: 0x8, addend: 0x0, symName: _.str.67, symObjAddr: 0x10D8C0, symBinAddr: 0x100110F40, symSize: 0x0 }
  - { offsetInCU: 0x5952E, offset: 0x5952E, size: 0x8, addend: 0x0, symName: _.str.68, symObjAddr: 0x10D8E0, symBinAddr: 0x100110F60, symSize: 0x0 }
  - { offsetInCU: 0x5954B, offset: 0x5954B, size: 0x8, addend: 0x0, symName: _.str.69, symObjAddr: 0x10D920, symBinAddr: 0x100110FA0, symSize: 0x0 }
  - { offsetInCU: 0x59574, offset: 0x59574, size: 0x8, addend: 0x0, symName: _.str.70, symObjAddr: 0x10D960, symBinAddr: 0x100110FE0, symSize: 0x0 }
  - { offsetInCU: 0x59585, offset: 0x59585, size: 0x8, addend: 0x0, symName: _.str.71, symObjAddr: 0x10DA60, symBinAddr: 0x1001110E0, symSize: 0x0 }
  - { offsetInCU: 0x59596, offset: 0x59596, size: 0x8, addend: 0x0, symName: _.str.72, symObjAddr: 0x10DB60, symBinAddr: 0x1001111E0, symSize: 0x0 }
  - { offsetInCU: 0x595A7, offset: 0x595A7, size: 0x8, addend: 0x0, symName: _.str.73, symObjAddr: 0x10DBC0, symBinAddr: 0x100111240, symSize: 0x0 }
  - { offsetInCU: 0x595C4, offset: 0x595C4, size: 0x8, addend: 0x0, symName: _.str.74, symObjAddr: 0x10DC20, symBinAddr: 0x1001112A0, symSize: 0x0 }
  - { offsetInCU: 0x595D5, offset: 0x595D5, size: 0x8, addend: 0x0, symName: _.str.75, symObjAddr: 0x10DD60, symBinAddr: 0x1001113E0, symSize: 0x0 }
  - { offsetInCU: 0x595E6, offset: 0x595E6, size: 0x8, addend: 0x0, symName: _.str.76, symObjAddr: 0x10DDC0, symBinAddr: 0x100111440, symSize: 0x0 }
  - { offsetInCU: 0x595F7, offset: 0x595F7, size: 0x8, addend: 0x0, symName: _.str.77, symObjAddr: 0x10DF00, symBinAddr: 0x100111580, symSize: 0x0 }
  - { offsetInCU: 0x59608, offset: 0x59608, size: 0x8, addend: 0x0, symName: _.str.78, symObjAddr: 0x10DF60, symBinAddr: 0x1001115E0, symSize: 0x0 }
  - { offsetInCU: 0x59625, offset: 0x59625, size: 0x8, addend: 0x0, symName: _.str.79, symObjAddr: 0x10DFC0, symBinAddr: 0x100111640, symSize: 0x0 }
  - { offsetInCU: 0x59636, offset: 0x59636, size: 0x8, addend: 0x0, symName: _.str.80, symObjAddr: 0x10E020, symBinAddr: 0x1001116A0, symSize: 0x0 }
  - { offsetInCU: 0x5965F, offset: 0x5965F, size: 0x8, addend: 0x0, symName: _.str.81, symObjAddr: 0x10E160, symBinAddr: 0x1001117E0, symSize: 0x0 }
  - { offsetInCU: 0x5967D, offset: 0x5967D, size: 0x8, addend: 0x0, symName: _.str.82, symObjAddr: 0x10E1A0, symBinAddr: 0x100111820, symSize: 0x0 }
  - { offsetInCU: 0x5968F, offset: 0x5968F, size: 0x8, addend: 0x0, symName: _.str.83, symObjAddr: 0x10E1E0, symBinAddr: 0x100111860, symSize: 0x0 }
  - { offsetInCU: 0x596AD, offset: 0x596AD, size: 0x8, addend: 0x0, symName: _.str.84, symObjAddr: 0x10E220, symBinAddr: 0x1001118A0, symSize: 0x0 }
  - { offsetInCU: 0x596BF, offset: 0x596BF, size: 0x8, addend: 0x0, symName: _.str.85, symObjAddr: 0x10E340, symBinAddr: 0x1001119C0, symSize: 0x0 }
  - { offsetInCU: 0x596DD, offset: 0x596DD, size: 0x8, addend: 0x0, symName: _.str.86, symObjAddr: 0x10E360, symBinAddr: 0x1001119E0, symSize: 0x0 }
  - { offsetInCU: 0x596EF, offset: 0x596EF, size: 0x8, addend: 0x0, symName: _.str.87, symObjAddr: 0x10E3A0, symBinAddr: 0x100111A20, symSize: 0x0 }
  - { offsetInCU: 0x59701, offset: 0x59701, size: 0x8, addend: 0x0, symName: _.str.88, symObjAddr: 0x10E3E0, symBinAddr: 0x100111A60, symSize: 0x0 }
  - { offsetInCU: 0x59713, offset: 0x59713, size: 0x8, addend: 0x0, symName: _.str.89, symObjAddr: 0x10F9A0, symBinAddr: 0x10010F1E0, symSize: 0x0 }
  - { offsetInCU: 0x59733, offset: 0x59733, size: 0x8, addend: 0x0, symName: _.str.90, symObjAddr: 0x10FAE0, symBinAddr: 0x10010F320, symSize: 0x0 }
  - { offsetInCU: 0x59745, offset: 0x59745, size: 0x8, addend: 0x0, symName: _.str.91, symObjAddr: 0x10E420, symBinAddr: 0x100111AA0, symSize: 0x0 }
  - { offsetInCU: 0x59757, offset: 0x59757, size: 0x8, addend: 0x0, symName: _.str.92, symObjAddr: 0x10E520, symBinAddr: 0x100111BA0, symSize: 0x0 }
  - { offsetInCU: 0x59769, offset: 0x59769, size: 0x8, addend: 0x0, symName: _.str.93, symObjAddr: 0x10E540, symBinAddr: 0x100111BC0, symSize: 0x0 }
  - { offsetInCU: 0x5977B, offset: 0x5977B, size: 0x8, addend: 0x0, symName: _.str.94, symObjAddr: 0x10E560, symBinAddr: 0x100111BE0, symSize: 0x0 }
  - { offsetInCU: 0x59799, offset: 0x59799, size: 0x8, addend: 0x0, symName: _.str.95, symObjAddr: 0x10E5C0, symBinAddr: 0x100111C40, symSize: 0x0 }
  - { offsetInCU: 0x597B7, offset: 0x597B7, size: 0x8, addend: 0x0, symName: _.str.96, symObjAddr: 0x10E5E0, symBinAddr: 0x100111C60, symSize: 0x0 }
  - { offsetInCU: 0x597C9, offset: 0x597C9, size: 0x8, addend: 0x0, symName: _.str.97, symObjAddr: 0x10E640, symBinAddr: 0x100111CC0, symSize: 0x0 }
  - { offsetInCU: 0x597DB, offset: 0x597DB, size: 0x8, addend: 0x0, symName: _.str.98, symObjAddr: 0x10E660, symBinAddr: 0x100111CE0, symSize: 0x0 }
  - { offsetInCU: 0x597F9, offset: 0x597F9, size: 0x8, addend: 0x0, symName: _.str.99, symObjAddr: 0x10E6C0, symBinAddr: 0x100111D40, symSize: 0x0 }
  - { offsetInCU: 0x59817, offset: 0x59817, size: 0x8, addend: 0x0, symName: _.str.100, symObjAddr: 0x10E820, symBinAddr: 0x100111EA0, symSize: 0x0 }
  - { offsetInCU: 0x59835, offset: 0x59835, size: 0x8, addend: 0x0, symName: _.str.101, symObjAddr: 0x10E840, symBinAddr: 0x100111EC0, symSize: 0x0 }
  - { offsetInCU: 0x59847, offset: 0x59847, size: 0x8, addend: 0x0, symName: _.str.102, symObjAddr: 0x10E880, symBinAddr: 0x100111F00, symSize: 0x0 }
  - { offsetInCU: 0x59859, offset: 0x59859, size: 0x8, addend: 0x0, symName: _.str.103, symObjAddr: 0x10FC20, symBinAddr: 0x10010F460, symSize: 0x0 }
  - { offsetInCU: 0x5987C, offset: 0x5987C, size: 0x8, addend: 0x0, symName: _.str.104, symObjAddr: 0x10E9A0, symBinAddr: 0x100112020, symSize: 0x0 }
  - { offsetInCU: 0x5988E, offset: 0x5988E, size: 0x8, addend: 0x0, symName: _.str.105, symObjAddr: 0x10E9C0, symBinAddr: 0x100112040, symSize: 0x0 }
  - { offsetInCU: 0x598A0, offset: 0x598A0, size: 0x8, addend: 0x0, symName: _.str.106, symObjAddr: 0x10EA20, symBinAddr: 0x1001120A0, symSize: 0x0 }
  - { offsetInCU: 0x598B2, offset: 0x598B2, size: 0x8, addend: 0x0, symName: _.str.107, symObjAddr: 0x10EA40, symBinAddr: 0x1001120C0, symSize: 0x0 }
  - { offsetInCU: 0x598C4, offset: 0x598C4, size: 0x8, addend: 0x0, symName: _.str.108, symObjAddr: 0x10EB40, symBinAddr: 0x1001121C0, symSize: 0x0 }
  - { offsetInCU: 0x598E2, offset: 0x598E2, size: 0x8, addend: 0x0, symName: _.str.109, symObjAddr: 0x10EC40, symBinAddr: 0x1001122C0, symSize: 0x0 }
  - { offsetInCU: 0x598F4, offset: 0x598F4, size: 0x8, addend: 0x0, symName: _.str.110, symObjAddr: 0x10ED80, symBinAddr: 0x100112400, symSize: 0x0 }
  - { offsetInCU: 0x59912, offset: 0x59912, size: 0x8, addend: 0x0, symName: _.str.111, symObjAddr: 0x10EE00, symBinAddr: 0x100112480, symSize: 0x0 }
  - { offsetInCU: 0x59930, offset: 0x59930, size: 0x8, addend: 0x0, symName: _.str.112, symObjAddr: 0x10EE20, symBinAddr: 0x1001124A0, symSize: 0x0 }
  - { offsetInCU: 0x5994E, offset: 0x5994E, size: 0x8, addend: 0x0, symName: _.str.113, symObjAddr: 0x10EEC0, symBinAddr: 0x100112540, symSize: 0x0 }
  - { offsetInCU: 0x59960, offset: 0x59960, size: 0x8, addend: 0x0, symName: _.str.114, symObjAddr: 0x10EF00, symBinAddr: 0x100112580, symSize: 0x0 }
  - { offsetInCU: 0x59972, offset: 0x59972, size: 0x8, addend: 0x0, symName: _.str.115, symObjAddr: 0x10EF40, symBinAddr: 0x1001125C0, symSize: 0x0 }
  - { offsetInCU: 0x59984, offset: 0x59984, size: 0x8, addend: 0x0, symName: _.str.116, symObjAddr: 0x10EFA0, symBinAddr: 0x100112620, symSize: 0x0 }
  - { offsetInCU: 0x59996, offset: 0x59996, size: 0x8, addend: 0x0, symName: _.str.117, symObjAddr: 0x10EFE0, symBinAddr: 0x100112660, symSize: 0x0 }
  - { offsetInCU: 0x599B4, offset: 0x599B4, size: 0x8, addend: 0x0, symName: _.str.118, symObjAddr: 0x10F040, symBinAddr: 0x1001126C0, symSize: 0x0 }
  - { offsetInCU: 0x599C6, offset: 0x599C6, size: 0x8, addend: 0x0, symName: _.str.119, symObjAddr: 0x10F060, symBinAddr: 0x1001126E0, symSize: 0x0 }
  - { offsetInCU: 0x599D8, offset: 0x599D8, size: 0x8, addend: 0x0, symName: _.str.120, symObjAddr: 0x10F080, symBinAddr: 0x100112700, symSize: 0x0 }
  - { offsetInCU: 0x599EA, offset: 0x599EA, size: 0x8, addend: 0x0, symName: _.str.121, symObjAddr: 0x10F0A0, symBinAddr: 0x100112720, symSize: 0x0 }
  - { offsetInCU: 0x599FC, offset: 0x599FC, size: 0x8, addend: 0x0, symName: _.str.122, symObjAddr: 0x10F0C0, symBinAddr: 0x100112740, symSize: 0x0 }
  - { offsetInCU: 0x59A0E, offset: 0x59A0E, size: 0x8, addend: 0x0, symName: _.str.123, symObjAddr: 0x10F0E0, symBinAddr: 0x100112760, symSize: 0x0 }
  - { offsetInCU: 0x59A20, offset: 0x59A20, size: 0x8, addend: 0x0, symName: _.str.124, symObjAddr: 0x10F120, symBinAddr: 0x1001127A0, symSize: 0x0 }
  - { offsetInCU: 0x59A32, offset: 0x59A32, size: 0x8, addend: 0x0, symName: _.str.125, symObjAddr: 0x10F140, symBinAddr: 0x1001127C0, symSize: 0x0 }
  - { offsetInCU: 0x59A44, offset: 0x59A44, size: 0x8, addend: 0x0, symName: _.str.126, symObjAddr: 0x10F180, symBinAddr: 0x100112800, symSize: 0x0 }
  - { offsetInCU: 0x59A56, offset: 0x59A56, size: 0x8, addend: 0x0, symName: _.str.127, symObjAddr: 0x10F1C0, symBinAddr: 0x100112840, symSize: 0x0 }
  - { offsetInCU: 0x59A68, offset: 0x59A68, size: 0x8, addend: 0x0, symName: _.str.128, symObjAddr: 0x10F1E0, symBinAddr: 0x100112860, symSize: 0x0 }
  - { offsetInCU: 0x59A7A, offset: 0x59A7A, size: 0x8, addend: 0x0, symName: _.str.129, symObjAddr: 0x10F220, symBinAddr: 0x1001128A0, symSize: 0x0 }
  - { offsetInCU: 0x59A8C, offset: 0x59A8C, size: 0x8, addend: 0x0, symName: _.str.130, symObjAddr: 0x10FDC0, symBinAddr: 0x10010F600, symSize: 0x0 }
  - { offsetInCU: 0x59AAA, offset: 0x59AAA, size: 0x8, addend: 0x0, symName: _.str.131, symObjAddr: 0x10F240, symBinAddr: 0x1001128C0, symSize: 0x0 }
  - { offsetInCU: 0x59ABC, offset: 0x59ABC, size: 0x8, addend: 0x0, symName: _.str.132, symObjAddr: 0x10F260, symBinAddr: 0x1001128E0, symSize: 0x0 }
  - { offsetInCU: 0x59ACE, offset: 0x59ACE, size: 0x8, addend: 0x0, symName: _.str.133, symObjAddr: 0x10F280, symBinAddr: 0x100112900, symSize: 0x0 }
  - { offsetInCU: 0x59AE0, offset: 0x59AE0, size: 0x8, addend: 0x0, symName: _.str.134, symObjAddr: 0x10F2C0, symBinAddr: 0x100112940, symSize: 0x0 }
  - { offsetInCU: 0x59AF2, offset: 0x59AF2, size: 0x8, addend: 0x0, symName: _.str.135, symObjAddr: 0x10F2E0, symBinAddr: 0x100112960, symSize: 0x0 }
  - { offsetInCU: 0x59B04, offset: 0x59B04, size: 0x8, addend: 0x0, symName: _.str.136, symObjAddr: 0x10F300, symBinAddr: 0x100112980, symSize: 0x0 }
  - { offsetInCU: 0x59B16, offset: 0x59B16, size: 0x8, addend: 0x0, symName: _.str.137, symObjAddr: 0x10F320, symBinAddr: 0x1001129A0, symSize: 0x0 }
  - { offsetInCU: 0x59B28, offset: 0x59B28, size: 0x8, addend: 0x0, symName: _.str.138, symObjAddr: 0x10F360, symBinAddr: 0x1001129E0, symSize: 0x0 }
  - { offsetInCU: 0x59B3A, offset: 0x59B3A, size: 0x8, addend: 0x0, symName: _.str.139, symObjAddr: 0x10F380, symBinAddr: 0x100112A00, symSize: 0x0 }
  - { offsetInCU: 0x59B4C, offset: 0x59B4C, size: 0x8, addend: 0x0, symName: _.str.140, symObjAddr: 0x10F3A0, symBinAddr: 0x100112A20, symSize: 0x0 }
  - { offsetInCU: 0x59B5E, offset: 0x59B5E, size: 0x8, addend: 0x0, symName: _.str.141, symObjAddr: 0x10F3C0, symBinAddr: 0x100112A40, symSize: 0x0 }
  - { offsetInCU: 0x59B70, offset: 0x59B70, size: 0x8, addend: 0x0, symName: _.str.142, symObjAddr: 0x10F4C0, symBinAddr: 0x100112B40, symSize: 0x0 }
  - { offsetInCU: 0x59B82, offset: 0x59B82, size: 0x8, addend: 0x0, symName: _.str.143, symObjAddr: 0x10F4E0, symBinAddr: 0x100112B60, symSize: 0x0 }
  - { offsetInCU: 0x59B94, offset: 0x59B94, size: 0x8, addend: 0x0, symName: _.str.144, symObjAddr: 0x10F500, symBinAddr: 0x100112B80, symSize: 0x0 }
  - { offsetInCU: 0x59BA6, offset: 0x59BA6, size: 0x8, addend: 0x0, symName: _.str.145, symObjAddr: 0x10F700, symBinAddr: 0x100112D80, symSize: 0x0 }
  - { offsetInCU: 0x59BB8, offset: 0x59BB8, size: 0x8, addend: 0x0, symName: _.str.146, symObjAddr: 0x10F720, symBinAddr: 0x100112DA0, symSize: 0x0 }
  - { offsetInCU: 0x59BD6, offset: 0x59BD6, size: 0x8, addend: 0x0, symName: _.str.147, symObjAddr: 0x10F760, symBinAddr: 0x100112DE0, symSize: 0x0 }
  - { offsetInCU: 0x59BE8, offset: 0x59BE8, size: 0x8, addend: 0x0, symName: _.str.148, symObjAddr: 0x10F860, symBinAddr: 0x100112EE0, symSize: 0x0 }
  - { offsetInCU: 0x59BFA, offset: 0x59BFA, size: 0x8, addend: 0x0, symName: _.str.149, symObjAddr: 0x10F880, symBinAddr: 0x100112F00, symSize: 0x0 }
  - { offsetInCU: 0x59C0C, offset: 0x59C0C, size: 0x8, addend: 0x0, symName: _.str.150, symObjAddr: 0x10F8A0, symBinAddr: 0x100112F20, symSize: 0x0 }
  - { offsetInCU: 0x5A80E, offset: 0x5A80E, size: 0x8, addend: 0x0, symName: __Z16test_ring_bufferR9TestSuite, symObjAddr: 0x0, symBinAddr: 0x10000265C, symSize: 0x430 }
  - { offsetInCU: 0x5B04E, offset: 0x5B04E, size: 0x8, addend: 0x0, symName: __ZNKSt3__16chrono15__duration_castINS0_8durationIxNS_5ratioILl1ELl1000000000EEEEENS2_IxNS3_ILl1ELl1000000EEEEENS3_ILl1ELl1000EEELb1ELb0EEclB7v160006ERKS5_, symObjAddr: 0xCCDC, symBinAddr: 0x10000F338, symSize: 0x298 }
  - { offsetInCU: 0x5B2DB, offset: 0x5B2DB, size: 0x8, addend: 0x0, symName: __Z21test_order_book_cacheR9TestSuite, symObjAddr: 0x7AC, symBinAddr: 0x100002E08, symSize: 0x548 }
  - { offsetInCU: 0x5B878, offset: 0x5B878, size: 0x8, addend: 0x0, symName: __ZNSt3__16vectorINS_10unique_ptrIN4data11MarketPriceENS_14default_deleteIS3_EEEENS_9allocatorIS6_EEE26__swap_out_circular_bufferERNS_14__split_bufferIS6_RS8_EE, symObjAddr: 0x1D7D8, symBinAddr: 0x10001FE34, symSize: 0x574 }
  - { offsetInCU: 0x5BDA9, offset: 0x5BDA9, size: 0x8, addend: 0x0, symName: __Z22test_spread_calculatorR9TestSuite, symObjAddr: 0xD78, symBinAddr: 0x1000033D4, symSize: 0x430 }
  - { offsetInCU: 0x5C20A, offset: 0x5C20A, size: 0x8, addend: 0x0, symName: __ZNSt3__16vectorIN4data15CorrelationPairENS_9allocatorIS2_EEE26__swap_out_circular_bufferERNS_14__split_bufferIS2_RS4_EE, symObjAddr: 0x37850, symBinAddr: 0x100039EAC, symSize: 0x574 }
  - { offsetInCU: 0x5C445, offset: 0x5C445, size: 0x8, addend: 0x0, symName: __ZNSt3__16vectorIN4data11MarketPriceENS_9allocatorIS2_EEE26__swap_out_circular_bufferERNS_14__split_bufferIS2_RS4_EE, symObjAddr: 0x4196C, symBinAddr: 0x100043FC8, symSize: 0x574 }
  - { offsetInCU: 0x5C67F, offset: 0x5C67F, size: 0x8, addend: 0x0, symName: __ZNSt3__16vectorIN4data15ArbitrageSignalENS_9allocatorIS2_EEE26__swap_out_circular_bufferERNS_14__split_bufferIS2_RS4_EE, symObjAddr: 0x48B4C, symBinAddr: 0x10004B1A8, symSize: 0x574 }
  - { offsetInCU: 0x5C92C, offset: 0x5C92C, size: 0x8, addend: 0x0, symName: __Z21test_signal_generatorR9TestSuite, symObjAddr: 0x1200, symBinAddr: 0x10000385C, symSize: 0x430 }
  - { offsetInCU: 0x5CDD2, offset: 0x5CDD2, size: 0x8, addend: 0x0, symName: __ZNSt3__16vectorINS_4pairINS_12basic_stringIcNS_11char_traitsIcEENS_9allocatorIcEEEEyEENS5_IS8_EEE26__swap_out_circular_bufferERNS_14__split_bufferIS8_RS9_EE, symObjAddr: 0x62D60, symBinAddr: 0x1000653BC, symSize: 0x574 }
  - { offsetInCU: 0x5D0BE, offset: 0x5D0BE, size: 0x8, addend: 0x0, symName: __Z17test_risk_managerR9TestSuite, symObjAddr: 0x1688, symBinAddr: 0x100003CE4, symSize: 0x650 }
  - { offsetInCU: 0x5D9EA, offset: 0x5D9EA, size: 0x8, addend: 0x0, symName: __ZNSt3__16vectorIyNS_9allocatorIyEEE26__swap_out_circular_bufferERNS_14__split_bufferIyRS2_EE, symObjAddr: 0x84580, symBinAddr: 0x100086BDC, symSize: 0x574 }
  - { offsetInCU: 0x5DE7B, offset: 0x5DE7B, size: 0x8, addend: 0x0, symName: __Z17test_order_routerR9TestSuite, symObjAddr: 0x1D88, symBinAddr: 0x1000043E4, symSize: 0x548 }
  - { offsetInCU: 0x5E5EE, offset: 0x5E5EE, size: 0x8, addend: 0x0, symName: __ZNKSt3__16chrono13__duration_ltINS0_8durationIxNS_5ratioILl1ELl1000000EEEEENS2_IeNS3_ILl1ELl1EEEEEEclB7v160006ERKS5_RKS7_, symObjAddr: 0xA7534, symBinAddr: 0x1000A9B90, symSize: 0x264 }
  - { offsetInCU: 0x5E674, offset: 0x5E674, size: 0x8, addend: 0x0, symName: __ZNKSt3__16chrono15__duration_castINS0_8durationIeNS_5ratioILl1ELl1EEEEENS2_IeNS3_ILl1ELl1000000EEEEENS3_ILl1000000ELl1EEELb0ELb1EEclB7v160006ERKS5_, symObjAddr: 0xA85BC, symBinAddr: 0x1000AAC18, symSize: 0x29C }
  - { offsetInCU: 0x5E6C1, offset: 0x5E6C1, size: 0x8, addend: 0x0, symName: __ZNKSt3__16chrono15__duration_castINS0_8durationIxNS_5ratioILl1ELl1000000EEEEENS2_IxNS3_ILl1ELl1000000000EEEEENS3_ILl1000ELl1EEELb0ELb1EEclB7v160006ERKS5_, symObjAddr: 0xA88B8, symBinAddr: 0x1000AAF14, symSize: 0x298 }
  - { offsetInCU: 0x5E70E, offset: 0x5E70E, size: 0x8, addend: 0x0, symName: __ZNKSt3__16chrono13__duration_ltINS0_8durationIxNS_5ratioILl1ELl1000000000EEEEENS2_IxNS3_ILl1ELl1000000EEEEEEclB7v160006ERKS5_RKS7_, symObjAddr: 0xA8C40, symBinAddr: 0x1000AB29C, symSize: 0x264 }
  - { offsetInCU: 0x5E761, offset: 0x5E761, size: 0x8, addend: 0x0, symName: __Z21test_position_trackerR9TestSuite, symObjAddr: 0x2354, symBinAddr: 0x1000049B0, symSize: 0x548 }
  - { offsetInCU: 0x5EA17, offset: 0x5EA17, size: 0x8, addend: 0x0, symName: __ZNSt3__16vectorIN4data12OpenPositionENS_9allocatorIS2_EEE26__swap_out_circular_bufferERNS_14__split_bufferIS2_RS4_EE, symObjAddr: 0xB1E04, symBinAddr: 0x1000B4460, symSize: 0x574 }
  - { offsetInCU: 0x5EF48, offset: 0x5EF48, size: 0x8, addend: 0x0, symName: __Z16test_full_engineR9TestSuite, symObjAddr: 0x2920, symBinAddr: 0x100004F7C, symSize: 0x548 }
  - { offsetInCU: 0x60F10, offset: 0x60F10, size: 0x8, addend: 0x0, symName: __ZNKSt3__16chrono13__duration_ltINS0_8durationIxNS_5ratioILl1ELl1EEEEENS2_IeS4_EEEclB7v160006ERKS5_RKS6_, symObjAddr: 0xEE404, symBinAddr: 0x1000F0A60, symSize: 0x268 }
  - { offsetInCU: 0x60F6E, offset: 0x60F6E, size: 0x8, addend: 0x0, symName: __ZNKSt3__16chrono15__duration_castINS0_8durationIxNS_5ratioILl1ELl1EEEEENS2_IxNS3_ILl1ELl1000000000EEEEENS3_ILl1000000000ELl1EEELb0ELb1EEclB7v160006ERKS5_, symObjAddr: 0xEEF10, symBinAddr: 0x1000F156C, symSize: 0x29C }
  - { offsetInCU: 0x60FBB, offset: 0x60FBB, size: 0x8, addend: 0x0, symName: __ZNKSt3__16chrono13__duration_ltINS0_8durationIxNS_5ratioILl1ELl1000000000EEEEENS2_IxNS3_ILl1ELl1EEEEEEclB7v160006ERKS5_RKS7_, symObjAddr: 0xEF1AC, symBinAddr: 0x1000F1808, symSize: 0x264 }
  - { offsetInCU: 0x61019, offset: 0x61019, size: 0x8, addend: 0x0, symName: __ZNKSt3__16chrono13__duration_ltINS0_8durationIxNS_5ratioILl1ELl1000EEEEENS2_IeNS3_ILl1ELl1EEEEEEclB7v160006ERKS5_RKS7_, symObjAddr: 0xF041C, symBinAddr: 0x1000F2A78, symSize: 0x264 }
  - { offsetInCU: 0x6109F, offset: 0x6109F, size: 0x8, addend: 0x0, symName: __ZNKSt3__16chrono15__duration_castINS0_8durationIeNS_5ratioILl1ELl1EEEEENS2_IeNS3_ILl1ELl1000EEEEENS3_ILl1000ELl1EEELb0ELb1EEclB7v160006ERKS5_, symObjAddr: 0xF14A4, symBinAddr: 0x1000F3B00, symSize: 0x29C }
  - { offsetInCU: 0x610EC, offset: 0x610EC, size: 0x8, addend: 0x0, symName: __ZNKSt3__16chrono15__duration_castINS0_8durationIxNS_5ratioILl1ELl1000EEEEENS2_IxNS3_ILl1ELl1000000000EEEEENS3_ILl1000000ELl1EEELb0ELb1EEclB7v160006ERKS5_, symObjAddr: 0xF1740, symBinAddr: 0x1000F3D9C, symSize: 0x29C }
  - { offsetInCU: 0x61139, offset: 0x61139, size: 0x8, addend: 0x0, symName: __ZNKSt3__16chrono13__duration_ltINS0_8durationIxNS_5ratioILl1ELl1000000000EEEEENS2_IxNS3_ILl1ELl1000EEEEEEclB7v160006ERKS5_RKS7_, symObjAddr: 0xF19DC, symBinAddr: 0x1000F4038, symSize: 0x264 }
  - { offsetInCU: 0x61616, offset: 0x61616, size: 0x8, addend: 0x0, symName: __Z23test_latency_benchmarksR9TestSuite, symObjAddr: 0x2EEC, symBinAddr: 0x100005548, symSize: 0x430 }
  - { offsetInCU: 0x63498, offset: 0x63498, size: 0x8, addend: 0x0, symName: __Z7toloweri, symObjAddr: 0xD7830, symBinAddr: 0x1000D9E8C, symSize: 0x24 }
  - { offsetInCU: 0x63E7C, offset: 0x63E7C, size: 0x8, addend: 0x0, symName: __ZN9TestSuite4testERKNSt3__112basic_stringIcNS0_11char_traitsIcEENS0_9allocatorIcEEEENS0_8functionIFvvEEE, symObjAddr: 0x430, symBinAddr: 0x100002A8C, symSize: 0x2C4 }
  - { offsetInCU: 0x63ED6, offset: 0x63ED6, size: 0x8, addend: 0x0, symName: __ZNSt3__112basic_stringIcNS_11char_traitsIcEENS_9allocatorIcEEEC1B7v160006IDnEEPKc, symObjAddr: 0x6F4, symBinAddr: 0x100002D50, symSize: 0x34 }
  - { offsetInCU: 0x63F14, offset: 0x63F14, size: 0x8, addend: 0x0, symName: '__ZNSt3__18functionIFvvEEC1IZ16test_ring_bufferR9TestSuiteE3$_0vEET_', symObjAddr: 0x728, symBinAddr: 0x100002D84, symSize: 0x2C }
  - { offsetInCU: 0x63F59, offset: 0x63F59, size: 0x8, addend: 0x0, symName: __ZNSt3__18functionIFvvEED1Ev, symObjAddr: 0x754, symBinAddr: 0x100002DB0, symSize: 0x2C }
  - { offsetInCU: 0x63F85, offset: 0x63F85, size: 0x8, addend: 0x0, symName: '__ZNSt3__18functionIFvvEEC1IZ16test_ring_bufferR9TestSuiteE3$_1vEET_', symObjAddr: 0x780, symBinAddr: 0x100002DDC, symSize: 0x2C }
  - { offsetInCU: 0x63FCA, offset: 0x63FCA, size: 0x8, addend: 0x0, symName: '__ZNSt3__18functionIFvvEEC1IZ21test_order_book_cacheR9TestSuiteE3$_2vEET_', symObjAddr: 0xCF4, symBinAddr: 0x100003350, symSize: 0x2C }
  - { offsetInCU: 0x6400F, offset: 0x6400F, size: 0x8, addend: 0x0, symName: '__ZNSt3__18functionIFvvEEC1IZ21test_order_book_cacheR9TestSuiteE3$_3vEET_', symObjAddr: 0xD20, symBinAddr: 0x10000337C, symSize: 0x2C }
  - { offsetInCU: 0x64054, offset: 0x64054, size: 0x8, addend: 0x0, symName: '__ZNSt3__18functionIFvvEEC1IZ21test_order_book_cacheR9TestSuiteE3$_4vEET_', symObjAddr: 0xD4C, symBinAddr: 0x1000033A8, symSize: 0x2C }
  - { offsetInCU: 0x64099, offset: 0x64099, size: 0x8, addend: 0x0, symName: '__ZNSt3__18functionIFvvEEC1IZ22test_spread_calculatorR9TestSuiteE3$_5vEET_', symObjAddr: 0x11A8, symBinAddr: 0x100003804, symSize: 0x2C }
  - { offsetInCU: 0x640DE, offset: 0x640DE, size: 0x8, addend: 0x0, symName: '__ZNSt3__18functionIFvvEEC1IZ22test_spread_calculatorR9TestSuiteE3$_6vEET_', symObjAddr: 0x11D4, symBinAddr: 0x100003830, symSize: 0x2C }
  - { offsetInCU: 0x64123, offset: 0x64123, size: 0x8, addend: 0x0, symName: '__ZNSt3__18functionIFvvEEC1IZ21test_signal_generatorR9TestSuiteE3$_7vEET_', symObjAddr: 0x1630, symBinAddr: 0x100003C8C, symSize: 0x2C }
  - { offsetInCU: 0x64168, offset: 0x64168, size: 0x8, addend: 0x0, symName: '__ZNSt3__18functionIFvvEEC1IZ21test_signal_generatorR9TestSuiteE3$_8vEET_', symObjAddr: 0x165C, symBinAddr: 0x100003CB8, symSize: 0x2C }
  - { offsetInCU: 0x641AD, offset: 0x641AD, size: 0x8, addend: 0x0, symName: '__ZNSt3__18functionIFvvEEC1IZ17test_risk_managerR9TestSuiteE3$_9vEET_', symObjAddr: 0x1CD8, symBinAddr: 0x100004334, symSize: 0x2C }
  - { offsetInCU: 0x641F2, offset: 0x641F2, size: 0x8, addend: 0x0, symName: '__ZNSt3__18functionIFvvEEC1IZ17test_risk_managerR9TestSuiteE4$_10vEET_', symObjAddr: 0x1D04, symBinAddr: 0x100004360, symSize: 0x2C }
  - { offsetInCU: 0x64237, offset: 0x64237, size: 0x8, addend: 0x0, symName: '__ZNSt3__18functionIFvvEEC1IZ17test_risk_managerR9TestSuiteE4$_11vEET_', symObjAddr: 0x1D30, symBinAddr: 0x10000438C, symSize: 0x2C }
  - { offsetInCU: 0x6427C, offset: 0x6427C, size: 0x8, addend: 0x0, symName: '__ZNSt3__18functionIFvvEEC1IZ17test_risk_managerR9TestSuiteE4$_12vEET_', symObjAddr: 0x1D5C, symBinAddr: 0x1000043B8, symSize: 0x2C }
  - { offsetInCU: 0x642C1, offset: 0x642C1, size: 0x8, addend: 0x0, symName: '__ZNSt3__18functionIFvvEEC1IZ17test_order_routerR9TestSuiteE4$_13vEET_', symObjAddr: 0x22D0, symBinAddr: 0x10000492C, symSize: 0x2C }
  - { offsetInCU: 0x64306, offset: 0x64306, size: 0x8, addend: 0x0, symName: '__ZNSt3__18functionIFvvEEC1IZ17test_order_routerR9TestSuiteE4$_14vEET_', symObjAddr: 0x22FC, symBinAddr: 0x100004958, symSize: 0x2C }
  - { offsetInCU: 0x6434B, offset: 0x6434B, size: 0x8, addend: 0x0, symName: '__ZNSt3__18functionIFvvEEC1IZ17test_order_routerR9TestSuiteE4$_15vEET_', symObjAddr: 0x2328, symBinAddr: 0x100004984, symSize: 0x2C }
  - { offsetInCU: 0x64390, offset: 0x64390, size: 0x8, addend: 0x0, symName: '__ZNSt3__18functionIFvvEEC1IZ21test_position_trackerR9TestSuiteE4$_16vEET_', symObjAddr: 0x289C, symBinAddr: 0x100004EF8, symSize: 0x2C }
  - { offsetInCU: 0x643D5, offset: 0x643D5, size: 0x8, addend: 0x0, symName: '__ZNSt3__18functionIFvvEEC1IZ21test_position_trackerR9TestSuiteE4$_17vEET_', symObjAddr: 0x28C8, symBinAddr: 0x100004F24, symSize: 0x2C }
  - { offsetInCU: 0x6441A, offset: 0x6441A, size: 0x8, addend: 0x0, symName: '__ZNSt3__18functionIFvvEEC1IZ21test_position_trackerR9TestSuiteE4$_18vEET_', symObjAddr: 0x28F4, symBinAddr: 0x100004F50, symSize: 0x2C }
  - { offsetInCU: 0x6445F, offset: 0x6445F, size: 0x8, addend: 0x0, symName: '__ZNSt3__18functionIFvvEEC1IZ16test_full_engineR9TestSuiteE4$_19vEET_', symObjAddr: 0x2E68, symBinAddr: 0x1000054C4, symSize: 0x2C }
  - { offsetInCU: 0x644A4, offset: 0x644A4, size: 0x8, addend: 0x0, symName: '__ZNSt3__18functionIFvvEEC1IZ16test_full_engineR9TestSuiteE4$_20vEET_', symObjAddr: 0x2E94, symBinAddr: 0x1000054F0, symSize: 0x2C }
  - { offsetInCU: 0x644E9, offset: 0x644E9, size: 0x8, addend: 0x0, symName: '__ZNSt3__18functionIFvvEEC1IZ16test_full_engineR9TestSuiteE4$_21vEET_', symObjAddr: 0x2EC0, symBinAddr: 0x10000551C, symSize: 0x2C }
  - { offsetInCU: 0x6452E, offset: 0x6452E, size: 0x8, addend: 0x0, symName: '__ZNSt3__18functionIFvvEEC1IZ23test_latency_benchmarksR9TestSuiteE4$_22vEET_', symObjAddr: 0x331C, symBinAddr: 0x100005978, symSize: 0x2C }
  - { offsetInCU: 0x64573, offset: 0x64573, size: 0x8, addend: 0x0, symName: '__ZNSt3__18functionIFvvEEC1IZ23test_latency_benchmarksR9TestSuiteE4$_23vEET_', symObjAddr: 0x3348, symBinAddr: 0x1000059A4, symSize: 0x2C }
  - { offsetInCU: 0x645B8, offset: 0x645B8, size: 0x8, addend: 0x0, symName: _main, symObjAddr: 0x3374, symBinAddr: 0x1000059D0, symSize: 0x348 }
  - { offsetInCU: 0x645E7, offset: 0x645E7, size: 0x8, addend: 0x0, symName: __ZN9TestSuiteC1Ev, symObjAddr: 0x36BC, symBinAddr: 0x100005D18, symSize: 0x2C }
  - { offsetInCU: 0x64613, offset: 0x64613, size: 0x8, addend: 0x0, symName: __ZNSt3__113basic_ostreamIcNS_11char_traitsIcEEElsB7v160006EPFRS3_S4_E, symObjAddr: 0x3730, symBinAddr: 0x100005D8C, symSize: 0x2C }
  - { offsetInCU: 0x64648, offset: 0x64648, size: 0x8, addend: 0x0, symName: __ZN9TestSuite7summaryEv, symObjAddr: 0x3830, symBinAddr: 0x100005E8C, symSize: 0x25C }
  - { offsetInCU: 0x6467D, offset: 0x6467D, size: 0x8, addend: 0x0, symName: __ZNK9TestSuite8failuresEv, symObjAddr: 0x3A8C, symBinAddr: 0x1000060E8, symSize: 0x8C }
  - { offsetInCU: 0x646A3, offset: 0x646A3, size: 0x8, addend: 0x0, symName: __ZNKSt3__18functionIFvvEEclEv, symObjAddr: 0x3B18, symBinAddr: 0x100006174, symSize: 0x24 }
  - { offsetInCU: 0x646CB, offset: 0x646CB, size: 0x8, addend: 0x0, symName: __ZNKSt3__110__function12__value_funcIFvvEEclB7v160006Ev, symObjAddr: 0x3B94, symBinAddr: 0x1000061F0, symSize: 0x138 }
  - { offsetInCU: 0x646F7, offset: 0x646F7, size: 0x8, addend: 0x0, symName: __ZNSt3__117bad_function_callC1Ev, symObjAddr: 0x3D18, symBinAddr: 0x100006374, symSize: 0x2C }
  - { offsetInCU: 0x64723, offset: 0x64723, size: 0x8, addend: 0x0, symName: __ZNSt3__117bad_function_callD1Ev, symObjAddr: 0x3D44, symBinAddr: 0x1000063A0, symSize: 0x2C }
  - { offsetInCU: 0x6474D, offset: 0x6474D, size: 0x8, addend: 0x0, symName: __ZNSt3__117bad_function_callC2Ev, symObjAddr: 0x3D70, symBinAddr: 0x1000063CC, symSize: 0x84 }
  - { offsetInCU: 0x64779, offset: 0x64779, size: 0x8, addend: 0x0, symName: __ZNSt9exceptionC2B7v160006Ev, symObjAddr: 0x3DF4, symBinAddr: 0x100006450, symSize: 0x74 }
  - { offsetInCU: 0x647A3, offset: 0x647A3, size: 0x8, addend: 0x0, symName: __ZNSt3__117bad_function_callD0Ev, symObjAddr: 0x3E68, symBinAddr: 0x1000064C4, symSize: 0x30 }
  - { offsetInCU: 0x647CD, offset: 0x647CD, size: 0x8, addend: 0x0, symName: __ZNSt3__117bad_function_callD2Ev, symObjAddr: 0x3E98, symBinAddr: 0x1000064F4, symSize: 0x2C }
  - { offsetInCU: 0x647F7, offset: 0x647F7, size: 0x8, addend: 0x0, symName: __ZNKSt3__112basic_stringIcNS_11char_traitsIcEENS_9allocatorIcEEE4dataB7v160006Ev, symObjAddr: 0x4608, symBinAddr: 0x100006C64, symSize: 0x28 }
  - { offsetInCU: 0x6481D, offset: 0x6481D, size: 0x8, addend: 0x0, symName: __ZNKSt3__112basic_stringIcNS_11char_traitsIcEENS_9allocatorIcEEE4sizeB7v160006Ev, symObjAddr: 0x4630, symBinAddr: 0x100006C8C, symSize: 0x54 }
  - { offsetInCU: 0x64866, offset: 0x64866, size: 0x8, addend: 0x0, symName: __ZNKSt3__113basic_ostreamIcNS_11char_traitsIcEEE6sentrycvbB7v160006Ev, symObjAddr: 0x4684, symBinAddr: 0x100006CE0, symSize: 0x88 }
  - { offsetInCU: 0x6488C, offset: 0x6488C, size: 0x8, addend: 0x0, symName: __ZNSt3__119ostreambuf_iteratorIcNS_11char_traitsIcEEEC1B7v160006ERNS_13basic_ostreamIcS2_EE, symObjAddr: 0x4E6C, symBinAddr: 0x1000074C8, symSize: 0x34 }
  - { offsetInCU: 0x648C5, offset: 0x648C5, size: 0x8, addend: 0x0, symName: __ZNKSt3__18ios_base5flagsB7v160006Ev, symObjAddr: 0x4EA0, symBinAddr: 0x1000074FC, symSize: 0x8C }
  - { offsetInCU: 0x648ED, offset: 0x648ED, size: 0x8, addend: 0x0, symName: __ZNKSt3__19basic_iosIcNS_11char_traitsIcEEE4fillB7v160006Ev, symObjAddr: 0x4F2C, symBinAddr: 0x100007588, symSize: 0x198 }
  - { offsetInCU: 0x64915, offset: 0x64915, size: 0x8, addend: 0x0, symName: __ZNKSt3__119ostreambuf_iteratorIcNS_11char_traitsIcEEE6failedB7v160006Ev, symObjAddr: 0x50C4, symBinAddr: 0x100007720, symSize: 0x6C }
  - { offsetInCU: 0x6493B, offset: 0x6493B, size: 0x8, addend: 0x0, symName: __ZNSt3__19basic_iosIcNS_11char_traitsIcEEE8setstateB7v160006Ej, symObjAddr: 0x5130, symBinAddr: 0x10000778C, symSize: 0x2C }
  - { offsetInCU: 0x64970, offset: 0x64970, size: 0x8, addend: 0x0, symName: __ZNKSt3__18ios_base5widthB7v160006Ev, symObjAddr: 0x515C, symBinAddr: 0x1000077B8, symSize: 0x64 }
  - { offsetInCU: 0x64998, offset: 0x64998, size: 0x8, addend: 0x0, symName: __ZNSt3__115basic_streambufIcNS_11char_traitsIcEEE5sputnB7v160006EPKcl, symObjAddr: 0x51C0, symBinAddr: 0x10000781C, symSize: 0xC8 }
  - { offsetInCU: 0x649DC, offset: 0x649DC, size: 0x8, addend: 0x0, symName: __ZNSt3__112basic_stringIcNS_11char_traitsIcEENS_9allocatorIcEEEC1B7v160006Emc, symObjAddr: 0x5288, symBinAddr: 0x1000078E4, symSize: 0x3C }
  - { offsetInCU: 0x64A24, offset: 0x64A24, size: 0x8, addend: 0x0, symName: __ZNSt3__112basic_stringIcNS_11char_traitsIcEENS_9allocatorIcEEE4dataB7v160006Ev, symObjAddr: 0x52C4, symBinAddr: 0x100007920, symSize: 0x28 }
  - { offsetInCU: 0x64A4A, offset: 0x64A4A, size: 0x8, addend: 0x0, symName: __ZNSt3__18ios_base5widthB7v160006El, symObjAddr: 0x52EC, symBinAddr: 0x100007948, symSize: 0xB8 }
  - { offsetInCU: 0x64A90, offset: 0x64A90, size: 0x8, addend: 0x0, symName: __ZNSt3__112basic_stringIcNS_11char_traitsIcEENS_9allocatorIcEEEC2B7v160006Emc, symObjAddr: 0x53A4, symBinAddr: 0x100007A00, symSize: 0x20C }
  - { offsetInCU: 0x64AE1, offset: 0x64AE1, size: 0x8, addend: 0x0, symName: __ZNSt3__117__compressed_pairINS_12basic_stringIcNS_11char_traitsIcEENS_9allocatorIcEEE5__repES5_EC1B7v160006INS_18__default_init_tagESA_EEOT_OT0_, symObjAddr: 0x55B0, symBinAddr: 0x100007C0C, symSize: 0x3C }
  - { offsetInCU: 0x64B3B, offset: 0x64B3B, size: 0x8, addend: 0x0, symName: __ZNSt3__117__compressed_pairINS_12basic_stringIcNS_11char_traitsIcEENS_9allocatorIcEEE5__repES5_EC2B7v160006INS_18__default_init_tagESA_EEOT_OT0_, symObjAddr: 0x55FC, symBinAddr: 0x100007C58, symSize: 0x3C }
  - { offsetInCU: 0x64B95, offset: 0x64B95, size: 0x8, addend: 0x0, symName: __ZNSt3__122__compressed_pair_elemINS_12basic_stringIcNS_11char_traitsIcEENS_9allocatorIcEEE5__repELi0ELb0EEC2B7v160006ENS_18__default_init_tagE, symObjAddr: 0x5638, symBinAddr: 0x100007C94, symSize: 0x14 }
  - { offsetInCU: 0x64BC9, offset: 0x64BC9, size: 0x8, addend: 0x0, symName: __ZNSt3__122__compressed_pair_elemINS_9allocatorIcEELi1ELb1EEC2B7v160006ENS_18__default_init_tagE, symObjAddr: 0x564C, symBinAddr: 0x100007CA8, symSize: 0x2C }
  - { offsetInCU: 0x64BFD, offset: 0x64BFD, size: 0x8, addend: 0x0, symName: __ZNSt3__19allocatorIcEC2B7v160006Ev, symObjAddr: 0x5678, symBinAddr: 0x100007CD4, symSize: 0x2C }
  - { offsetInCU: 0x64C27, offset: 0x64C27, size: 0x8, addend: 0x0, symName: __ZNSt3__116__non_trivial_ifILb1ENS_9allocatorIcEEEC2B7v160006Ev, symObjAddr: 0x56A4, symBinAddr: 0x100007D00, symSize: 0x14 }
  - { offsetInCU: 0x64C51, offset: 0x64C51, size: 0x8, addend: 0x0, symName: __ZNSt3__112basic_stringIcNS_11char_traitsIcEENS_9allocatorIcEEE13__get_pointerB7v160006Ev, symObjAddr: 0x56CC, symBinAddr: 0x100007D28, symSize: 0x54 }
  - { offsetInCU: 0x64C77, offset: 0x64C77, size: 0x8, addend: 0x0, symName: __ZNKSt3__112basic_stringIcNS_11char_traitsIcEENS_9allocatorIcEEE9__is_longB7v160006Ev, symObjAddr: 0x5720, symBinAddr: 0x100007D7C, symSize: 0xA4 }
  - { offsetInCU: 0x64C9D, offset: 0x64C9D, size: 0x8, addend: 0x0, symName: __ZNSt3__112basic_stringIcNS_11char_traitsIcEENS_9allocatorIcEEE18__get_long_pointerB7v160006Ev, symObjAddr: 0x57C4, symBinAddr: 0x100007E20, symSize: 0x6C }
  - { offsetInCU: 0x64CC3, offset: 0x64CC3, size: 0x8, addend: 0x0, symName: __ZNSt3__112basic_stringIcNS_11char_traitsIcEENS_9allocatorIcEEE19__get_short_pointerB7v160006Ev, symObjAddr: 0x5830, symBinAddr: 0x100007E8C, symSize: 0x28 }
  - { offsetInCU: 0x64CE9, offset: 0x64CE9, size: 0x8, addend: 0x0, symName: __ZNKSt3__117__compressed_pairINS_12basic_stringIcNS_11char_traitsIcEENS_9allocatorIcEEE5__repES5_E5firstB7v160006Ev, symObjAddr: 0x5858, symBinAddr: 0x100007EB4, symSize: 0x24 }
  - { offsetInCU: 0x64D0F, offset: 0x64D0F, size: 0x8, addend: 0x0, symName: __ZNKSt3__122__compressed_pair_elemINS_12basic_stringIcNS_11char_traitsIcEENS_9allocatorIcEEE5__repELi0ELb0EE5__getB7v160006Ev, symObjAddr: 0x587C, symBinAddr: 0x100007ED8, symSize: 0x14 }
  - { offsetInCU: 0x64D35, offset: 0x64D35, size: 0x8, addend: 0x0, symName: __ZNSt3__117__compressed_pairINS_12basic_stringIcNS_11char_traitsIcEENS_9allocatorIcEEE5__repES5_E5firstB7v160006Ev, symObjAddr: 0x5890, symBinAddr: 0x100007EEC, symSize: 0x24 }
  - { offsetInCU: 0x64D5B, offset: 0x64D5B, size: 0x8, addend: 0x0, symName: __ZNSt3__122__compressed_pair_elemINS_12basic_stringIcNS_11char_traitsIcEENS_9allocatorIcEEE5__repELi0ELb0EE5__getB7v160006Ev, symObjAddr: 0x58B4, symBinAddr: 0x100007F10, symSize: 0x14 }
  - { offsetInCU: 0x64D81, offset: 0x64D81, size: 0x8, addend: 0x0, symName: __ZNSt3__114pointer_traitsIPcE10pointer_toB7v160006ERc, symObjAddr: 0x58C8, symBinAddr: 0x100007F24, symSize: 0x14 }
  - { offsetInCU: 0x64DA5, offset: 0x64DA5, size: 0x8, addend: 0x0, symName: __ZNSt3__119ostreambuf_iteratorIcNS_11char_traitsIcEEEC2B7v160006ERNS_13basic_ostreamIcS2_EE, symObjAddr: 0x58DC, symBinAddr: 0x100007F38, symSize: 0x10C }
  - { offsetInCU: 0x64DDE, offset: 0x64DDE, size: 0x8, addend: 0x0, symName: __ZNKSt3__19basic_iosIcNS_11char_traitsIcEEE5rdbufB7v160006Ev, symObjAddr: 0x59E8, symBinAddr: 0x100008044, symSize: 0x24 }
  - { offsetInCU: 0x64E06, offset: 0x64E06, size: 0x8, addend: 0x0, symName: __ZNKSt3__18ios_base5rdbufB7v160006Ev, symObjAddr: 0x5A0C, symBinAddr: 0x100008068, symSize: 0x64 }
  - { offsetInCU: 0x64E2C, offset: 0x64E2C, size: 0x8, addend: 0x0, symName: __ZNSt3__111char_traitsIcE11eq_int_typeEii, symObjAddr: 0x5A70, symBinAddr: 0x1000080CC, symSize: 0x28 }
  - { offsetInCU: 0x64E5F, offset: 0x64E5F, size: 0x8, addend: 0x0, symName: __ZNSt3__111char_traitsIcE3eofEv, symObjAddr: 0x5A98, symBinAddr: 0x1000080F4, symSize: 0x8 }
  - { offsetInCU: 0x64E73, offset: 0x64E73, size: 0x8, addend: 0x0, symName: __ZNKSt3__19basic_iosIcNS_11char_traitsIcEEE5widenB7v160006Ec, symObjAddr: 0x5AA0, symBinAddr: 0x1000080FC, symSize: 0x2A4 }
  - { offsetInCU: 0x64EE5, offset: 0x64EE5, size: 0x8, addend: 0x0, symName: __ZNKSt3__15ctypeIcE5widenB7v160006Ec, symObjAddr: 0x5D70, symBinAddr: 0x1000083CC, symSize: 0xBC }
  - { offsetInCU: 0x64F1A, offset: 0x64F1A, size: 0x8, addend: 0x0, symName: __ZNSt3__18ios_base8setstateB7v160006Ej, symObjAddr: 0x5E2C, symBinAddr: 0x100008488, symSize: 0x9C }
  - { offsetInCU: 0x64F51, offset: 0x64F51, size: 0x8, addend: 0x0, symName: __ZNKSt3__112basic_stringIcNS_11char_traitsIcEENS_9allocatorIcEEE13__get_pointerB7v160006Ev, symObjAddr: 0x5EDC, symBinAddr: 0x100008538, symSize: 0x54 }
  - { offsetInCU: 0x64F77, offset: 0x64F77, size: 0x8, addend: 0x0, symName: __ZNKSt3__112basic_stringIcNS_11char_traitsIcEENS_9allocatorIcEEE18__get_long_pointerB7v160006Ev, symObjAddr: 0x5F30, symBinAddr: 0x10000858C, symSize: 0x6C }
  - { offsetInCU: 0x64F9D, offset: 0x64F9D, size: 0x8, addend: 0x0, symName: __ZNKSt3__112basic_stringIcNS_11char_traitsIcEENS_9allocatorIcEEE19__get_short_pointerB7v160006Ev, symObjAddr: 0x5F9C, symBinAddr: 0x1000085F8, symSize: 0x28 }
  - { offsetInCU: 0x64FC3, offset: 0x64FC3, size: 0x8, addend: 0x0, symName: __ZNSt3__114pointer_traitsIPKcE10pointer_toB7v160006ERS1_, symObjAddr: 0x5FC4, symBinAddr: 0x100008620, symSize: 0x14 }
  - { offsetInCU: 0x64FE7, offset: 0x64FE7, size: 0x8, addend: 0x0, symName: __ZNKSt3__112basic_stringIcNS_11char_traitsIcEENS_9allocatorIcEEE15__get_long_sizeB7v160006Ev, symObjAddr: 0x5FD8, symBinAddr: 0x100008634, symSize: 0x70 }
  - { offsetInCU: 0x6500D, offset: 0x6500D, size: 0x8, addend: 0x0, symName: __ZNKSt3__112basic_stringIcNS_11char_traitsIcEENS_9allocatorIcEEE16__get_short_sizeB7v160006Ev, symObjAddr: 0x6048, symBinAddr: 0x1000086A4, symSize: 0xA0 }
  - { offsetInCU: 0x65033, offset: 0x65033, size: 0x8, addend: 0x0, symName: __ZNSt3__112basic_stringIcNS_11char_traitsIcEENS_9allocatorIcEEEC2B7v160006IDnEEPKc, symObjAddr: 0x60E8, symBinAddr: 0x100008744, symSize: 0x218 }
  - { offsetInCU: 0x65073, offset: 0x65073, size: 0x8, addend: 0x0, symName: __ZNSt3__111char_traitsIcE6lengthEPKc, symObjAddr: 0x6300, symBinAddr: 0x10000895C, symSize: 0x40 }
  - { offsetInCU: 0x65097, offset: 0x65097, size: 0x8, addend: 0x0, symName: __ZN9TestSuiteC2Ev, symObjAddr: 0x6364, symBinAddr: 0x1000089C0, symSize: 0xEC }
  - { offsetInCU: 0x650C3, offset: 0x650C3, size: 0x8, addend: 0x0, symName: '__ZNSt3__18functionIFvvEEC2IZ16test_ring_bufferR9TestSuiteE3$_0vEET_', symObjAddr: 0x6450, symBinAddr: 0x100008AAC, symSize: 0x1BC }
  - { offsetInCU: 0x6510D, offset: 0x6510D, size: 0x8, addend: 0x0, symName: '__ZNSt3__110__function12__value_funcIFvvEEC1B7v160006IZ16test_ring_bufferR9TestSuiteE3$_0vEEOT_', symObjAddr: 0x660C, symBinAddr: 0x100008C68, symSize: 0x1F8 }
  - { offsetInCU: 0x65152, offset: 0x65152, size: 0x8, addend: 0x0, symName: '__ZNSt3__19allocatorIZ16test_ring_bufferR9TestSuiteE3$_0EC1B7v160006Ev', symObjAddr: 0x6804, symBinAddr: 0x100008E60, symSize: 0x2C }
  - { offsetInCU: 0x6517C, offset: 0x6517C, size: 0x8, addend: 0x0, symName: '__ZNSt3__110__function12__value_funcIFvvEEC1B7v160006IZ16test_ring_bufferR9TestSuiteE3$_0NS_9allocatorIS7_EEEEOT_RKT0_', symObjAddr: 0x6830, symBinAddr: 0x100008E8C, symSize: 0x3C }
  - { offsetInCU: 0x651D6, offset: 0x651D6, size: 0x8, addend: 0x0, symName: '__ZNSt3__19allocatorIZ16test_ring_bufferR9TestSuiteE3$_0EC2B7v160006Ev', symObjAddr: 0x686C, symBinAddr: 0x100008EC8, symSize: 0x2C }
  - { offsetInCU: 0x65200, offset: 0x65200, size: 0x8, addend: 0x0, symName: '__ZNSt3__116__non_trivial_ifILb1ENS_9allocatorIZ16test_ring_bufferR9TestSuiteE3$_0EEEC2B7v160006Ev', symObjAddr: 0x6898, symBinAddr: 0x100008EF4, symSize: 0x14 }
  - { offsetInCU: 0x6522A, offset: 0x6522A, size: 0x8, addend: 0x0, symName: '__ZNSt3__110__function12__value_funcIFvvEEC2B7v160006IZ16test_ring_bufferR9TestSuiteE3$_0NS_9allocatorIS7_EEEEOT_RKT0_', symObjAddr: 0x68AC, symBinAddr: 0x100008F08, symSize: 0x2D0 }
  - { offsetInCU: 0x652B8, offset: 0x652B8, size: 0x8, addend: 0x0, symName: '__ZNSt3__19allocatorINS_10__function6__funcIZ16test_ring_bufferR9TestSuiteE3$_0NS0_IS5_EEFvvEEEEC1B7v160006IS5_EERKNS0_IT_EE', symObjAddr: 0x6B94, symBinAddr: 0x1000091F0, symSize: 0x34 }
  - { offsetInCU: 0x65300, offset: 0x65300, size: 0x8, addend: 0x0, symName: '__ZNSt3__19allocatorIZ16test_ring_bufferR9TestSuiteE3$_0EC1B7v160006INS_10__function6__funcIS3_S4_FvvEEEEERKNS0_IT_EE', symObjAddr: 0x6BC8, symBinAddr: 0x100009224, symSize: 0x34 }
  - { offsetInCU: 0x6533D, offset: 0x6533D, size: 0x8, addend: 0x0, symName: '__ZNSt3__110__function6__funcIZ16test_ring_bufferR9TestSuiteE3$_0NS_9allocatorIS4_EEFvvEEC1B7v160006EOS4_OS6_', symObjAddr: 0x6BFC, symBinAddr: 0x100009258, symSize: 0x3C }
  - { offsetInCU: 0x65385, offset: 0x65385, size: 0x8, addend: 0x0, symName: '__ZNSt3__19allocatorINS_10__function6__funcIZ16test_ring_bufferR9TestSuiteE3$_0NS0_IS5_EEFvvEEEEC2B7v160006IS5_EERKNS0_IT_EE', symObjAddr: 0x6C38, symBinAddr: 0x100009294, symSize: 0x30 }
  - { offsetInCU: 0x653C2, offset: 0x653C2, size: 0x8, addend: 0x0, symName: '__ZNSt3__116__non_trivial_ifILb1ENS_9allocatorINS_10__function6__funcIZ16test_ring_bufferR9TestSuiteE3$_0NS1_IS6_EEFvvEEEEEEC2B7v160006Ev', symObjAddr: 0x6C68, symBinAddr: 0x1000092C4, symSize: 0x14 }
  - { offsetInCU: 0x653EC, offset: 0x653EC, size: 0x8, addend: 0x0, symName: '__ZNSt3__19allocatorIZ16test_ring_bufferR9TestSuiteE3$_0EC2B7v160006INS_10__function6__funcIS3_S4_FvvEEEEERKNS0_IT_EE', symObjAddr: 0x6C7C, symBinAddr: 0x1000092D8, symSize: 0x30 }
  - { offsetInCU: 0x65429, offset: 0x65429, size: 0x8, addend: 0x0, symName: '__ZNSt3__110__function6__funcIZ16test_ring_bufferR9TestSuiteE3$_0NS_9allocatorIS4_EEFvvEEC2B7v160006EOS4_OS6_', symObjAddr: 0x6CAC, symBinAddr: 0x100009308, symSize: 0xC8 }
  - { offsetInCU: 0x65471, offset: 0x65471, size: 0x8, addend: 0x0, symName: __ZNSt3__110__function6__baseIFvvEEC2B7v160006Ev, symObjAddr: 0x6D74, symBinAddr: 0x1000093D0, symSize: 0x74 }
  - { offsetInCU: 0x6549B, offset: 0x6549B, size: 0x8, addend: 0x0, symName: '__ZNSt3__110__function12__alloc_funcIZ16test_ring_bufferR9TestSuiteE3$_0NS_9allocatorIS4_EEFvvEEC1B7v160006EOS4_OS6_', symObjAddr: 0x6DE8, symBinAddr: 0x100009444, symSize: 0x3C }
  - { offsetInCU: 0x654E3, offset: 0x654E3, size: 0x8, addend: 0x0, symName: __ZNSt3__110__function6__baseIFvvEED2Ev, symObjAddr: 0x6E24, symBinAddr: 0x100009480, symSize: 0x14 }
  - { offsetInCU: 0x6550D, offset: 0x6550D, size: 0x8, addend: 0x0, symName: '__ZNSt3__110__function6__funcIZ16test_ring_bufferR9TestSuiteE3$_0NS_9allocatorIS4_EEFvvEED1Ev', symObjAddr: 0x6E38, symBinAddr: 0x100009494, symSize: 0x2C }
  - { offsetInCU: 0x6553A, offset: 0x6553A, size: 0x8, addend: 0x0, symName: '__ZNSt3__110__function6__funcIZ16test_ring_bufferR9TestSuiteE3$_0NS_9allocatorIS4_EEFvvEED0Ev', symObjAddr: 0x6E64, symBinAddr: 0x1000094C0, symSize: 0x30 }
  - { offsetInCU: 0x65567, offset: 0x65567, size: 0x8, addend: 0x0, symName: '__ZNKSt3__110__function6__funcIZ16test_ring_bufferR9TestSuiteE3$_0NS_9allocatorIS4_EEFvvEE7__cloneEv', symObjAddr: 0x6E94, symBinAddr: 0x1000094F0, symSize: 0x448 }
  - { offsetInCU: 0x655C2, offset: 0x655C2, size: 0x8, addend: 0x0, symName: '__ZNKSt3__110__function6__funcIZ16test_ring_bufferR9TestSuiteE3$_0NS_9allocatorIS4_EEFvvEE7__cloneEPNS0_6__baseIS7_EE', symObjAddr: 0x72DC, symBinAddr: 0x100009938, symSize: 0x58 }
  - { offsetInCU: 0x655F9, offset: 0x655F9, size: 0x8, addend: 0x0, symName: '__ZNSt3__110__function6__funcIZ16test_ring_bufferR9TestSuiteE3$_0NS_9allocatorIS4_EEFvvEE7destroyEv', symObjAddr: 0x7334, symBinAddr: 0x100009990, symSize: 0x28 }
  - { offsetInCU: 0x65621, offset: 0x65621, size: 0x8, addend: 0x0, symName: '__ZNSt3__110__function6__funcIZ16test_ring_bufferR9TestSuiteE3$_0NS_9allocatorIS4_EEFvvEE18destroy_deallocateEv', symObjAddr: 0x735C, symBinAddr: 0x1000099B8, symSize: 0x204 }
  - { offsetInCU: 0x65669, offset: 0x65669, size: 0x8, addend: 0x0, symName: '__ZNSt3__110__function6__funcIZ16test_ring_bufferR9TestSuiteE3$_0NS_9allocatorIS4_EEFvvEEclEv', symObjAddr: 0x7560, symBinAddr: 0x100009BBC, symSize: 0x28 }
  - { offsetInCU: 0x65691, offset: 0x65691, size: 0x8, addend: 0x0, symName: '__ZNKSt3__110__function6__funcIZ16test_ring_bufferR9TestSuiteE3$_0NS_9allocatorIS4_EEFvvEE6targetERKSt9type_info', symObjAddr: 0x7588, symBinAddr: 0x100009BE4, symSize: 0x60 }
  - { offsetInCU: 0x656C8, offset: 0x656C8, size: 0x8, addend: 0x0, symName: '__ZNKSt3__110__function6__funcIZ16test_ring_bufferR9TestSuiteE3$_0NS_9allocatorIS4_EEFvvEE11target_typeEv', symObjAddr: 0x75E8, symBinAddr: 0x100009C44, symSize: 0x18 }
  - { offsetInCU: 0x656F0, offset: 0x656F0, size: 0x8, addend: 0x0, symName: __ZNSt3__110__function6__baseIFvvEED1Ev, symObjAddr: 0x7600, symBinAddr: 0x100009C5C, symSize: 0x20 }
  - { offsetInCU: 0x6571A, offset: 0x6571A, size: 0x8, addend: 0x0, symName: __ZNSt3__110__function6__baseIFvvEED0Ev, symObjAddr: 0x7620, symBinAddr: 0x100009C7C, symSize: 0x18 }
  - { offsetInCU: 0x65744, offset: 0x65744, size: 0x8, addend: 0x0, symName: '__ZNSt3__110__function12__alloc_funcIZ16test_ring_bufferR9TestSuiteE3$_0NS_9allocatorIS4_EEFvvEEC2B7v160006EOS4_OS6_', symObjAddr: 0x7638, symBinAddr: 0x100009C94, symSize: 0x314 }
  - { offsetInCU: 0x6578F, offset: 0x6578F, size: 0x8, addend: 0x0, symName: '__ZNSt3__117__compressed_pairIZ16test_ring_bufferR9TestSuiteE3$_0NS_9allocatorIS3_EEEC1B7v160006IJOS3_EJOS5_EEENS_21piecewise_construct_tENS_5tupleIJDpT_EEENSB_IJDpT0_EEE', symObjAddr: 0x7D3C, symBinAddr: 0x10000A398, symSize: 0x2FC }
  - { offsetInCU: 0x65806, offset: 0x65806, size: 0x8, addend: 0x0, symName: '__ZNSt3__15tupleIJOZ16test_ring_bufferR9TestSuiteE3$_0EEC1B7v160006IJS3_ELi0EEEDpOT_', symObjAddr: 0x8038, symBinAddr: 0x10000A694, symSize: 0x34 }
  - { offsetInCU: 0x65850, offset: 0x65850, size: 0x8, addend: 0x0, symName: '__ZNSt3__15tupleIJOZ16test_ring_bufferR9TestSuiteE3$_0EEC2B7v160006IJS3_ELi0EEEDpOT_', symObjAddr: 0x806C, symBinAddr: 0x10000A6C8, symSize: 0x34 }
  - { offsetInCU: 0x6589A, offset: 0x6589A, size: 0x8, addend: 0x0, symName: '__ZNSt3__112__tuple_implINS_15__tuple_indicesIJLm0EEEEJOZ16test_ring_bufferR9TestSuiteE3$_0EEC1B7v160006IJLm0EEJS6_EJEJEJS5_EEENS1_IJXspT_EEEENS_13__tuple_typesIJDpT0_EEENS1_IJXspT1_EEEENSA_IJDpT2_EEEDpOT3_', symObjAddr: 0x80A0, symBinAddr: 0x10000A6FC, symSize: 0x34 }
  - { offsetInCU: 0x6592F, offset: 0x6592F, size: 0x8, addend: 0x0, symName: '__ZNSt3__112__tuple_implINS_15__tuple_indicesIJLm0EEEEJOZ16test_ring_bufferR9TestSuiteE3$_0EEC2B7v160006IJLm0EEJS6_EJEJEJS5_EEENS1_IJXspT_EEEENS_13__tuple_typesIJDpT0_EEENS1_IJXspT1_EEEENSA_IJDpT2_EEEDpOT3_', symObjAddr: 0x80D4, symBinAddr: 0x10000A730, symSize: 0x34 }
  - { offsetInCU: 0x659C4, offset: 0x659C4, size: 0x8, addend: 0x0, symName: '__ZNSt3__112__tuple_leafILm0EOZ16test_ring_bufferR9TestSuiteE3$_0Lb0EEC2B7v160006IS3_vEEOT_', symObjAddr: 0x8108, symBinAddr: 0x10000A764, symSize: 0x70 }
  - { offsetInCU: 0x65A07, offset: 0x65A07, size: 0x8, addend: 0x0, symName: '__ZNSt3__15tupleIJONS_9allocatorIZ16test_ring_bufferR9TestSuiteE3$_0EEEEC1B7v160006IJS5_ELi0EEEDpOT_', symObjAddr: 0x8178, symBinAddr: 0x10000A7D4, symSize: 0x34 }
  - { offsetInCU: 0x65A51, offset: 0x65A51, size: 0x8, addend: 0x0, symName: '__ZNSt3__15tupleIJONS_9allocatorIZ16test_ring_bufferR9TestSuiteE3$_0EEEEC2B7v160006IJS5_ELi0EEEDpOT_', symObjAddr: 0x81AC, symBinAddr: 0x10000A808, symSize: 0x34 }
  - { offsetInCU: 0x65A9B, offset: 0x65A9B, size: 0x8, addend: 0x0, symName: '__ZNSt3__112__tuple_implINS_15__tuple_indicesIJLm0EEEEJONS_9allocatorIZ16test_ring_bufferR9TestSuiteE3$_0EEEEC1B7v160006IJLm0EEJS8_EJEJEJS7_EEENS1_IJXspT_EEEENS_13__tuple_typesIJDpT0_EEENS1_IJXspT1_EEEENSC_IJDpT2_EEEDpOT3_', symObjAddr: 0x81E0, symBinAddr: 0x10000A83C, symSize: 0x34 }
  - { offsetInCU: 0x65B30, offset: 0x65B30, size: 0x8, addend: 0x0, symName: '__ZNSt3__112__tuple_implINS_15__tuple_indicesIJLm0EEEEJONS_9allocatorIZ16test_ring_bufferR9TestSuiteE3$_0EEEEC2B7v160006IJLm0EEJS8_EJEJEJS7_EEENS1_IJXspT_EEEENS_13__tuple_typesIJDpT0_EEENS1_IJXspT1_EEEENSC_IJDpT2_EEEDpOT3_', symObjAddr: 0x8214, symBinAddr: 0x10000A870, symSize: 0x34 }
  - { offsetInCU: 0x65BC5, offset: 0x65BC5, size: 0x8, addend: 0x0, symName: '__ZNSt3__112__tuple_leafILm0EONS_9allocatorIZ16test_ring_bufferR9TestSuiteE3$_0EELb0EEC2B7v160006IS5_vEEOT_', symObjAddr: 0x8248, symBinAddr: 0x10000A8A4, symSize: 0x70 }
  - { offsetInCU: 0x65C08, offset: 0x65C08, size: 0x8, addend: 0x0, symName: '__ZNSt3__117__compressed_pairIZ16test_ring_bufferR9TestSuiteE3$_0NS_9allocatorIS3_EEEC2B7v160006IJOS3_EJOS5_EEENS_21piecewise_construct_tENS_5tupleIJDpT_EEENSB_IJDpT0_EEE', symObjAddr: 0x82B8, symBinAddr: 0x10000A914, symSize: 0x360 }
  - { offsetInCU: 0x65C7F, offset: 0x65C7F, size: 0x8, addend: 0x0, symName: '__ZNSt3__122__compressed_pair_elemIZ16test_ring_bufferR9TestSuiteE3$_0Li0ELb1EEC2B7v160006IJOS3_EJLm0EEEENS_21piecewise_construct_tENS_5tupleIJDpT_EEENS_15__tuple_indicesIJXspT0_EEEE', symObjAddr: 0x8618, symBinAddr: 0x10000AC74, symSize: 0x200 }
  - { offsetInCU: 0x65CEA, offset: 0x65CEA, size: 0x8, addend: 0x0, symName: '__ZNSt3__122__compressed_pair_elemINS_9allocatorIZ16test_ring_bufferR9TestSuiteE3$_0EELi1ELb1EEC2B7v160006IJOS5_EJLm0EEEENS_21piecewise_construct_tENS_5tupleIJDpT_EEENS_15__tuple_indicesIJXspT0_EEEE', symObjAddr: 0x8818, symBinAddr: 0x10000AE74, symSize: 0x200 }
  - { offsetInCU: 0x65D55, offset: 0x65D55, size: 0x8, addend: 0x0, symName: '__ZNSt3__112__tuple_leafILm0EOZ16test_ring_bufferR9TestSuiteE3$_0Lb0EE3getB7v160006Ev', symObjAddr: 0x8A3C, symBinAddr: 0x10000B098, symSize: 0x60 }
  - { offsetInCU: 0x65D7B, offset: 0x65D7B, size: 0x8, addend: 0x0, symName: '__ZNSt3__112__tuple_leafILm0EONS_9allocatorIZ16test_ring_bufferR9TestSuiteE3$_0EELb0EE3getB7v160006Ev', symObjAddr: 0x8AC0, symBinAddr: 0x10000B11C, symSize: 0x60 }
  - { offsetInCU: 0x65DA1, offset: 0x65DA1, size: 0x8, addend: 0x0, symName: '__ZNSt3__110__function6__funcIZ16test_ring_bufferR9TestSuiteE3$_0NS_9allocatorIS4_EEFvvEED2Ev', symObjAddr: 0x8B20, symBinAddr: 0x10000B17C, symSize: 0x2C }
  - { offsetInCU: 0x65DCE, offset: 0x65DCE, size: 0x8, addend: 0x0, symName: '__ZNKSt3__110__function12__alloc_funcIZ16test_ring_bufferR9TestSuiteE3$_0NS_9allocatorIS4_EEFvvEE15__get_allocatorB7v160006Ev', symObjAddr: 0x8B4C, symBinAddr: 0x10000B1A8, symSize: 0x24 }
  - { offsetInCU: 0x65DF4, offset: 0x65DF4, size: 0x8, addend: 0x0, symName: '__ZNSt3__19allocatorINS_10__function6__funcIZ16test_ring_bufferR9TestSuiteE3$_0NS0_IS5_EEFvvEEEE8allocateB7v160006Em', symObjAddr: 0x8B70, symBinAddr: 0x10000B1CC, symSize: 0x5C }
  - { offsetInCU: 0x65E3B, offset: 0x65E3B, size: 0x8, addend: 0x0, symName: '__ZNSt3__122__allocator_destructorINS_9allocatorINS_10__function6__funcIZ16test_ring_bufferR9TestSuiteE3$_0NS1_IS6_EEFvvEEEEEEC1B7v160006ERSA_m', symObjAddr: 0x8BCC, symBinAddr: 0x10000B228, symSize: 0x3C }
  - { offsetInCU: 0x65F2A, offset: 0x65F2A, size: 0x8, addend: 0x0, symName: '__ZNSt3__110unique_ptrINS_10__function6__funcIZ16test_ring_bufferR9TestSuiteE3$_0NS_9allocatorIS5_EEFvvEEENS_22__allocator_destructorINS6_IS9_EEEEEC1B7v160006ILb1EvEEPS9_NS_16__dependent_typeINS_27__unique_ptr_deleter_sfinaeISC_EEXT_EE20__good_rval_ref_typeE', symObjAddr: 0x8C08, symBinAddr: 0x10000B264, symSize: 0x3C }
  - { offsetInCU: 0x65F7D, offset: 0x65F7D, size: 0x8, addend: 0x0, symName: '__ZNKSt3__110unique_ptrINS_10__function6__funcIZ16test_ring_bufferR9TestSuiteE3$_0NS_9allocatorIS5_EEFvvEEENS_22__allocator_destructorINS6_IS9_EEEEE3getB7v160006Ev', symObjAddr: 0x8C44, symBinAddr: 0x10000B2A0, symSize: 0x6C }
  - { offsetInCU: 0x65FA3, offset: 0x65FA3, size: 0x8, addend: 0x0, symName: '__ZNKSt3__110__function12__alloc_funcIZ16test_ring_bufferR9TestSuiteE3$_0NS_9allocatorIS4_EEFvvEE8__targetB7v160006Ev', symObjAddr: 0x8CB0, symBinAddr: 0x10000B30C, symSize: 0x24 }
  - { offsetInCU: 0x65FC9, offset: 0x65FC9, size: 0x8, addend: 0x0, symName: '__ZNSt3__110__function6__funcIZ16test_ring_bufferR9TestSuiteE3$_0NS_9allocatorIS4_EEFvvEEC1B7v160006ERKS4_OS6_', symObjAddr: 0x8CD4, symBinAddr: 0x10000B330, symSize: 0x3C }
  - { offsetInCU: 0x66011, offset: 0x66011, size: 0x8, addend: 0x0, symName: '__ZNSt3__110unique_ptrINS_10__function6__funcIZ16test_ring_bufferR9TestSuiteE3$_0NS_9allocatorIS5_EEFvvEEENS_22__allocator_destructorINS6_IS9_EEEEE7releaseB7v160006Ev', symObjAddr: 0x8D10, symBinAddr: 0x10000B36C, symSize: 0xB8 }
  - { offsetInCU: 0x66046, offset: 0x66046, size: 0x8, addend: 0x0, symName: '__ZNSt3__110unique_ptrINS_10__function6__funcIZ16test_ring_bufferR9TestSuiteE3$_0NS_9allocatorIS5_EEFvvEEENS_22__allocator_destructorINS6_IS9_EEEEED1B7v160006Ev', symObjAddr: 0x8DC8, symBinAddr: 0x10000B424, symSize: 0x2C }
  - { offsetInCU: 0x66070, offset: 0x66070, size: 0x8, addend: 0x0, symName: '__ZNKSt3__117__compressed_pairIZ16test_ring_bufferR9TestSuiteE3$_0NS_9allocatorIS3_EEE6secondB7v160006Ev', symObjAddr: 0x8DF4, symBinAddr: 0x10000B450, symSize: 0x24 }
  - { offsetInCU: 0x66096, offset: 0x66096, size: 0x8, addend: 0x0, symName: '__ZNKSt3__122__compressed_pair_elemINS_9allocatorIZ16test_ring_bufferR9TestSuiteE3$_0EELi1ELb1EE5__getB7v160006Ev', symObjAddr: 0x8E18, symBinAddr: 0x10000B474, symSize: 0x14 }
  - { offsetInCU: 0x660C7, offset: 0x660C7, size: 0x8, addend: 0x0, symName: '__ZNSt3__116allocator_traitsINS_9allocatorINS_10__function6__funcIZ16test_ring_bufferR9TestSuiteE3$_0NS1_IS6_EEFvvEEEEEE8max_sizeB7v160006ISA_vvEEmRKSA_', symObjAddr: 0x8E2C, symBinAddr: 0x10000B488, symSize: 0x28 }
  - { offsetInCU: 0x660F3, offset: 0x660F3, size: 0x8, addend: 0x0, symName: __ZNSt3__114numeric_limitsImE3maxB7v160006Ev, symObjAddr: 0x8EEC, symBinAddr: 0x10000B548, symSize: 0x14 }
  - { offsetInCU: 0x66107, offset: 0x66107, size: 0x8, addend: 0x0, symName: __ZNSt3__123__libcpp_numeric_limitsImLb1EE3maxB7v160006Ev, symObjAddr: 0x8F00, symBinAddr: 0x10000B55C, symSize: 0x8 }
  - { offsetInCU: 0x6611B, offset: 0x6611B, size: 0x8, addend: 0x0, symName: '__ZNSt3__122__allocator_destructorINS_9allocatorINS_10__function6__funcIZ16test_ring_bufferR9TestSuiteE3$_0NS1_IS6_EEFvvEEEEEEC2B7v160006ERSA_m', symObjAddr: 0x8F78, symBinAddr: 0x10000B5D4, symSize: 0xBC }
  - { offsetInCU: 0x66163, offset: 0x66163, size: 0x8, addend: 0x0, symName: '__ZNSt3__110unique_ptrINS_10__function6__funcIZ16test_ring_bufferR9TestSuiteE3$_0NS_9allocatorIS5_EEFvvEEENS_22__allocator_destructorINS6_IS9_EEEEEC2B7v160006ILb1EvEEPS9_NS_16__dependent_typeINS_27__unique_ptr_deleter_sfinaeISC_EEXT_EE20__good_rval_ref_typeE', symObjAddr: 0x9034, symBinAddr: 0x10000B690, symSize: 0x21C }
  - { offsetInCU: 0x661BC, offset: 0x661BC, size: 0x8, addend: 0x0, symName: '__ZNSt3__117__compressed_pairIPNS_10__function6__funcIZ16test_ring_bufferR9TestSuiteE3$_0NS_9allocatorIS5_EEFvvEEENS_22__allocator_destructorINS6_IS9_EEEEEC1B7v160006IRSA_SD_EEOT_OT0_', symObjAddr: 0x9250, symBinAddr: 0x10000B8AC, symSize: 0x3C }
  - { offsetInCU: 0x66216, offset: 0x66216, size: 0x8, addend: 0x0, symName: '__ZNSt3__117__compressed_pairIPNS_10__function6__funcIZ16test_ring_bufferR9TestSuiteE3$_0NS_9allocatorIS5_EEFvvEEENS_22__allocator_destructorINS6_IS9_EEEEEC2B7v160006IRSA_SD_EEOT_OT0_', symObjAddr: 0x928C, symBinAddr: 0x10000B8E8, symSize: 0x48 }
  - { offsetInCU: 0x66270, offset: 0x66270, size: 0x8, addend: 0x0, symName: '__ZNSt3__122__compressed_pair_elemIPNS_10__function6__funcIZ16test_ring_bufferR9TestSuiteE3$_0NS_9allocatorIS5_EEFvvEEELi0ELb0EEC2B7v160006IRSA_vEEOT_', symObjAddr: 0x92D4, symBinAddr: 0x10000B930, symSize: 0xB0 }
  - { offsetInCU: 0x662B3, offset: 0x662B3, size: 0x8, addend: 0x0, symName: '__ZNSt3__122__compressed_pair_elemINS_22__allocator_destructorINS_9allocatorINS_10__function6__funcIZ16test_ring_bufferR9TestSuiteE3$_0NS2_IS7_EEFvvEEEEEEELi1ELb0EEC2B7v160006ISC_vEEOT_', symObjAddr: 0x9384, symBinAddr: 0x10000B9E0, symSize: 0x38 }
  - { offsetInCU: 0x662F6, offset: 0x662F6, size: 0x8, addend: 0x0, symName: '__ZNKSt3__117__compressed_pairIPNS_10__function6__funcIZ16test_ring_bufferR9TestSuiteE3$_0NS_9allocatorIS5_EEFvvEEENS_22__allocator_destructorINS6_IS9_EEEEE5firstB7v160006Ev', symObjAddr: 0x93BC, symBinAddr: 0x10000BA18, symSize: 0x24 }
  - { offsetInCU: 0x6631C, offset: 0x6631C, size: 0x8, addend: 0x0, symName: '__ZNKSt3__122__compressed_pair_elemIPNS_10__function6__funcIZ16test_ring_bufferR9TestSuiteE3$_0NS_9allocatorIS5_EEFvvEEELi0ELb0EE5__getB7v160006Ev', symObjAddr: 0x93E0, symBinAddr: 0x10000BA3C, symSize: 0x14 }
  - { offsetInCU: 0x66342, offset: 0x66342, size: 0x8, addend: 0x0, symName: '__ZNKSt3__117__compressed_pairIZ16test_ring_bufferR9TestSuiteE3$_0NS_9allocatorIS3_EEE5firstB7v160006Ev', symObjAddr: 0x93F4, symBinAddr: 0x10000BA50, symSize: 0x24 }
  - { offsetInCU: 0x66368, offset: 0x66368, size: 0x8, addend: 0x0, symName: '__ZNKSt3__122__compressed_pair_elemIZ16test_ring_bufferR9TestSuiteE3$_0Li0ELb1EE5__getB7v160006Ev', symObjAddr: 0x9418, symBinAddr: 0x10000BA74, symSize: 0x14 }
  - { offsetInCU: 0x6638E, offset: 0x6638E, size: 0x8, addend: 0x0, symName: '__ZNSt3__110__function6__funcIZ16test_ring_bufferR9TestSuiteE3$_0NS_9allocatorIS4_EEFvvEEC2B7v160006ERKS4_OS6_', symObjAddr: 0x942C, symBinAddr: 0x10000BA88, symSize: 0xC8 }
  - { offsetInCU: 0x663D6, offset: 0x663D6, size: 0x8, addend: 0x0, symName: '__ZNSt3__110__function12__alloc_funcIZ16test_ring_bufferR9TestSuiteE3$_0NS_9allocatorIS4_EEFvvEEC1B7v160006ERKS4_OS6_', symObjAddr: 0x94F4, symBinAddr: 0x10000BB50, symSize: 0x3C }
  - { offsetInCU: 0x6641E, offset: 0x6641E, size: 0x8, addend: 0x0, symName: '__ZNSt3__110__function12__alloc_funcIZ16test_ring_bufferR9TestSuiteE3$_0NS_9allocatorIS4_EEFvvEEC2B7v160006ERKS4_OS6_', symObjAddr: 0x9530, symBinAddr: 0x10000BB8C, symSize: 0x314 }
  - { offsetInCU: 0x66469, offset: 0x66469, size: 0x8, addend: 0x0, symName: '__ZNSt3__117__compressed_pairIZ16test_ring_bufferR9TestSuiteE3$_0NS_9allocatorIS3_EEEC1B7v160006IJRKS3_EJOS5_EEENS_21piecewise_construct_tENS_5tupleIJDpT_EEENSC_IJDpT0_EEE', symObjAddr: 0x9A3C, symBinAddr: 0x10000C098, symSize: 0x2FC }
  - { offsetInCU: 0x664E0, offset: 0x664E0, size: 0x8, addend: 0x0, symName: '__ZNSt3__15tupleIJRKZ16test_ring_bufferR9TestSuiteE3$_0EEC1B7v160006INS_4_AndELi0EEES5_', symObjAddr: 0x9D38, symBinAddr: 0x10000C394, symSize: 0x34 }
  - { offsetInCU: 0x66528, offset: 0x66528, size: 0x8, addend: 0x0, symName: '__ZNSt3__15tupleIJRKZ16test_ring_bufferR9TestSuiteE3$_0EEC2B7v160006INS_4_AndELi0EEES5_', symObjAddr: 0x9D6C, symBinAddr: 0x10000C3C8, symSize: 0x34 }
  - { offsetInCU: 0x66570, offset: 0x66570, size: 0x8, addend: 0x0, symName: '__ZNSt3__112__tuple_implINS_15__tuple_indicesIJLm0EEEEJRKZ16test_ring_bufferR9TestSuiteE3$_0EEC1B7v160006IJLm0EEJS7_EJEJEJS7_EEENS1_IJXspT_EEEENS_13__tuple_typesIJDpT0_EEENS1_IJXspT1_EEEENSB_IJDpT2_EEEDpOT3_', symObjAddr: 0x9DA0, symBinAddr: 0x10000C3FC, symSize: 0x34 }
  - { offsetInCU: 0x66605, offset: 0x66605, size: 0x8, addend: 0x0, symName: '__ZNSt3__112__tuple_implINS_15__tuple_indicesIJLm0EEEEJRKZ16test_ring_bufferR9TestSuiteE3$_0EEC2B7v160006IJLm0EEJS7_EJEJEJS7_EEENS1_IJXspT_EEEENS_13__tuple_typesIJDpT0_EEENS1_IJXspT1_EEEENSB_IJDpT2_EEEDpOT3_', symObjAddr: 0x9DD4, symBinAddr: 0x10000C430, symSize: 0x34 }
  - { offsetInCU: 0x6669A, offset: 0x6669A, size: 0x8, addend: 0x0, symName: '__ZNSt3__112__tuple_leafILm0ERKZ16test_ring_bufferR9TestSuiteE3$_0Lb0EEC2B7v160006IS5_vEEOT_', symObjAddr: 0x9E08, symBinAddr: 0x10000C464, symSize: 0x70 }
  - { offsetInCU: 0x666DD, offset: 0x666DD, size: 0x8, addend: 0x0, symName: '__ZNSt3__117__compressed_pairIZ16test_ring_bufferR9TestSuiteE3$_0NS_9allocatorIS3_EEEC2B7v160006IJRKS3_EJOS5_EEENS_21piecewise_construct_tENS_5tupleIJDpT_EEENSC_IJDpT0_EEE', symObjAddr: 0x9E78, symBinAddr: 0x10000C4D4, symSize: 0x360 }
  - { offsetInCU: 0x66754, offset: 0x66754, size: 0x8, addend: 0x0, symName: '__ZNSt3__122__compressed_pair_elemIZ16test_ring_bufferR9TestSuiteE3$_0Li0ELb1EEC2B7v160006IJRKS3_EJLm0EEEENS_21piecewise_construct_tENS_5tupleIJDpT_EEENS_15__tuple_indicesIJXspT0_EEEE', symObjAddr: 0xA1D8, symBinAddr: 0x10000C834, symSize: 0x200 }
  - { offsetInCU: 0x667BF, offset: 0x667BF, size: 0x8, addend: 0x0, symName: '__ZNSt3__112__tuple_leafILm0ERKZ16test_ring_bufferR9TestSuiteE3$_0Lb0EE3getB7v160006Ev', symObjAddr: 0xA3FC, symBinAddr: 0x10000CA58, symSize: 0x60 }
  - { offsetInCU: 0x667E5, offset: 0x667E5, size: 0x8, addend: 0x0, symName: '__ZNSt3__117__compressed_pairIPNS_10__function6__funcIZ16test_ring_bufferR9TestSuiteE3$_0NS_9allocatorIS5_EEFvvEEENS_22__allocator_destructorINS6_IS9_EEEEE5firstB7v160006Ev', symObjAddr: 0xA45C, symBinAddr: 0x10000CAB8, symSize: 0x24 }
  - { offsetInCU: 0x6680B, offset: 0x6680B, size: 0x8, addend: 0x0, symName: '__ZNSt3__122__compressed_pair_elemIPNS_10__function6__funcIZ16test_ring_bufferR9TestSuiteE3$_0NS_9allocatorIS5_EEFvvEEELi0ELb0EE5__getB7v160006Ev', symObjAddr: 0xA480, symBinAddr: 0x10000CADC, symSize: 0x14 }
  - { offsetInCU: 0x66831, offset: 0x66831, size: 0x8, addend: 0x0, symName: '__ZNSt3__110unique_ptrINS_10__function6__funcIZ16test_ring_bufferR9TestSuiteE3$_0NS_9allocatorIS5_EEFvvEEENS_22__allocator_destructorINS6_IS9_EEEEED2B7v160006Ev', symObjAddr: 0xA494, symBinAddr: 0x10000CAF0, symSize: 0x30 }
  - { offsetInCU: 0x6685B, offset: 0x6685B, size: 0x8, addend: 0x0, symName: '__ZNSt3__110unique_ptrINS_10__function6__funcIZ16test_ring_bufferR9TestSuiteE3$_0NS_9allocatorIS5_EEFvvEEENS_22__allocator_destructorINS6_IS9_EEEEE5resetB7v160006EPS9_', symObjAddr: 0xA4C4, symBinAddr: 0x10000CB20, symSize: 0xEC }
  - { offsetInCU: 0x6689F, offset: 0x6689F, size: 0x8, addend: 0x0, symName: '__ZNSt3__117__compressed_pairIPNS_10__function6__funcIZ16test_ring_bufferR9TestSuiteE3$_0NS_9allocatorIS5_EEFvvEEENS_22__allocator_destructorINS6_IS9_EEEEE6secondB7v160006Ev', symObjAddr: 0xA5B0, symBinAddr: 0x10000CC0C, symSize: 0x28 }
  - { offsetInCU: 0x668C5, offset: 0x668C5, size: 0x8, addend: 0x0, symName: '__ZNSt3__122__allocator_destructorINS_9allocatorINS_10__function6__funcIZ16test_ring_bufferR9TestSuiteE3$_0NS1_IS6_EEFvvEEEEEEclB7v160006EPS9_', symObjAddr: 0xA5D8, symBinAddr: 0x10000CC34, symSize: 0xB8 }
  - { offsetInCU: 0x668FA, offset: 0x668FA, size: 0x8, addend: 0x0, symName: '__ZNSt3__122__compressed_pair_elemINS_22__allocator_destructorINS_9allocatorINS_10__function6__funcIZ16test_ring_bufferR9TestSuiteE3$_0NS2_IS7_EEFvvEEEEEEELi1ELb0EE5__getB7v160006Ev', symObjAddr: 0xA690, symBinAddr: 0x10000CCEC, symSize: 0x14 }
  - { offsetInCU: 0x66920, offset: 0x66920, size: 0x8, addend: 0x0, symName: '__ZNSt3__116allocator_traitsINS_9allocatorINS_10__function6__funcIZ16test_ring_bufferR9TestSuiteE3$_0NS1_IS6_EEFvvEEEEEE10deallocateB7v160006ERSA_PS9_m', symObjAddr: 0xA6A4, symBinAddr: 0x10000CD00, symSize: 0x34 }
  - { offsetInCU: 0x66962, offset: 0x66962, size: 0x8, addend: 0x0, symName: '__ZNSt3__19allocatorINS_10__function6__funcIZ16test_ring_bufferR9TestSuiteE3$_0NS0_IS5_EEFvvEEEE10deallocateB7v160006EPS8_m', symObjAddr: 0xA6D8, symBinAddr: 0x10000CD34, symSize: 0x4C }
  - { offsetInCU: 0x669A6, offset: 0x669A6, size: 0x8, addend: 0x0, symName: '__ZNSt3__110__function6__funcIZ16test_ring_bufferR9TestSuiteE3$_0NS_9allocatorIS4_EEFvvEEC1B7v160006ERKS4_RKS6_', symObjAddr: 0xA82C, symBinAddr: 0x10000CE88, symSize: 0x3C }
  - { offsetInCU: 0x669EE, offset: 0x669EE, size: 0x8, addend: 0x0, symName: '__ZNSt3__110__function6__funcIZ16test_ring_bufferR9TestSuiteE3$_0NS_9allocatorIS4_EEFvvEEC2B7v160006ERKS4_RKS6_', symObjAddr: 0xA868, symBinAddr: 0x10000CEC4, symSize: 0xC8 }
  - { offsetInCU: 0x66A36, offset: 0x66A36, size: 0x8, addend: 0x0, symName: '__ZNSt3__110__function12__alloc_funcIZ16test_ring_bufferR9TestSuiteE3$_0NS_9allocatorIS4_EEFvvEEC1B7v160006ERKS4_RKS6_', symObjAddr: 0xA930, symBinAddr: 0x10000CF8C, symSize: 0x3C }
  - { offsetInCU: 0x66A7E, offset: 0x66A7E, size: 0x8, addend: 0x0, symName: '__ZNSt3__110__function12__alloc_funcIZ16test_ring_bufferR9TestSuiteE3$_0NS_9allocatorIS4_EEFvvEEC2B7v160006ERKS4_RKS6_', symObjAddr: 0xA96C, symBinAddr: 0x10000CFC8, symSize: 0x314 }
  - { offsetInCU: 0x66AC9, offset: 0x66AC9, size: 0x8, addend: 0x0, symName: '__ZNSt3__117__compressed_pairIZ16test_ring_bufferR9TestSuiteE3$_0NS_9allocatorIS3_EEEC1B7v160006IJRKS3_EJRKS5_EEENS_21piecewise_construct_tENS_5tupleIJDpT_EEENSD_IJDpT0_EEE', symObjAddr: 0xAE78, symBinAddr: 0x10000D4D4, symSize: 0x2FC }
  - { offsetInCU: 0x66B40, offset: 0x66B40, size: 0x8, addend: 0x0, symName: '__ZNSt3__15tupleIJRKNS_9allocatorIZ16test_ring_bufferR9TestSuiteE3$_0EEEEC1B7v160006INS_4_AndELi0EEES7_', symObjAddr: 0xB174, symBinAddr: 0x10000D7D0, symSize: 0x34 }
  - { offsetInCU: 0x66B88, offset: 0x66B88, size: 0x8, addend: 0x0, symName: '__ZNSt3__15tupleIJRKNS_9allocatorIZ16test_ring_bufferR9TestSuiteE3$_0EEEEC2B7v160006INS_4_AndELi0EEES7_', symObjAddr: 0xB1A8, symBinAddr: 0x10000D804, symSize: 0x34 }
  - { offsetInCU: 0x66BD0, offset: 0x66BD0, size: 0x8, addend: 0x0, symName: '__ZNSt3__112__tuple_implINS_15__tuple_indicesIJLm0EEEEJRKNS_9allocatorIZ16test_ring_bufferR9TestSuiteE3$_0EEEEC1B7v160006IJLm0EEJS9_EJEJEJS9_EEENS1_IJXspT_EEEENS_13__tuple_typesIJDpT0_EEENS1_IJXspT1_EEEENSD_IJDpT2_EEEDpOT3_', symObjAddr: 0xB1DC, symBinAddr: 0x10000D838, symSize: 0x34 }
  - { offsetInCU: 0x66C65, offset: 0x66C65, size: 0x8, addend: 0x0, symName: '__ZNSt3__112__tuple_implINS_15__tuple_indicesIJLm0EEEEJRKNS_9allocatorIZ16test_ring_bufferR9TestSuiteE3$_0EEEEC2B7v160006IJLm0EEJS9_EJEJEJS9_EEENS1_IJXspT_EEEENS_13__tuple_typesIJDpT0_EEENS1_IJXspT1_EEEENSD_IJDpT2_EEEDpOT3_', symObjAddr: 0xB210, symBinAddr: 0x10000D86C, symSize: 0x34 }
  - { offsetInCU: 0x66CFA, offset: 0x66CFA, size: 0x8, addend: 0x0, symName: '__ZNSt3__112__tuple_leafILm0ERKNS_9allocatorIZ16test_ring_bufferR9TestSuiteE3$_0EELb0EEC2B7v160006IS7_vEEOT_', symObjAddr: 0xB244, symBinAddr: 0x10000D8A0, symSize: 0x70 }
  - { offsetInCU: 0x66D3D, offset: 0x66D3D, size: 0x8, addend: 0x0, symName: '__ZNSt3__117__compressed_pairIZ16test_ring_bufferR9TestSuiteE3$_0NS_9allocatorIS3_EEEC2B7v160006IJRKS3_EJRKS5_EEENS_21piecewise_construct_tENS_5tupleIJDpT_EEENSD_IJDpT0_EEE', symObjAddr: 0xB2B4, symBinAddr: 0x10000D910, symSize: 0x360 }
  - { offsetInCU: 0x66DB4, offset: 0x66DB4, size: 0x8, addend: 0x0, symName: '__ZNSt3__122__compressed_pair_elemINS_9allocatorIZ16test_ring_bufferR9TestSuiteE3$_0EELi1ELb1EEC2B7v160006IJRKS5_EJLm0EEEENS_21piecewise_construct_tENS_5tupleIJDpT_EEENS_15__tuple_indicesIJXspT0_EEEE', symObjAddr: 0xB614, symBinAddr: 0x10000DC70, symSize: 0x200 }
  - { offsetInCU: 0x66E1F, offset: 0x66E1F, size: 0x8, addend: 0x0, symName: '__ZNSt3__112__tuple_leafILm0ERKNS_9allocatorIZ16test_ring_bufferR9TestSuiteE3$_0EELb0EE3getB7v160006Ev', symObjAddr: 0xB838, symBinAddr: 0x10000DE94, symSize: 0x60 }
  - { offsetInCU: 0x66E45, offset: 0x66E45, size: 0x8, addend: 0x0, symName: '__ZNSt3__110__function12__alloc_funcIZ16test_ring_bufferR9TestSuiteE3$_0NS_9allocatorIS4_EEFvvEE7destroyB7v160006Ev', symObjAddr: 0xB898, symBinAddr: 0x10000DEF4, symSize: 0x10 }
  - { offsetInCU: 0x66E6B, offset: 0x66E6B, size: 0x8, addend: 0x0, symName: '__ZNSt3__110__function12__alloc_funcIZ16test_ring_bufferR9TestSuiteE3$_0NS_9allocatorIS4_EEFvvEEclB7v160006Ev', symObjAddr: 0xB8A8, symBinAddr: 0x10000DF04, symSize: 0x28 }
  - { offsetInCU: 0x66E91, offset: 0x66E91, size: 0x8, addend: 0x0, symName: '__ZNSt3__128__invoke_void_return_wrapperIvLb1EE6__callIJRZ16test_ring_bufferR9TestSuiteE3$_0EEEvDpOT_', symObjAddr: 0xB8D0, symBinAddr: 0x10000DF2C, symSize: 0x24 }
  - { offsetInCU: 0x66EC0, offset: 0x66EC0, size: 0x8, addend: 0x0, symName: '__ZNSt3__117__compressed_pairIZ16test_ring_bufferR9TestSuiteE3$_0NS_9allocatorIS3_EEE5firstB7v160006Ev', symObjAddr: 0xB8F4, symBinAddr: 0x10000DF50, symSize: 0x24 }
  - { offsetInCU: 0x66EEC, offset: 0x66EEC, size: 0x8, addend: 0x0, symName: '__ZZ16test_ring_bufferR9TestSuiteENK3$_0clEv', symObjAddr: 0xB93C, symBinAddr: 0x10000DF98, symSize: 0x3A4 }
  - { offsetInCU: 0x66F51, offset: 0x66F51, size: 0x8, addend: 0x0, symName: __ZN5queue20MarketDataRingBufferC1Ev, symObjAddr: 0xBCE0, symBinAddr: 0x10000E33C, symSize: 0x2C }
  - { offsetInCU: 0x66F7B, offset: 0x66F7B, size: 0x8, addend: 0x0, symName: __ZL11make_updatePKcjj, symObjAddr: 0xBD0C, symBinAddr: 0x10000E368, symSize: 0x3A4 }
  - { offsetInCU: 0x66FD7, offset: 0x66FD7, size: 0x8, addend: 0x0, symName: __ZN5queue20MarketDataRingBuffer4pushERKN4data12MarketUpdateE, symObjAddr: 0xC0B0, symBinAddr: 0x10000E70C, symSize: 0xFC }
  - { offsetInCU: 0x6702A, offset: 0x6702A, size: 0x8, addend: 0x0, symName: __ZN5queue20MarketDataRingBuffer3popERN4data12MarketUpdateE, symObjAddr: 0xC1AC, symBinAddr: 0x10000E808, symSize: 0xFC }
  - { offsetInCU: 0x6706E, offset: 0x6706E, size: 0x8, addend: 0x0, symName: __ZNK5queue20MarketDataRingBuffer5emptyEv, symObjAddr: 0xC2A8, symBinAddr: 0x10000E904, symSize: 0x64 }
  - { offsetInCU: 0x67094, offset: 0x67094, size: 0x8, addend: 0x0, symName: __ZN5queue20MarketDataRingBufferC2Ev, symObjAddr: 0xC30C, symBinAddr: 0x10000E968, symSize: 0x50 }
  - { offsetInCU: 0x670BE, offset: 0x670BE, size: 0x8, addend: 0x0, symName: __ZNSt3__16atomicImEC1B7v160006Em, symObjAddr: 0xC35C, symBinAddr: 0x10000E9B8, symSize: 0x34 }
  - { offsetInCU: 0x670F7, offset: 0x670F7, size: 0x8, addend: 0x0, symName: __ZNSt3__16atomicImEC2B7v160006Em, symObjAddr: 0xC390, symBinAddr: 0x10000E9EC, symSize: 0x34 }
  - { offsetInCU: 0x67130, offset: 0x67130, size: 0x8, addend: 0x0, symName: __ZNSt3__113__atomic_baseImLb1EEC2B7v160006Em, symObjAddr: 0xC3C4, symBinAddr: 0x10000EA20, symSize: 0x34 }
  - { offsetInCU: 0x67169, offset: 0x67169, size: 0x8, addend: 0x0, symName: __ZNSt3__113__atomic_baseImLb0EEC2B7v160006Em, symObjAddr: 0xC3F8, symBinAddr: 0x10000EA54, symSize: 0x34 }
  - { offsetInCU: 0x671A2, offset: 0x671A2, size: 0x8, addend: 0x0, symName: __ZNSt3__117__cxx_atomic_implImNS_22__cxx_atomic_base_implImEEEC1B7v160006Em, symObjAddr: 0xC42C, symBinAddr: 0x10000EA88, symSize: 0x34 }
  - { offsetInCU: 0x671DB, offset: 0x671DB, size: 0x8, addend: 0x0, symName: __ZNSt3__117__cxx_atomic_implImNS_22__cxx_atomic_base_implImEEEC2B7v160006Em, symObjAddr: 0xC460, symBinAddr: 0x10000EABC, symSize: 0x34 }
  - { offsetInCU: 0x67214, offset: 0x67214, size: 0x8, addend: 0x0, symName: __ZNSt3__122__cxx_atomic_base_implImEC2Em, symObjAddr: 0xC494, symBinAddr: 0x10000EAF0, symSize: 0x70 }
  - { offsetInCU: 0x6724D, offset: 0x6724D, size: 0x8, addend: 0x0, symName: __ZL6now_usv, symObjAddr: 0xC504, symBinAddr: 0x10000EB60, symSize: 0x300 }
  - { offsetInCU: 0x6728D, offset: 0x6728D, size: 0x8, addend: 0x0, symName: __ZNKSt3__16chrono10time_pointINS0_12steady_clockENS0_8durationIxNS_5ratioILl1ELl1000000000EEEEEE16time_since_epochB7v160006Ev, symObjAddr: 0xCA80, symBinAddr: 0x10000F0DC, symSize: 0x1FC }
  - { offsetInCU: 0x672B4, offset: 0x672B4, size: 0x8, addend: 0x0, symName: __ZNKSt3__16chrono8durationIxNS_5ratioILl1ELl1000000EEEE5countB7v160006Ev, symObjAddr: 0xCC7C, symBinAddr: 0x10000F2D8, symSize: 0x60 }
  - { offsetInCU: 0x672DA, offset: 0x672DA, size: 0x8, addend: 0x0, symName: __ZNKSt3__16chrono8durationIxNS_5ratioILl1ELl1000000000EEEE5countB7v160006Ev, symObjAddr: 0xCF74, symBinAddr: 0x10000F5D0, symSize: 0x60 }
  - { offsetInCU: 0x67311, offset: 0x67311, size: 0x8, addend: 0x0, symName: __ZNSt3__16chrono8durationIxNS_5ratioILl1ELl1000000EEEEC1B7v160006IxEERKT_PNS_9enable_ifIXaasr14is_convertibleIS8_xEE5valueooL_ZNS_17integral_constantIbLb0EE5valueEEntsr23treat_as_floating_pointIS6_EE5valueEvE4typeE, symObjAddr: 0xCFD4, symBinAddr: 0x10000F630, symSize: 0x3C }
  - { offsetInCU: 0x6735F, offset: 0x6735F, size: 0x8, addend: 0x0, symName: __ZNSt3__16chrono8durationIxNS_5ratioILl1ELl1000000EEEEC2B7v160006IxEERKT_PNS_9enable_ifIXaasr14is_convertibleIS8_xEE5valueooL_ZNS_17integral_constantIbLb0EE5valueEEntsr23treat_as_floating_pointIS6_EE5valueEvE4typeE, symObjAddr: 0xD010, symBinAddr: 0x10000F66C, symSize: 0xB4 }
  - { offsetInCU: 0x673AD, offset: 0x673AD, size: 0x8, addend: 0x0, symName: __ZNKSt3__113__atomic_baseImLb0EE4loadB7v160006ENS_12memory_orderE, symObjAddr: 0xD0C4, symBinAddr: 0x10000F720, symSize: 0x2C }
  - { offsetInCU: 0x673E2, offset: 0x673E2, size: 0x8, addend: 0x0, symName: __ZNSt3__113__atomic_baseImLb0EE5storeB7v160006EmNS_12memory_orderE, symObjAddr: 0xD0F0, symBinAddr: 0x10000F74C, symSize: 0x34 }
  - { offsetInCU: 0x67426, offset: 0x67426, size: 0x8, addend: 0x0, symName: '__ZNSt3__122__compressed_pair_elemIZ16test_ring_bufferR9TestSuiteE3$_0Li0ELb1EE5__getB7v160006Ev', symObjAddr: 0xD398, symBinAddr: 0x10000F9F4, symSize: 0x14 }
  - { offsetInCU: 0x67482, offset: 0x67482, size: 0x8, addend: 0x0, symName: __ZNKSt9type_infoeqB7v160006ERKS_, symObjAddr: 0xD3AC, symBinAddr: 0x10000FA08, symSize: 0x160 }
  - { offsetInCU: 0x67520, offset: 0x67520, size: 0x8, addend: 0x0, symName: __ZNSt27__type_info_implementations30__non_unique_arm_rtti_bit_impl21__is_type_name_uniqueB7v160006Em, symObjAddr: 0xD50C, symBinAddr: 0x10000FB68, symSize: 0x20 }
  - { offsetInCU: 0x67544, offset: 0x67544, size: 0x8, addend: 0x0, symName: __ZNSt3__18functionIFvvEED2Ev, symObjAddr: 0xD52C, symBinAddr: 0x10000FB88, symSize: 0x2C }
  - { offsetInCU: 0x67570, offset: 0x67570, size: 0x8, addend: 0x0, symName: __ZNSt3__110__function12__value_funcIFvvEED1B7v160006Ev, symObjAddr: 0xD558, symBinAddr: 0x10000FBB4, symSize: 0x2C }
  - { offsetInCU: 0x6759A, offset: 0x6759A, size: 0x8, addend: 0x0, symName: __ZNSt3__110__function12__value_funcIFvvEED2B7v160006Ev, symObjAddr: 0xD584, symBinAddr: 0x10000FBE0, symSize: 0x24C }
  - { offsetInCU: 0x675C4, offset: 0x675C4, size: 0x8, addend: 0x0, symName: '__ZNSt3__18functionIFvvEEC2IZ16test_ring_bufferR9TestSuiteE3$_1vEET_', symObjAddr: 0xD7D0, symBinAddr: 0x10000FE2C, symSize: 0x1BC }
  - { offsetInCU: 0x6760E, offset: 0x6760E, size: 0x8, addend: 0x0, symName: '__ZNSt3__110__function12__value_funcIFvvEEC1B7v160006IZ16test_ring_bufferR9TestSuiteE3$_1vEEOT_', symObjAddr: 0xD98C, symBinAddr: 0x10000FFE8, symSize: 0x1F8 }
  - { offsetInCU: 0x67653, offset: 0x67653, size: 0x8, addend: 0x0, symName: '__ZNSt3__19allocatorIZ16test_ring_bufferR9TestSuiteE3$_1EC1B7v160006Ev', symObjAddr: 0xDB84, symBinAddr: 0x1000101E0, symSize: 0x2C }
  - { offsetInCU: 0x6767D, offset: 0x6767D, size: 0x8, addend: 0x0, symName: '__ZNSt3__110__function12__value_funcIFvvEEC1B7v160006IZ16test_ring_bufferR9TestSuiteE3$_1NS_9allocatorIS7_EEEEOT_RKT0_', symObjAddr: 0xDBB0, symBinAddr: 0x10001020C, symSize: 0x3C }
  - { offsetInCU: 0x676D7, offset: 0x676D7, size: 0x8, addend: 0x0, symName: '__ZNSt3__19allocatorIZ16test_ring_bufferR9TestSuiteE3$_1EC2B7v160006Ev', symObjAddr: 0xDBEC, symBinAddr: 0x100010248, symSize: 0x2C }
  - { offsetInCU: 0x67701, offset: 0x67701, size: 0x8, addend: 0x0, symName: '__ZNSt3__116__non_trivial_ifILb1ENS_9allocatorIZ16test_ring_bufferR9TestSuiteE3$_1EEEC2B7v160006Ev', symObjAddr: 0xDC18, symBinAddr: 0x100010274, symSize: 0x14 }
  - { offsetInCU: 0x6772B, offset: 0x6772B, size: 0x8, addend: 0x0, symName: '__ZNSt3__110__function12__value_funcIFvvEEC2B7v160006IZ16test_ring_bufferR9TestSuiteE3$_1NS_9allocatorIS7_EEEEOT_RKT0_', symObjAddr: 0xDC2C, symBinAddr: 0x100010288, symSize: 0x2D0 }
  - { offsetInCU: 0x677B9, offset: 0x677B9, size: 0x8, addend: 0x0, symName: '__ZNSt3__19allocatorINS_10__function6__funcIZ16test_ring_bufferR9TestSuiteE3$_1NS0_IS5_EEFvvEEEEC1B7v160006IS5_EERKNS0_IT_EE', symObjAddr: 0xDF14, symBinAddr: 0x100010570, symSize: 0x34 }
  - { offsetInCU: 0x67801, offset: 0x67801, size: 0x8, addend: 0x0, symName: '__ZNSt3__19allocatorIZ16test_ring_bufferR9TestSuiteE3$_1EC1B7v160006INS_10__function6__funcIS3_S4_FvvEEEEERKNS0_IT_EE', symObjAddr: 0xDF48, symBinAddr: 0x1000105A4, symSize: 0x34 }
  - { offsetInCU: 0x6783E, offset: 0x6783E, size: 0x8, addend: 0x0, symName: '__ZNSt3__110__function6__funcIZ16test_ring_bufferR9TestSuiteE3$_1NS_9allocatorIS4_EEFvvEEC1B7v160006EOS4_OS6_', symObjAddr: 0xDF7C, symBinAddr: 0x1000105D8, symSize: 0x3C }
  - { offsetInCU: 0x67886, offset: 0x67886, size: 0x8, addend: 0x0, symName: '__ZNSt3__19allocatorINS_10__function6__funcIZ16test_ring_bufferR9TestSuiteE3$_1NS0_IS5_EEFvvEEEEC2B7v160006IS5_EERKNS0_IT_EE', symObjAddr: 0xDFB8, symBinAddr: 0x100010614, symSize: 0x30 }
  - { offsetInCU: 0x678C3, offset: 0x678C3, size: 0x8, addend: 0x0, symName: '__ZNSt3__116__non_trivial_ifILb1ENS_9allocatorINS_10__function6__funcIZ16test_ring_bufferR9TestSuiteE3$_1NS1_IS6_EEFvvEEEEEEC2B7v160006Ev', symObjAddr: 0xDFE8, symBinAddr: 0x100010644, symSize: 0x14 }
  - { offsetInCU: 0x678ED, offset: 0x678ED, size: 0x8, addend: 0x0, symName: '__ZNSt3__19allocatorIZ16test_ring_bufferR9TestSuiteE3$_1EC2B7v160006INS_10__function6__funcIS3_S4_FvvEEEEERKNS0_IT_EE', symObjAddr: 0xDFFC, symBinAddr: 0x100010658, symSize: 0x30 }
  - { offsetInCU: 0x6792A, offset: 0x6792A, size: 0x8, addend: 0x0, symName: '__ZNSt3__110__function6__funcIZ16test_ring_bufferR9TestSuiteE3$_1NS_9allocatorIS4_EEFvvEEC2B7v160006EOS4_OS6_', symObjAddr: 0xE02C, symBinAddr: 0x100010688, symSize: 0xC8 }
  - { offsetInCU: 0x67972, offset: 0x67972, size: 0x8, addend: 0x0, symName: '__ZNSt3__110__function12__alloc_funcIZ16test_ring_bufferR9TestSuiteE3$_1NS_9allocatorIS4_EEFvvEEC1B7v160006EOS4_OS6_', symObjAddr: 0xE0F4, symBinAddr: 0x100010750, symSize: 0x3C }
  - { offsetInCU: 0x679BA, offset: 0x679BA, size: 0x8, addend: 0x0, symName: '__ZNSt3__110__function6__funcIZ16test_ring_bufferR9TestSuiteE3$_1NS_9allocatorIS4_EEFvvEED1Ev', symObjAddr: 0xE130, symBinAddr: 0x10001078C, symSize: 0x2C }
  - { offsetInCU: 0x679E7, offset: 0x679E7, size: 0x8, addend: 0x0, symName: '__ZNSt3__110__function6__funcIZ16test_ring_bufferR9TestSuiteE3$_1NS_9allocatorIS4_EEFvvEED0Ev', symObjAddr: 0xE15C, symBinAddr: 0x1000107B8, symSize: 0x30 }
  - { offsetInCU: 0x67A14, offset: 0x67A14, size: 0x8, addend: 0x0, symName: '__ZNKSt3__110__function6__funcIZ16test_ring_bufferR9TestSuiteE3$_1NS_9allocatorIS4_EEFvvEE7__cloneEv', symObjAddr: 0xE18C, symBinAddr: 0x1000107E8, symSize: 0x448 }
  - { offsetInCU: 0x67A6F, offset: 0x67A6F, size: 0x8, addend: 0x0, symName: '__ZNKSt3__110__function6__funcIZ16test_ring_bufferR9TestSuiteE3$_1NS_9allocatorIS4_EEFvvEE7__cloneEPNS0_6__baseIS7_EE', symObjAddr: 0xE5D4, symBinAddr: 0x100010C30, symSize: 0x58 }
  - { offsetInCU: 0x67AA6, offset: 0x67AA6, size: 0x8, addend: 0x0, symName: '__ZNSt3__110__function6__funcIZ16test_ring_bufferR9TestSuiteE3$_1NS_9allocatorIS4_EEFvvEE7destroyEv', symObjAddr: 0xE62C, symBinAddr: 0x100010C88, symSize: 0x28 }
  - { offsetInCU: 0x67ACE, offset: 0x67ACE, size: 0x8, addend: 0x0, symName: '__ZNSt3__110__function6__funcIZ16test_ring_bufferR9TestSuiteE3$_1NS_9allocatorIS4_EEFvvEE18destroy_deallocateEv', symObjAddr: 0xE654, symBinAddr: 0x100010CB0, symSize: 0x204 }
  - { offsetInCU: 0x67B16, offset: 0x67B16, size: 0x8, addend: 0x0, symName: '__ZNSt3__110__function6__funcIZ16test_ring_bufferR9TestSuiteE3$_1NS_9allocatorIS4_EEFvvEEclEv', symObjAddr: 0xE858, symBinAddr: 0x100010EB4, symSize: 0x28 }
  - { offsetInCU: 0x67B3E, offset: 0x67B3E, size: 0x8, addend: 0x0, symName: '__ZNKSt3__110__function6__funcIZ16test_ring_bufferR9TestSuiteE3$_1NS_9allocatorIS4_EEFvvEE6targetERKSt9type_info', symObjAddr: 0xE880, symBinAddr: 0x100010EDC, symSize: 0x60 }
  - { offsetInCU: 0x67B75, offset: 0x67B75, size: 0x8, addend: 0x0, symName: '__ZNKSt3__110__function6__funcIZ16test_ring_bufferR9TestSuiteE3$_1NS_9allocatorIS4_EEFvvEE11target_typeEv', symObjAddr: 0xE8E0, symBinAddr: 0x100010F3C, symSize: 0x18 }
  - { offsetInCU: 0x67B9D, offset: 0x67B9D, size: 0x8, addend: 0x0, symName: '__ZNSt3__110__function12__alloc_funcIZ16test_ring_bufferR9TestSuiteE3$_1NS_9allocatorIS4_EEFvvEEC2B7v160006EOS4_OS6_', symObjAddr: 0xE8F8, symBinAddr: 0x100010F54, symSize: 0x314 }
  - { offsetInCU: 0x67BE8, offset: 0x67BE8, size: 0x8, addend: 0x0, symName: '__ZNSt3__117__compressed_pairIZ16test_ring_bufferR9TestSuiteE3$_1NS_9allocatorIS3_EEEC1B7v160006IJOS3_EJOS5_EEENS_21piecewise_construct_tENS_5tupleIJDpT_EEENSB_IJDpT0_EEE', symObjAddr: 0xEFFC, symBinAddr: 0x100011658, symSize: 0x2FC }
  - { offsetInCU: 0x67C5F, offset: 0x67C5F, size: 0x8, addend: 0x0, symName: '__ZNSt3__15tupleIJOZ16test_ring_bufferR9TestSuiteE3$_1EEC1B7v160006IJS3_ELi0EEEDpOT_', symObjAddr: 0xF2F8, symBinAddr: 0x100011954, symSize: 0x34 }
  - { offsetInCU: 0x67CA9, offset: 0x67CA9, size: 0x8, addend: 0x0, symName: '__ZNSt3__15tupleIJOZ16test_ring_bufferR9TestSuiteE3$_1EEC2B7v160006IJS3_ELi0EEEDpOT_', symObjAddr: 0xF32C, symBinAddr: 0x100011988, symSize: 0x34 }
  - { offsetInCU: 0x67CF3, offset: 0x67CF3, size: 0x8, addend: 0x0, symName: '__ZNSt3__112__tuple_implINS_15__tuple_indicesIJLm0EEEEJOZ16test_ring_bufferR9TestSuiteE3$_1EEC1B7v160006IJLm0EEJS6_EJEJEJS5_EEENS1_IJXspT_EEEENS_13__tuple_typesIJDpT0_EEENS1_IJXspT1_EEEENSA_IJDpT2_EEEDpOT3_', symObjAddr: 0xF360, symBinAddr: 0x1000119BC, symSize: 0x34 }
  - { offsetInCU: 0x67D88, offset: 0x67D88, size: 0x8, addend: 0x0, symName: '__ZNSt3__112__tuple_implINS_15__tuple_indicesIJLm0EEEEJOZ16test_ring_bufferR9TestSuiteE3$_1EEC2B7v160006IJLm0EEJS6_EJEJEJS5_EEENS1_IJXspT_EEEENS_13__tuple_typesIJDpT0_EEENS1_IJXspT1_EEEENSA_IJDpT2_EEEDpOT3_', symObjAddr: 0xF394, symBinAddr: 0x1000119F0, symSize: 0x34 }
  - { offsetInCU: 0x67E1D, offset: 0x67E1D, size: 0x8, addend: 0x0, symName: '__ZNSt3__112__tuple_leafILm0EOZ16test_ring_bufferR9TestSuiteE3$_1Lb0EEC2B7v160006IS3_vEEOT_', symObjAddr: 0xF3C8, symBinAddr: 0x100011A24, symSize: 0x70 }
  - { offsetInCU: 0x67E60, offset: 0x67E60, size: 0x8, addend: 0x0, symName: '__ZNSt3__15tupleIJONS_9allocatorIZ16test_ring_bufferR9TestSuiteE3$_1EEEEC1B7v160006IJS5_ELi0EEEDpOT_', symObjAddr: 0xF438, symBinAddr: 0x100011A94, symSize: 0x34 }
  - { offsetInCU: 0x67EAA, offset: 0x67EAA, size: 0x8, addend: 0x0, symName: '__ZNSt3__15tupleIJONS_9allocatorIZ16test_ring_bufferR9TestSuiteE3$_1EEEEC2B7v160006IJS5_ELi0EEEDpOT_', symObjAddr: 0xF46C, symBinAddr: 0x100011AC8, symSize: 0x34 }
  - { offsetInCU: 0x67EF4, offset: 0x67EF4, size: 0x8, addend: 0x0, symName: '__ZNSt3__112__tuple_implINS_15__tuple_indicesIJLm0EEEEJONS_9allocatorIZ16test_ring_bufferR9TestSuiteE3$_1EEEEC1B7v160006IJLm0EEJS8_EJEJEJS7_EEENS1_IJXspT_EEEENS_13__tuple_typesIJDpT0_EEENS1_IJXspT1_EEEENSC_IJDpT2_EEEDpOT3_', symObjAddr: 0xF4A0, symBinAddr: 0x100011AFC, symSize: 0x34 }
  - { offsetInCU: 0x67F89, offset: 0x67F89, size: 0x8, addend: 0x0, symName: '__ZNSt3__112__tuple_implINS_15__tuple_indicesIJLm0EEEEJONS_9allocatorIZ16test_ring_bufferR9TestSuiteE3$_1EEEEC2B7v160006IJLm0EEJS8_EJEJEJS7_EEENS1_IJXspT_EEEENS_13__tuple_typesIJDpT0_EEENS1_IJXspT1_EEEENSC_IJDpT2_EEEDpOT3_', symObjAddr: 0xF4D4, symBinAddr: 0x100011B30, symSize: 0x34 }
  - { offsetInCU: 0x6801E, offset: 0x6801E, size: 0x8, addend: 0x0, symName: '__ZNSt3__112__tuple_leafILm0EONS_9allocatorIZ16test_ring_bufferR9TestSuiteE3$_1EELb0EEC2B7v160006IS5_vEEOT_', symObjAddr: 0xF508, symBinAddr: 0x100011B64, symSize: 0x70 }
  - { offsetInCU: 0x68061, offset: 0x68061, size: 0x8, addend: 0x0, symName: '__ZNSt3__117__compressed_pairIZ16test_ring_bufferR9TestSuiteE3$_1NS_9allocatorIS3_EEEC2B7v160006IJOS3_EJOS5_EEENS_21piecewise_construct_tENS_5tupleIJDpT_EEENSB_IJDpT0_EEE', symObjAddr: 0xF578, symBinAddr: 0x100011BD4, symSize: 0x360 }
  - { offsetInCU: 0x680D8, offset: 0x680D8, size: 0x8, addend: 0x0, symName: '__ZNSt3__122__compressed_pair_elemIZ16test_ring_bufferR9TestSuiteE3$_1Li0ELb1EEC2B7v160006IJOS3_EJLm0EEEENS_21piecewise_construct_tENS_5tupleIJDpT_EEENS_15__tuple_indicesIJXspT0_EEEE', symObjAddr: 0xF8D8, symBinAddr: 0x100011F34, symSize: 0x200 }
  - { offsetInCU: 0x68143, offset: 0x68143, size: 0x8, addend: 0x0, symName: '__ZNSt3__122__compressed_pair_elemINS_9allocatorIZ16test_ring_bufferR9TestSuiteE3$_1EELi1ELb1EEC2B7v160006IJOS5_EJLm0EEEENS_21piecewise_construct_tENS_5tupleIJDpT_EEENS_15__tuple_indicesIJXspT0_EEEE', symObjAddr: 0xFAD8, symBinAddr: 0x100012134, symSize: 0x200 }
  - { offsetInCU: 0x681AE, offset: 0x681AE, size: 0x8, addend: 0x0, symName: '__ZNSt3__112__tuple_leafILm0EOZ16test_ring_bufferR9TestSuiteE3$_1Lb0EE3getB7v160006Ev', symObjAddr: 0xFCFC, symBinAddr: 0x100012358, symSize: 0x60 }
  - { offsetInCU: 0x681D4, offset: 0x681D4, size: 0x8, addend: 0x0, symName: '__ZNSt3__112__tuple_leafILm0EONS_9allocatorIZ16test_ring_bufferR9TestSuiteE3$_1EELb0EE3getB7v160006Ev', symObjAddr: 0xFD80, symBinAddr: 0x1000123DC, symSize: 0x60 }
  - { offsetInCU: 0x681FA, offset: 0x681FA, size: 0x8, addend: 0x0, symName: '__ZNSt3__110__function6__funcIZ16test_ring_bufferR9TestSuiteE3$_1NS_9allocatorIS4_EEFvvEED2Ev', symObjAddr: 0xFDE0, symBinAddr: 0x10001243C, symSize: 0x2C }
  - { offsetInCU: 0x68227, offset: 0x68227, size: 0x8, addend: 0x0, symName: '__ZNKSt3__110__function12__alloc_funcIZ16test_ring_bufferR9TestSuiteE3$_1NS_9allocatorIS4_EEFvvEE15__get_allocatorB7v160006Ev', symObjAddr: 0xFE0C, symBinAddr: 0x100012468, symSize: 0x24 }
  - { offsetInCU: 0x6824D, offset: 0x6824D, size: 0x8, addend: 0x0, symName: '__ZNSt3__19allocatorINS_10__function6__funcIZ16test_ring_bufferR9TestSuiteE3$_1NS0_IS5_EEFvvEEEE8allocateB7v160006Em', symObjAddr: 0xFE30, symBinAddr: 0x10001248C, symSize: 0x5C }
  - { offsetInCU: 0x68294, offset: 0x68294, size: 0x8, addend: 0x0, symName: '__ZNSt3__122__allocator_destructorINS_9allocatorINS_10__function6__funcIZ16test_ring_bufferR9TestSuiteE3$_1NS1_IS6_EEFvvEEEEEEC1B7v160006ERSA_m', symObjAddr: 0xFE8C, symBinAddr: 0x1000124E8, symSize: 0x3C }
  - { offsetInCU: 0x68383, offset: 0x68383, size: 0x8, addend: 0x0, symName: '__ZNSt3__110unique_ptrINS_10__function6__funcIZ16test_ring_bufferR9TestSuiteE3$_1NS_9allocatorIS5_EEFvvEEENS_22__allocator_destructorINS6_IS9_EEEEEC1B7v160006ILb1EvEEPS9_NS_16__dependent_typeINS_27__unique_ptr_deleter_sfinaeISC_EEXT_EE20__good_rval_ref_typeE', symObjAddr: 0xFEC8, symBinAddr: 0x100012524, symSize: 0x3C }
  - { offsetInCU: 0x683D6, offset: 0x683D6, size: 0x8, addend: 0x0, symName: '__ZNKSt3__110unique_ptrINS_10__function6__funcIZ16test_ring_bufferR9TestSuiteE3$_1NS_9allocatorIS5_EEFvvEEENS_22__allocator_destructorINS6_IS9_EEEEE3getB7v160006Ev', symObjAddr: 0xFF04, symBinAddr: 0x100012560, symSize: 0x6C }
  - { offsetInCU: 0x683FC, offset: 0x683FC, size: 0x8, addend: 0x0, symName: '__ZNKSt3__110__function12__alloc_funcIZ16test_ring_bufferR9TestSuiteE3$_1NS_9allocatorIS4_EEFvvEE8__targetB7v160006Ev', symObjAddr: 0xFF70, symBinAddr: 0x1000125CC, symSize: 0x24 }
  - { offsetInCU: 0x68422, offset: 0x68422, size: 0x8, addend: 0x0, symName: '__ZNSt3__110__function6__funcIZ16test_ring_bufferR9TestSuiteE3$_1NS_9allocatorIS4_EEFvvEEC1B7v160006ERKS4_OS6_', symObjAddr: 0xFF94, symBinAddr: 0x1000125F0, symSize: 0x3C }
  - { offsetInCU: 0x6846A, offset: 0x6846A, size: 0x8, addend: 0x0, symName: '__ZNSt3__110unique_ptrINS_10__function6__funcIZ16test_ring_bufferR9TestSuiteE3$_1NS_9allocatorIS5_EEFvvEEENS_22__allocator_destructorINS6_IS9_EEEEE7releaseB7v160006Ev', symObjAddr: 0xFFD0, symBinAddr: 0x10001262C, symSize: 0xB8 }
  - { offsetInCU: 0x6849F, offset: 0x6849F, size: 0x8, addend: 0x0, symName: '__ZNSt3__110unique_ptrINS_10__function6__funcIZ16test_ring_bufferR9TestSuiteE3$_1NS_9allocatorIS5_EEFvvEEENS_22__allocator_destructorINS6_IS9_EEEEED1B7v160006Ev', symObjAddr: 0x10088, symBinAddr: 0x1000126E4, symSize: 0x2C }
  - { offsetInCU: 0x684C9, offset: 0x684C9, size: 0x8, addend: 0x0, symName: '__ZNKSt3__117__compressed_pairIZ16test_ring_bufferR9TestSuiteE3$_1NS_9allocatorIS3_EEE6secondB7v160006Ev', symObjAddr: 0x100B4, symBinAddr: 0x100012710, symSize: 0x24 }
  - { offsetInCU: 0x684EF, offset: 0x684EF, size: 0x8, addend: 0x0, symName: '__ZNKSt3__122__compressed_pair_elemINS_9allocatorIZ16test_ring_bufferR9TestSuiteE3$_1EELi1ELb1EE5__getB7v160006Ev', symObjAddr: 0x100D8, symBinAddr: 0x100012734, symSize: 0x14 }
  - { offsetInCU: 0x68520, offset: 0x68520, size: 0x8, addend: 0x0, symName: '__ZNSt3__116allocator_traitsINS_9allocatorINS_10__function6__funcIZ16test_ring_bufferR9TestSuiteE3$_1NS1_IS6_EEFvvEEEEEE8max_sizeB7v160006ISA_vvEEmRKSA_', symObjAddr: 0x100EC, symBinAddr: 0x100012748, symSize: 0x28 }
  - { offsetInCU: 0x6854C, offset: 0x6854C, size: 0x8, addend: 0x0, symName: '__ZNSt3__122__allocator_destructorINS_9allocatorINS_10__function6__funcIZ16test_ring_bufferR9TestSuiteE3$_1NS1_IS6_EEFvvEEEEEEC2B7v160006ERSA_m', symObjAddr: 0x10114, symBinAddr: 0x100012770, symSize: 0xBC }
  - { offsetInCU: 0x68594, offset: 0x68594, size: 0x8, addend: 0x0, symName: '__ZNSt3__110unique_ptrINS_10__function6__funcIZ16test_ring_bufferR9TestSuiteE3$_1NS_9allocatorIS5_EEFvvEEENS_22__allocator_destructorINS6_IS9_EEEEEC2B7v160006ILb1EvEEPS9_NS_16__dependent_typeINS_27__unique_ptr_deleter_sfinaeISC_EEXT_EE20__good_rval_ref_typeE', symObjAddr: 0x101D0, symBinAddr: 0x10001282C, symSize: 0x21C }
  - { offsetInCU: 0x685ED, offset: 0x685ED, size: 0x8, addend: 0x0, symName: '__ZNSt3__117__compressed_pairIPNS_10__function6__funcIZ16test_ring_bufferR9TestSuiteE3$_1NS_9allocatorIS5_EEFvvEEENS_22__allocator_destructorINS6_IS9_EEEEEC1B7v160006IRSA_SD_EEOT_OT0_', symObjAddr: 0x103EC, symBinAddr: 0x100012A48, symSize: 0x3C }
  - { offsetInCU: 0x68647, offset: 0x68647, size: 0x8, addend: 0x0, symName: '__ZNSt3__117__compressed_pairIPNS_10__function6__funcIZ16test_ring_bufferR9TestSuiteE3$_1NS_9allocatorIS5_EEFvvEEENS_22__allocator_destructorINS6_IS9_EEEEEC2B7v160006IRSA_SD_EEOT_OT0_', symObjAddr: 0x10428, symBinAddr: 0x100012A84, symSize: 0x48 }
  - { offsetInCU: 0x686A1, offset: 0x686A1, size: 0x8, addend: 0x0, symName: '__ZNSt3__122__compressed_pair_elemIPNS_10__function6__funcIZ16test_ring_bufferR9TestSuiteE3$_1NS_9allocatorIS5_EEFvvEEELi0ELb0EEC2B7v160006IRSA_vEEOT_', symObjAddr: 0x10470, symBinAddr: 0x100012ACC, symSize: 0xB0 }
  - { offsetInCU: 0x686E4, offset: 0x686E4, size: 0x8, addend: 0x0, symName: '__ZNSt3__122__compressed_pair_elemINS_22__allocator_destructorINS_9allocatorINS_10__function6__funcIZ16test_ring_bufferR9TestSuiteE3$_1NS2_IS7_EEFvvEEEEEEELi1ELb0EEC2B7v160006ISC_vEEOT_', symObjAddr: 0x10520, symBinAddr: 0x100012B7C, symSize: 0x38 }
  - { offsetInCU: 0x68727, offset: 0x68727, size: 0x8, addend: 0x0, symName: '__ZNKSt3__117__compressed_pairIPNS_10__function6__funcIZ16test_ring_bufferR9TestSuiteE3$_1NS_9allocatorIS5_EEFvvEEENS_22__allocator_destructorINS6_IS9_EEEEE5firstB7v160006Ev', symObjAddr: 0x10558, symBinAddr: 0x100012BB4, symSize: 0x24 }
  - { offsetInCU: 0x6874D, offset: 0x6874D, size: 0x8, addend: 0x0, symName: '__ZNKSt3__122__compressed_pair_elemIPNS_10__function6__funcIZ16test_ring_bufferR9TestSuiteE3$_1NS_9allocatorIS5_EEFvvEEELi0ELb0EE5__getB7v160006Ev', symObjAddr: 0x1057C, symBinAddr: 0x100012BD8, symSize: 0x14 }
  - { offsetInCU: 0x68773, offset: 0x68773, size: 0x8, addend: 0x0, symName: '__ZNKSt3__117__compressed_pairIZ16test_ring_bufferR9TestSuiteE3$_1NS_9allocatorIS3_EEE5firstB7v160006Ev', symObjAddr: 0x10590, symBinAddr: 0x100012BEC, symSize: 0x24 }
  - { offsetInCU: 0x68799, offset: 0x68799, size: 0x8, addend: 0x0, symName: '__ZNKSt3__122__compressed_pair_elemIZ16test_ring_bufferR9TestSuiteE3$_1Li0ELb1EE5__getB7v160006Ev', symObjAddr: 0x105B4, symBinAddr: 0x100012C10, symSize: 0x14 }
  - { offsetInCU: 0x687BF, offset: 0x687BF, size: 0x8, addend: 0x0, symName: '__ZNSt3__110__function6__funcIZ16test_ring_bufferR9TestSuiteE3$_1NS_9allocatorIS4_EEFvvEEC2B7v160006ERKS4_OS6_', symObjAddr: 0x105C8, symBinAddr: 0x100012C24, symSize: 0xC8 }
  - { offsetInCU: 0x68807, offset: 0x68807, size: 0x8, addend: 0x0, symName: '__ZNSt3__110__function12__alloc_funcIZ16test_ring_bufferR9TestSuiteE3$_1NS_9allocatorIS4_EEFvvEEC1B7v160006ERKS4_OS6_', symObjAddr: 0x10690, symBinAddr: 0x100012CEC, symSize: 0x3C }
  - { offsetInCU: 0x6884F, offset: 0x6884F, size: 0x8, addend: 0x0, symName: '__ZNSt3__110__function12__alloc_funcIZ16test_ring_bufferR9TestSuiteE3$_1NS_9allocatorIS4_EEFvvEEC2B7v160006ERKS4_OS6_', symObjAddr: 0x106CC, symBinAddr: 0x100012D28, symSize: 0x314 }
  - { offsetInCU: 0x6889A, offset: 0x6889A, size: 0x8, addend: 0x0, symName: '__ZNSt3__117__compressed_pairIZ16test_ring_bufferR9TestSuiteE3$_1NS_9allocatorIS3_EEEC1B7v160006IJRKS3_EJOS5_EEENS_21piecewise_construct_tENS_5tupleIJDpT_EEENSC_IJDpT0_EEE', symObjAddr: 0x10BD8, symBinAddr: 0x100013234, symSize: 0x2FC }
  - { offsetInCU: 0x68911, offset: 0x68911, size: 0x8, addend: 0x0, symName: '__ZNSt3__15tupleIJRKZ16test_ring_bufferR9TestSuiteE3$_1EEC1B7v160006INS_4_AndELi0EEES5_', symObjAddr: 0x10ED4, symBinAddr: 0x100013530, symSize: 0x34 }
  - { offsetInCU: 0x68959, offset: 0x68959, size: 0x8, addend: 0x0, symName: '__ZNSt3__15tupleIJRKZ16test_ring_bufferR9TestSuiteE3$_1EEC2B7v160006INS_4_AndELi0EEES5_', symObjAddr: 0x10F08, symBinAddr: 0x100013564, symSize: 0x34 }
  - { offsetInCU: 0x689A1, offset: 0x689A1, size: 0x8, addend: 0x0, symName: '__ZNSt3__112__tuple_implINS_15__tuple_indicesIJLm0EEEEJRKZ16test_ring_bufferR9TestSuiteE3$_1EEC1B7v160006IJLm0EEJS7_EJEJEJS7_EEENS1_IJXspT_EEEENS_13__tuple_typesIJDpT0_EEENS1_IJXspT1_EEEENSB_IJDpT2_EEEDpOT3_', symObjAddr: 0x10F3C, symBinAddr: 0x100013598, symSize: 0x34 }
  - { offsetInCU: 0x68A36, offset: 0x68A36, size: 0x8, addend: 0x0, symName: '__ZNSt3__112__tuple_implINS_15__tuple_indicesIJLm0EEEEJRKZ16test_ring_bufferR9TestSuiteE3$_1EEC2B7v160006IJLm0EEJS7_EJEJEJS7_EEENS1_IJXspT_EEEENS_13__tuple_typesIJDpT0_EEENS1_IJXspT1_EEEENSB_IJDpT2_EEEDpOT3_', symObjAddr: 0x10F70, symBinAddr: 0x1000135CC, symSize: 0x34 }
  - { offsetInCU: 0x68ACB, offset: 0x68ACB, size: 0x8, addend: 0x0, symName: '__ZNSt3__112__tuple_leafILm0ERKZ16test_ring_bufferR9TestSuiteE3$_1Lb0EEC2B7v160006IS5_vEEOT_', symObjAddr: 0x10FA4, symBinAddr: 0x100013600, symSize: 0x70 }
  - { offsetInCU: 0x68B0E, offset: 0x68B0E, size: 0x8, addend: 0x0, symName: '__ZNSt3__117__compressed_pairIZ16test_ring_bufferR9TestSuiteE3$_1NS_9allocatorIS3_EEEC2B7v160006IJRKS3_EJOS5_EEENS_21piecewise_construct_tENS_5tupleIJDpT_EEENSC_IJDpT0_EEE', symObjAddr: 0x11014, symBinAddr: 0x100013670, symSize: 0x360 }
  - { offsetInCU: 0x68B85, offset: 0x68B85, size: 0x8, addend: 0x0, symName: '__ZNSt3__122__compressed_pair_elemIZ16test_ring_bufferR9TestSuiteE3$_1Li0ELb1EEC2B7v160006IJRKS3_EJLm0EEEENS_21piecewise_construct_tENS_5tupleIJDpT_EEENS_15__tuple_indicesIJXspT0_EEEE', symObjAddr: 0x11374, symBinAddr: 0x1000139D0, symSize: 0x200 }
  - { offsetInCU: 0x68BF0, offset: 0x68BF0, size: 0x8, addend: 0x0, symName: '__ZNSt3__112__tuple_leafILm0ERKZ16test_ring_bufferR9TestSuiteE3$_1Lb0EE3getB7v160006Ev', symObjAddr: 0x11598, symBinAddr: 0x100013BF4, symSize: 0x60 }
  - { offsetInCU: 0x68C16, offset: 0x68C16, size: 0x8, addend: 0x0, symName: '__ZNSt3__117__compressed_pairIPNS_10__function6__funcIZ16test_ring_bufferR9TestSuiteE3$_1NS_9allocatorIS5_EEFvvEEENS_22__allocator_destructorINS6_IS9_EEEEE5firstB7v160006Ev', symObjAddr: 0x115F8, symBinAddr: 0x100013C54, symSize: 0x24 }
  - { offsetInCU: 0x68C3C, offset: 0x68C3C, size: 0x8, addend: 0x0, symName: '__ZNSt3__122__compressed_pair_elemIPNS_10__function6__funcIZ16test_ring_bufferR9TestSuiteE3$_1NS_9allocatorIS5_EEFvvEEELi0ELb0EE5__getB7v160006Ev', symObjAddr: 0x1161C, symBinAddr: 0x100013C78, symSize: 0x14 }
  - { offsetInCU: 0x68C62, offset: 0x68C62, size: 0x8, addend: 0x0, symName: '__ZNSt3__110unique_ptrINS_10__function6__funcIZ16test_ring_bufferR9TestSuiteE3$_1NS_9allocatorIS5_EEFvvEEENS_22__allocator_destructorINS6_IS9_EEEEED2B7v160006Ev', symObjAddr: 0x11630, symBinAddr: 0x100013C8C, symSize: 0x30 }
  - { offsetInCU: 0x68C8C, offset: 0x68C8C, size: 0x8, addend: 0x0, symName: '__ZNSt3__110unique_ptrINS_10__function6__funcIZ16test_ring_bufferR9TestSuiteE3$_1NS_9allocatorIS5_EEFvvEEENS_22__allocator_destructorINS6_IS9_EEEEE5resetB7v160006EPS9_', symObjAddr: 0x11660, symBinAddr: 0x100013CBC, symSize: 0xEC }
  - { offsetInCU: 0x68CD0, offset: 0x68CD0, size: 0x8, addend: 0x0, symName: '__ZNSt3__117__compressed_pairIPNS_10__function6__funcIZ16test_ring_bufferR9TestSuiteE3$_1NS_9allocatorIS5_EEFvvEEENS_22__allocator_destructorINS6_IS9_EEEEE6secondB7v160006Ev', symObjAddr: 0x1174C, symBinAddr: 0x100013DA8, symSize: 0x28 }
  - { offsetInCU: 0x68CF6, offset: 0x68CF6, size: 0x8, addend: 0x0, symName: '__ZNSt3__122__allocator_destructorINS_9allocatorINS_10__function6__funcIZ16test_ring_bufferR9TestSuiteE3$_1NS1_IS6_EEFvvEEEEEEclB7v160006EPS9_', symObjAddr: 0x11774, symBinAddr: 0x100013DD0, symSize: 0xB8 }
  - { offsetInCU: 0x68D2B, offset: 0x68D2B, size: 0x8, addend: 0x0, symName: '__ZNSt3__122__compressed_pair_elemINS_22__allocator_destructorINS_9allocatorINS_10__function6__funcIZ16test_ring_bufferR9TestSuiteE3$_1NS2_IS7_EEFvvEEEEEEELi1ELb0EE5__getB7v160006Ev', symObjAddr: 0x1182C, symBinAddr: 0x100013E88, symSize: 0x14 }
  - { offsetInCU: 0x68D51, offset: 0x68D51, size: 0x8, addend: 0x0, symName: '__ZNSt3__116allocator_traitsINS_9allocatorINS_10__function6__funcIZ16test_ring_bufferR9TestSuiteE3$_1NS1_IS6_EEFvvEEEEEE10deallocateB7v160006ERSA_PS9_m', symObjAddr: 0x11840, symBinAddr: 0x100013E9C, symSize: 0x34 }
  - { offsetInCU: 0x68D93, offset: 0x68D93, size: 0x8, addend: 0x0, symName: '__ZNSt3__19allocatorINS_10__function6__funcIZ16test_ring_bufferR9TestSuiteE3$_1NS0_IS5_EEFvvEEEE10deallocateB7v160006EPS8_m', symObjAddr: 0x11874, symBinAddr: 0x100013ED0, symSize: 0x4C }
  - { offsetInCU: 0x68DD7, offset: 0x68DD7, size: 0x8, addend: 0x0, symName: '__ZNSt3__110__function6__funcIZ16test_ring_bufferR9TestSuiteE3$_1NS_9allocatorIS4_EEFvvEEC1B7v160006ERKS4_RKS6_', symObjAddr: 0x118C0, symBinAddr: 0x100013F1C, symSize: 0x3C }
  - { offsetInCU: 0x68E1F, offset: 0x68E1F, size: 0x8, addend: 0x0, symName: '__ZNSt3__110__function6__funcIZ16test_ring_bufferR9TestSuiteE3$_1NS_9allocatorIS4_EEFvvEEC2B7v160006ERKS4_RKS6_', symObjAddr: 0x118FC, symBinAddr: 0x100013F58, symSize: 0xC8 }
  - { offsetInCU: 0x68E67, offset: 0x68E67, size: 0x8, addend: 0x0, symName: '__ZNSt3__110__function12__alloc_funcIZ16test_ring_bufferR9TestSuiteE3$_1NS_9allocatorIS4_EEFvvEEC1B7v160006ERKS4_RKS6_', symObjAddr: 0x119C4, symBinAddr: 0x100014020, symSize: 0x3C }
  - { offsetInCU: 0x68EAF, offset: 0x68EAF, size: 0x8, addend: 0x0, symName: '__ZNSt3__110__function12__alloc_funcIZ16test_ring_bufferR9TestSuiteE3$_1NS_9allocatorIS4_EEFvvEEC2B7v160006ERKS4_RKS6_', symObjAddr: 0x11A00, symBinAddr: 0x10001405C, symSize: 0x314 }
  - { offsetInCU: 0x68EFA, offset: 0x68EFA, size: 0x8, addend: 0x0, symName: '__ZNSt3__117__compressed_pairIZ16test_ring_bufferR9TestSuiteE3$_1NS_9allocatorIS3_EEEC1B7v160006IJRKS3_EJRKS5_EEENS_21piecewise_construct_tENS_5tupleIJDpT_EEENSD_IJDpT0_EEE', symObjAddr: 0x11F0C, symBinAddr: 0x100014568, symSize: 0x2FC }
  - { offsetInCU: 0x68F71, offset: 0x68F71, size: 0x8, addend: 0x0, symName: '__ZNSt3__15tupleIJRKNS_9allocatorIZ16test_ring_bufferR9TestSuiteE3$_1EEEEC1B7v160006INS_4_AndELi0EEES7_', symObjAddr: 0x12208, symBinAddr: 0x100014864, symSize: 0x34 }
  - { offsetInCU: 0x68FB9, offset: 0x68FB9, size: 0x8, addend: 0x0, symName: '__ZNSt3__15tupleIJRKNS_9allocatorIZ16test_ring_bufferR9TestSuiteE3$_1EEEEC2B7v160006INS_4_AndELi0EEES7_', symObjAddr: 0x1223C, symBinAddr: 0x100014898, symSize: 0x34 }
  - { offsetInCU: 0x69001, offset: 0x69001, size: 0x8, addend: 0x0, symName: '__ZNSt3__112__tuple_implINS_15__tuple_indicesIJLm0EEEEJRKNS_9allocatorIZ16test_ring_bufferR9TestSuiteE3$_1EEEEC1B7v160006IJLm0EEJS9_EJEJEJS9_EEENS1_IJXspT_EEEENS_13__tuple_typesIJDpT0_EEENS1_IJXspT1_EEEENSD_IJDpT2_EEEDpOT3_', symObjAddr: 0x12270, symBinAddr: 0x1000148CC, symSize: 0x34 }
  - { offsetInCU: 0x69096, offset: 0x69096, size: 0x8, addend: 0x0, symName: '__ZNSt3__112__tuple_implINS_15__tuple_indicesIJLm0EEEEJRKNS_9allocatorIZ16test_ring_bufferR9TestSuiteE3$_1EEEEC2B7v160006IJLm0EEJS9_EJEJEJS9_EEENS1_IJXspT_EEEENS_13__tuple_typesIJDpT0_EEENS1_IJXspT1_EEEENSD_IJDpT2_EEEDpOT3_', symObjAddr: 0x122A4, symBinAddr: 0x100014900, symSize: 0x34 }
  - { offsetInCU: 0x6912B, offset: 0x6912B, size: 0x8, addend: 0x0, symName: '__ZNSt3__112__tuple_leafILm0ERKNS_9allocatorIZ16test_ring_bufferR9TestSuiteE3$_1EELb0EEC2B7v160006IS7_vEEOT_', symObjAddr: 0x122D8, symBinAddr: 0x100014934, symSize: 0x70 }
  - { offsetInCU: 0x6916E, offset: 0x6916E, size: 0x8, addend: 0x0, symName: '__ZNSt3__117__compressed_pairIZ16test_ring_bufferR9TestSuiteE3$_1NS_9allocatorIS3_EEEC2B7v160006IJRKS3_EJRKS5_EEENS_21piecewise_construct_tENS_5tupleIJDpT_EEENSD_IJDpT0_EEE', symObjAddr: 0x12348, symBinAddr: 0x1000149A4, symSize: 0x360 }
  - { offsetInCU: 0x691E5, offset: 0x691E5, size: 0x8, addend: 0x0, symName: '__ZNSt3__122__compressed_pair_elemINS_9allocatorIZ16test_ring_bufferR9TestSuiteE3$_1EELi1ELb1EEC2B7v160006IJRKS5_EJLm0EEEENS_21piecewise_construct_tENS_5tupleIJDpT_EEENS_15__tuple_indicesIJXspT0_EEEE', symObjAddr: 0x126A8, symBinAddr: 0x100014D04, symSize: 0x200 }
  - { offsetInCU: 0x69250, offset: 0x69250, size: 0x8, addend: 0x0, symName: '__ZNSt3__112__tuple_leafILm0ERKNS_9allocatorIZ16test_ring_bufferR9TestSuiteE3$_1EELb0EE3getB7v160006Ev', symObjAddr: 0x128CC, symBinAddr: 0x100014F28, symSize: 0x60 }
  - { offsetInCU: 0x69276, offset: 0x69276, size: 0x8, addend: 0x0, symName: '__ZNSt3__110__function12__alloc_funcIZ16test_ring_bufferR9TestSuiteE3$_1NS_9allocatorIS4_EEFvvEE7destroyB7v160006Ev', symObjAddr: 0x1292C, symBinAddr: 0x100014F88, symSize: 0x10 }
  - { offsetInCU: 0x6929C, offset: 0x6929C, size: 0x8, addend: 0x0, symName: '__ZNSt3__110__function12__alloc_funcIZ16test_ring_bufferR9TestSuiteE3$_1NS_9allocatorIS4_EEFvvEEclB7v160006Ev', symObjAddr: 0x1293C, symBinAddr: 0x100014F98, symSize: 0x28 }
  - { offsetInCU: 0x692C2, offset: 0x692C2, size: 0x8, addend: 0x0, symName: '__ZNSt3__128__invoke_void_return_wrapperIvLb1EE6__callIJRZ16test_ring_bufferR9TestSuiteE3$_1EEEvDpOT_', symObjAddr: 0x12964, symBinAddr: 0x100014FC0, symSize: 0x24 }
  - { offsetInCU: 0x692F1, offset: 0x692F1, size: 0x8, addend: 0x0, symName: '__ZNSt3__117__compressed_pairIZ16test_ring_bufferR9TestSuiteE3$_1NS_9allocatorIS3_EEE5firstB7v160006Ev', symObjAddr: 0x12988, symBinAddr: 0x100014FE4, symSize: 0x24 }
  - { offsetInCU: 0x6931D, offset: 0x6931D, size: 0x8, addend: 0x0, symName: '__ZZ16test_ring_bufferR9TestSuiteENK3$_1clEv', symObjAddr: 0x129D0, symBinAddr: 0x10001502C, symSize: 0x3D0 }
  - { offsetInCU: 0x693A7, offset: 0x693A7, size: 0x8, addend: 0x0, symName: __ZNK5queue20MarketDataRingBuffer11size_approxEv, symObjAddr: 0x12DA0, symBinAddr: 0x1000153FC, symSize: 0xA0 }
  - { offsetInCU: 0x693EB, offset: 0x693EB, size: 0x8, addend: 0x0, symName: '__ZNSt3__122__compressed_pair_elemIZ16test_ring_bufferR9TestSuiteE3$_1Li0ELb1EE5__getB7v160006Ev', symObjAddr: 0x12E40, symBinAddr: 0x10001549C, symSize: 0x14 }
  - { offsetInCU: 0x69411, offset: 0x69411, size: 0x8, addend: 0x0, symName: '__ZNSt3__18functionIFvvEEC2IZ21test_order_book_cacheR9TestSuiteE3$_2vEET_', symObjAddr: 0x12E54, symBinAddr: 0x1000154B0, symSize: 0x1BC }
  - { offsetInCU: 0x6945B, offset: 0x6945B, size: 0x8, addend: 0x0, symName: '__ZNSt3__110__function12__value_funcIFvvEEC1B7v160006IZ21test_order_book_cacheR9TestSuiteE3$_2vEEOT_', symObjAddr: 0x13010, symBinAddr: 0x10001566C, symSize: 0x1F8 }
  - { offsetInCU: 0x694A0, offset: 0x694A0, size: 0x8, addend: 0x0, symName: '__ZNSt3__19allocatorIZ21test_order_book_cacheR9TestSuiteE3$_2EC1B7v160006Ev', symObjAddr: 0x13208, symBinAddr: 0x100015864, symSize: 0x2C }
  - { offsetInCU: 0x694CA, offset: 0x694CA, size: 0x8, addend: 0x0, symName: '__ZNSt3__110__function12__value_funcIFvvEEC1B7v160006IZ21test_order_book_cacheR9TestSuiteE3$_2NS_9allocatorIS7_EEEEOT_RKT0_', symObjAddr: 0x13234, symBinAddr: 0x100015890, symSize: 0x3C }
  - { offsetInCU: 0x69524, offset: 0x69524, size: 0x8, addend: 0x0, symName: '__ZNSt3__19allocatorIZ21test_order_book_cacheR9TestSuiteE3$_2EC2B7v160006Ev', symObjAddr: 0x13270, symBinAddr: 0x1000158CC, symSize: 0x2C }
  - { offsetInCU: 0x6954E, offset: 0x6954E, size: 0x8, addend: 0x0, symName: '__ZNSt3__116__non_trivial_ifILb1ENS_9allocatorIZ21test_order_book_cacheR9TestSuiteE3$_2EEEC2B7v160006Ev', symObjAddr: 0x1329C, symBinAddr: 0x1000158F8, symSize: 0x14 }
  - { offsetInCU: 0x69578, offset: 0x69578, size: 0x8, addend: 0x0, symName: '__ZNSt3__110__function12__value_funcIFvvEEC2B7v160006IZ21test_order_book_cacheR9TestSuiteE3$_2NS_9allocatorIS7_EEEEOT_RKT0_', symObjAddr: 0x132B0, symBinAddr: 0x10001590C, symSize: 0x2D0 }
  - { offsetInCU: 0x69606, offset: 0x69606, size: 0x8, addend: 0x0, symName: '__ZNSt3__19allocatorINS_10__function6__funcIZ21test_order_book_cacheR9TestSuiteE3$_2NS0_IS5_EEFvvEEEEC1B7v160006IS5_EERKNS0_IT_EE', symObjAddr: 0x13598, symBinAddr: 0x100015BF4, symSize: 0x34 }
  - { offsetInCU: 0x6964E, offset: 0x6964E, size: 0x8, addend: 0x0, symName: '__ZNSt3__19allocatorIZ21test_order_book_cacheR9TestSuiteE3$_2EC1B7v160006INS_10__function6__funcIS3_S4_FvvEEEEERKNS0_IT_EE', symObjAddr: 0x135CC, symBinAddr: 0x100015C28, symSize: 0x34 }
  - { offsetInCU: 0x6968B, offset: 0x6968B, size: 0x8, addend: 0x0, symName: '__ZNSt3__110__function6__funcIZ21test_order_book_cacheR9TestSuiteE3$_2NS_9allocatorIS4_EEFvvEEC1B7v160006EOS4_OS6_', symObjAddr: 0x13600, symBinAddr: 0x100015C5C, symSize: 0x3C }
  - { offsetInCU: 0x696D3, offset: 0x696D3, size: 0x8, addend: 0x0, symName: '__ZNSt3__19allocatorINS_10__function6__funcIZ21test_order_book_cacheR9TestSuiteE3$_2NS0_IS5_EEFvvEEEEC2B7v160006IS5_EERKNS0_IT_EE', symObjAddr: 0x1363C, symBinAddr: 0x100015C98, symSize: 0x30 }
  - { offsetInCU: 0x69710, offset: 0x69710, size: 0x8, addend: 0x0, symName: '__ZNSt3__116__non_trivial_ifILb1ENS_9allocatorINS_10__function6__funcIZ21test_order_book_cacheR9TestSuiteE3$_2NS1_IS6_EEFvvEEEEEEC2B7v160006Ev', symObjAddr: 0x1366C, symBinAddr: 0x100015CC8, symSize: 0x14 }
  - { offsetInCU: 0x6973A, offset: 0x6973A, size: 0x8, addend: 0x0, symName: '__ZNSt3__19allocatorIZ21test_order_book_cacheR9TestSuiteE3$_2EC2B7v160006INS_10__function6__funcIS3_S4_FvvEEEEERKNS0_IT_EE', symObjAddr: 0x13680, symBinAddr: 0x100015CDC, symSize: 0x30 }
  - { offsetInCU: 0x69777, offset: 0x69777, size: 0x8, addend: 0x0, symName: '__ZNSt3__110__function6__funcIZ21test_order_book_cacheR9TestSuiteE3$_2NS_9allocatorIS4_EEFvvEEC2B7v160006EOS4_OS6_', symObjAddr: 0x136B0, symBinAddr: 0x100015D0C, symSize: 0xC8 }
  - { offsetInCU: 0x697BF, offset: 0x697BF, size: 0x8, addend: 0x0, symName: '__ZNSt3__110__function12__alloc_funcIZ21test_order_book_cacheR9TestSuiteE3$_2NS_9allocatorIS4_EEFvvEEC1B7v160006EOS4_OS6_', symObjAddr: 0x13778, symBinAddr: 0x100015DD4, symSize: 0x3C }
  - { offsetInCU: 0x69807, offset: 0x69807, size: 0x8, addend: 0x0, symName: '__ZNSt3__110__function6__funcIZ21test_order_book_cacheR9TestSuiteE3$_2NS_9allocatorIS4_EEFvvEED1Ev', symObjAddr: 0x137B4, symBinAddr: 0x100015E10, symSize: 0x2C }
  - { offsetInCU: 0x69834, offset: 0x69834, size: 0x8, addend: 0x0, symName: '__ZNSt3__110__function6__funcIZ21test_order_book_cacheR9TestSuiteE3$_2NS_9allocatorIS4_EEFvvEED0Ev', symObjAddr: 0x137E0, symBinAddr: 0x100015E3C, symSize: 0x30 }
  - { offsetInCU: 0x69861, offset: 0x69861, size: 0x8, addend: 0x0, symName: '__ZNKSt3__110__function6__funcIZ21test_order_book_cacheR9TestSuiteE3$_2NS_9allocatorIS4_EEFvvEE7__cloneEv', symObjAddr: 0x13810, symBinAddr: 0x100015E6C, symSize: 0x448 }
  - { offsetInCU: 0x698BC, offset: 0x698BC, size: 0x8, addend: 0x0, symName: '__ZNKSt3__110__function6__funcIZ21test_order_book_cacheR9TestSuiteE3$_2NS_9allocatorIS4_EEFvvEE7__cloneEPNS0_6__baseIS7_EE', symObjAddr: 0x13C58, symBinAddr: 0x1000162B4, symSize: 0x58 }
  - { offsetInCU: 0x698F3, offset: 0x698F3, size: 0x8, addend: 0x0, symName: '__ZNSt3__110__function6__funcIZ21test_order_book_cacheR9TestSuiteE3$_2NS_9allocatorIS4_EEFvvEE7destroyEv', symObjAddr: 0x13CB0, symBinAddr: 0x10001630C, symSize: 0x28 }
  - { offsetInCU: 0x6991B, offset: 0x6991B, size: 0x8, addend: 0x0, symName: '__ZNSt3__110__function6__funcIZ21test_order_book_cacheR9TestSuiteE3$_2NS_9allocatorIS4_EEFvvEE18destroy_deallocateEv', symObjAddr: 0x13CD8, symBinAddr: 0x100016334, symSize: 0x204 }
  - { offsetInCU: 0x69963, offset: 0x69963, size: 0x8, addend: 0x0, symName: '__ZNSt3__110__function6__funcIZ21test_order_book_cacheR9TestSuiteE3$_2NS_9allocatorIS4_EEFvvEEclEv', symObjAddr: 0x13EDC, symBinAddr: 0x100016538, symSize: 0x28 }
  - { offsetInCU: 0x6998B, offset: 0x6998B, size: 0x8, addend: 0x0, symName: '__ZNKSt3__110__function6__funcIZ21test_order_book_cacheR9TestSuiteE3$_2NS_9allocatorIS4_EEFvvEE6targetERKSt9type_info', symObjAddr: 0x13F04, symBinAddr: 0x100016560, symSize: 0x60 }
  - { offsetInCU: 0x699C2, offset: 0x699C2, size: 0x8, addend: 0x0, symName: '__ZNKSt3__110__function6__funcIZ21test_order_book_cacheR9TestSuiteE3$_2NS_9allocatorIS4_EEFvvEE11target_typeEv', symObjAddr: 0x13F64, symBinAddr: 0x1000165C0, symSize: 0x18 }
  - { offsetInCU: 0x699EA, offset: 0x699EA, size: 0x8, addend: 0x0, symName: '__ZNSt3__110__function12__alloc_funcIZ21test_order_book_cacheR9TestSuiteE3$_2NS_9allocatorIS4_EEFvvEEC2B7v160006EOS4_OS6_', symObjAddr: 0x13F7C, symBinAddr: 0x1000165D8, symSize: 0x314 }
  - { offsetInCU: 0x69A35, offset: 0x69A35, size: 0x8, addend: 0x0, symName: '__ZNSt3__117__compressed_pairIZ21test_order_book_cacheR9TestSuiteE3$_2NS_9allocatorIS3_EEEC1B7v160006IJOS3_EJOS5_EEENS_21piecewise_construct_tENS_5tupleIJDpT_EEENSB_IJDpT0_EEE', symObjAddr: 0x14680, symBinAddr: 0x100016CDC, symSize: 0x2FC }
  - { offsetInCU: 0x69AAC, offset: 0x69AAC, size: 0x8, addend: 0x0, symName: '__ZNSt3__15tupleIJOZ21test_order_book_cacheR9TestSuiteE3$_2EEC1B7v160006IJS3_ELi0EEEDpOT_', symObjAddr: 0x1497C, symBinAddr: 0x100016FD8, symSize: 0x34 }
  - { offsetInCU: 0x69AF6, offset: 0x69AF6, size: 0x8, addend: 0x0, symName: '__ZNSt3__15tupleIJOZ21test_order_book_cacheR9TestSuiteE3$_2EEC2B7v160006IJS3_ELi0EEEDpOT_', symObjAddr: 0x149B0, symBinAddr: 0x10001700C, symSize: 0x34 }
  - { offsetInCU: 0x69B40, offset: 0x69B40, size: 0x8, addend: 0x0, symName: '__ZNSt3__112__tuple_implINS_15__tuple_indicesIJLm0EEEEJOZ21test_order_book_cacheR9TestSuiteE3$_2EEC1B7v160006IJLm0EEJS6_EJEJEJS5_EEENS1_IJXspT_EEEENS_13__tuple_typesIJDpT0_EEENS1_IJXspT1_EEEENSA_IJDpT2_EEEDpOT3_', symObjAddr: 0x149E4, symBinAddr: 0x100017040, symSize: 0x34 }
  - { offsetInCU: 0x69BD5, offset: 0x69BD5, size: 0x8, addend: 0x0, symName: '__ZNSt3__112__tuple_implINS_15__tuple_indicesIJLm0EEEEJOZ21test_order_book_cacheR9TestSuiteE3$_2EEC2B7v160006IJLm0EEJS6_EJEJEJS5_EEENS1_IJXspT_EEEENS_13__tuple_typesIJDpT0_EEENS1_IJXspT1_EEEENSA_IJDpT2_EEEDpOT3_', symObjAddr: 0x14A18, symBinAddr: 0x100017074, symSize: 0x34 }
  - { offsetInCU: 0x69C6A, offset: 0x69C6A, size: 0x8, addend: 0x0, symName: '__ZNSt3__112__tuple_leafILm0EOZ21test_order_book_cacheR9TestSuiteE3$_2Lb0EEC2B7v160006IS3_vEEOT_', symObjAddr: 0x14A4C, symBinAddr: 0x1000170A8, symSize: 0x70 }
  - { offsetInCU: 0x69CAD, offset: 0x69CAD, size: 0x8, addend: 0x0, symName: '__ZNSt3__15tupleIJONS_9allocatorIZ21test_order_book_cacheR9TestSuiteE3$_2EEEEC1B7v160006IJS5_ELi0EEEDpOT_', symObjAddr: 0x14ABC, symBinAddr: 0x100017118, symSize: 0x34 }
  - { offsetInCU: 0x69CF7, offset: 0x69CF7, size: 0x8, addend: 0x0, symName: '__ZNSt3__15tupleIJONS_9allocatorIZ21test_order_book_cacheR9TestSuiteE3$_2EEEEC2B7v160006IJS5_ELi0EEEDpOT_', symObjAddr: 0x14AF0, symBinAddr: 0x10001714C, symSize: 0x34 }
  - { offsetInCU: 0x69D41, offset: 0x69D41, size: 0x8, addend: 0x0, symName: '__ZNSt3__112__tuple_implINS_15__tuple_indicesIJLm0EEEEJONS_9allocatorIZ21test_order_book_cacheR9TestSuiteE3$_2EEEEC1B7v160006IJLm0EEJS8_EJEJEJS7_EEENS1_IJXspT_EEEENS_13__tuple_typesIJDpT0_EEENS1_IJXspT1_EEEENSC_IJDpT2_EEEDpOT3_', symObjAddr: 0x14B24, symBinAddr: 0x100017180, symSize: 0x34 }
  - { offsetInCU: 0x69DD6, offset: 0x69DD6, size: 0x8, addend: 0x0, symName: '__ZNSt3__112__tuple_implINS_15__tuple_indicesIJLm0EEEEJONS_9allocatorIZ21test_order_book_cacheR9TestSuiteE3$_2EEEEC2B7v160006IJLm0EEJS8_EJEJEJS7_EEENS1_IJXspT_EEEENS_13__tuple_typesIJDpT0_EEENS1_IJXspT1_EEEENSC_IJDpT2_EEEDpOT3_', symObjAddr: 0x14B58, symBinAddr: 0x1000171B4, symSize: 0x34 }
  - { offsetInCU: 0x69E6B, offset: 0x69E6B, size: 0x8, addend: 0x0, symName: '__ZNSt3__112__tuple_leafILm0EONS_9allocatorIZ21test_order_book_cacheR9TestSuiteE3$_2EELb0EEC2B7v160006IS5_vEEOT_', symObjAddr: 0x14B8C, symBinAddr: 0x1000171E8, symSize: 0x70 }
  - { offsetInCU: 0x69EAE, offset: 0x69EAE, size: 0x8, addend: 0x0, symName: '__ZNSt3__117__compressed_pairIZ21test_order_book_cacheR9TestSuiteE3$_2NS_9allocatorIS3_EEEC2B7v160006IJOS3_EJOS5_EEENS_21piecewise_construct_tENS_5tupleIJDpT_EEENSB_IJDpT0_EEE', symObjAddr: 0x14BFC, symBinAddr: 0x100017258, symSize: 0x360 }
  - { offsetInCU: 0x69F25, offset: 0x69F25, size: 0x8, addend: 0x0, symName: '__ZNSt3__122__compressed_pair_elemIZ21test_order_book_cacheR9TestSuiteE3$_2Li0ELb1EEC2B7v160006IJOS3_EJLm0EEEENS_21piecewise_construct_tENS_5tupleIJDpT_EEENS_15__tuple_indicesIJXspT0_EEEE', symObjAddr: 0x14F5C, symBinAddr: 0x1000175B8, symSize: 0x200 }
  - { offsetInCU: 0x69F90, offset: 0x69F90, size: 0x8, addend: 0x0, symName: '__ZNSt3__122__compressed_pair_elemINS_9allocatorIZ21test_order_book_cacheR9TestSuiteE3$_2EELi1ELb1EEC2B7v160006IJOS5_EJLm0EEEENS_21piecewise_construct_tENS_5tupleIJDpT_EEENS_15__tuple_indicesIJXspT0_EEEE', symObjAddr: 0x1515C, symBinAddr: 0x1000177B8, symSize: 0x200 }
  - { offsetInCU: 0x69FFB, offset: 0x69FFB, size: 0x8, addend: 0x0, symName: '__ZNSt3__112__tuple_leafILm0EOZ21test_order_book_cacheR9TestSuiteE3$_2Lb0EE3getB7v160006Ev', symObjAddr: 0x15380, symBinAddr: 0x1000179DC, symSize: 0x60 }
  - { offsetInCU: 0x6A021, offset: 0x6A021, size: 0x8, addend: 0x0, symName: '__ZNSt3__112__tuple_leafILm0EONS_9allocatorIZ21test_order_book_cacheR9TestSuiteE3$_2EELb0EE3getB7v160006Ev', symObjAddr: 0x15404, symBinAddr: 0x100017A60, symSize: 0x60 }
  - { offsetInCU: 0x6A047, offset: 0x6A047, size: 0x8, addend: 0x0, symName: '__ZNSt3__110__function6__funcIZ21test_order_book_cacheR9TestSuiteE3$_2NS_9allocatorIS4_EEFvvEED2Ev', symObjAddr: 0x15464, symBinAddr: 0x100017AC0, symSize: 0x2C }
  - { offsetInCU: 0x6A074, offset: 0x6A074, size: 0x8, addend: 0x0, symName: '__ZNKSt3__110__function12__alloc_funcIZ21test_order_book_cacheR9TestSuiteE3$_2NS_9allocatorIS4_EEFvvEE15__get_allocatorB7v160006Ev', symObjAddr: 0x15490, symBinAddr: 0x100017AEC, symSize: 0x24 }
  - { offsetInCU: 0x6A09A, offset: 0x6A09A, size: 0x8, addend: 0x0, symName: '__ZNSt3__19allocatorINS_10__function6__funcIZ21test_order_book_cacheR9TestSuiteE3$_2NS0_IS5_EEFvvEEEE8allocateB7v160006Em', symObjAddr: 0x154B4, symBinAddr: 0x100017B10, symSize: 0x5C }
  - { offsetInCU: 0x6A0E1, offset: 0x6A0E1, size: 0x8, addend: 0x0, symName: '__ZNSt3__122__allocator_destructorINS_9allocatorINS_10__function6__funcIZ21test_order_book_cacheR9TestSuiteE3$_2NS1_IS6_EEFvvEEEEEEC1B7v160006ERSA_m', symObjAddr: 0x15510, symBinAddr: 0x100017B6C, symSize: 0x3C }
  - { offsetInCU: 0x6A1D0, offset: 0x6A1D0, size: 0x8, addend: 0x0, symName: '__ZNSt3__110unique_ptrINS_10__function6__funcIZ21test_order_book_cacheR9TestSuiteE3$_2NS_9allocatorIS5_EEFvvEEENS_22__allocator_destructorINS6_IS9_EEEEEC1B7v160006ILb1EvEEPS9_NS_16__dependent_typeINS_27__unique_ptr_deleter_sfinaeISC_EEXT_EE20__good_rval_ref_typeE', symObjAddr: 0x1554C, symBinAddr: 0x100017BA8, symSize: 0x3C }
  - { offsetInCU: 0x6A223, offset: 0x6A223, size: 0x8, addend: 0x0, symName: '__ZNKSt3__110unique_ptrINS_10__function6__funcIZ21test_order_book_cacheR9TestSuiteE3$_2NS_9allocatorIS5_EEFvvEEENS_22__allocator_destructorINS6_IS9_EEEEE3getB7v160006Ev', symObjAddr: 0x15588, symBinAddr: 0x100017BE4, symSize: 0x6C }
  - { offsetInCU: 0x6A249, offset: 0x6A249, size: 0x8, addend: 0x0, symName: '__ZNKSt3__110__function12__alloc_funcIZ21test_order_book_cacheR9TestSuiteE3$_2NS_9allocatorIS4_EEFvvEE8__targetB7v160006Ev', symObjAddr: 0x155F4, symBinAddr: 0x100017C50, symSize: 0x24 }
  - { offsetInCU: 0x6A26F, offset: 0x6A26F, size: 0x8, addend: 0x0, symName: '__ZNSt3__110__function6__funcIZ21test_order_book_cacheR9TestSuiteE3$_2NS_9allocatorIS4_EEFvvEEC1B7v160006ERKS4_OS6_', symObjAddr: 0x15618, symBinAddr: 0x100017C74, symSize: 0x3C }
  - { offsetInCU: 0x6A2B7, offset: 0x6A2B7, size: 0x8, addend: 0x0, symName: '__ZNSt3__110unique_ptrINS_10__function6__funcIZ21test_order_book_cacheR9TestSuiteE3$_2NS_9allocatorIS5_EEFvvEEENS_22__allocator_destructorINS6_IS9_EEEEE7releaseB7v160006Ev', symObjAddr: 0x15654, symBinAddr: 0x100017CB0, symSize: 0xB8 }
  - { offsetInCU: 0x6A2EC, offset: 0x6A2EC, size: 0x8, addend: 0x0, symName: '__ZNSt3__110unique_ptrINS_10__function6__funcIZ21test_order_book_cacheR9TestSuiteE3$_2NS_9allocatorIS5_EEFvvEEENS_22__allocator_destructorINS6_IS9_EEEEED1B7v160006Ev', symObjAddr: 0x1570C, symBinAddr: 0x100017D68, symSize: 0x2C }
  - { offsetInCU: 0x6A316, offset: 0x6A316, size: 0x8, addend: 0x0, symName: '__ZNKSt3__117__compressed_pairIZ21test_order_book_cacheR9TestSuiteE3$_2NS_9allocatorIS3_EEE6secondB7v160006Ev', symObjAddr: 0x15738, symBinAddr: 0x100017D94, symSize: 0x24 }
  - { offsetInCU: 0x6A33C, offset: 0x6A33C, size: 0x8, addend: 0x0, symName: '__ZNKSt3__122__compressed_pair_elemINS_9allocatorIZ21test_order_book_cacheR9TestSuiteE3$_2EELi1ELb1EE5__getB7v160006Ev', symObjAddr: 0x1575C, symBinAddr: 0x100017DB8, symSize: 0x14 }
  - { offsetInCU: 0x6A36D, offset: 0x6A36D, size: 0x8, addend: 0x0, symName: '__ZNSt3__116allocator_traitsINS_9allocatorINS_10__function6__funcIZ21test_order_book_cacheR9TestSuiteE3$_2NS1_IS6_EEFvvEEEEEE8max_sizeB7v160006ISA_vvEEmRKSA_', symObjAddr: 0x15770, symBinAddr: 0x100017DCC, symSize: 0x28 }
  - { offsetInCU: 0x6A399, offset: 0x6A399, size: 0x8, addend: 0x0, symName: '__ZNSt3__122__allocator_destructorINS_9allocatorINS_10__function6__funcIZ21test_order_book_cacheR9TestSuiteE3$_2NS1_IS6_EEFvvEEEEEEC2B7v160006ERSA_m', symObjAddr: 0x15798, symBinAddr: 0x100017DF4, symSize: 0xBC }
  - { offsetInCU: 0x6A3E1, offset: 0x6A3E1, size: 0x8, addend: 0x0, symName: '__ZNSt3__110unique_ptrINS_10__function6__funcIZ21test_order_book_cacheR9TestSuiteE3$_2NS_9allocatorIS5_EEFvvEEENS_22__allocator_destructorINS6_IS9_EEEEEC2B7v160006ILb1EvEEPS9_NS_16__dependent_typeINS_27__unique_ptr_deleter_sfinaeISC_EEXT_EE20__good_rval_ref_typeE', symObjAddr: 0x15854, symBinAddr: 0x100017EB0, symSize: 0x21C }
  - { offsetInCU: 0x6A43A, offset: 0x6A43A, size: 0x8, addend: 0x0, symName: '__ZNSt3__117__compressed_pairIPNS_10__function6__funcIZ21test_order_book_cacheR9TestSuiteE3$_2NS_9allocatorIS5_EEFvvEEENS_22__allocator_destructorINS6_IS9_EEEEEC1B7v160006IRSA_SD_EEOT_OT0_', symObjAddr: 0x15A70, symBinAddr: 0x1000180CC, symSize: 0x3C }
  - { offsetInCU: 0x6A494, offset: 0x6A494, size: 0x8, addend: 0x0, symName: '__ZNSt3__117__compressed_pairIPNS_10__function6__funcIZ21test_order_book_cacheR9TestSuiteE3$_2NS_9allocatorIS5_EEFvvEEENS_22__allocator_destructorINS6_IS9_EEEEEC2B7v160006IRSA_SD_EEOT_OT0_', symObjAddr: 0x15AAC, symBinAddr: 0x100018108, symSize: 0x48 }
  - { offsetInCU: 0x6A4EE, offset: 0x6A4EE, size: 0x8, addend: 0x0, symName: '__ZNSt3__122__compressed_pair_elemIPNS_10__function6__funcIZ21test_order_book_cacheR9TestSuiteE3$_2NS_9allocatorIS5_EEFvvEEELi0ELb0EEC2B7v160006IRSA_vEEOT_', symObjAddr: 0x15AF4, symBinAddr: 0x100018150, symSize: 0xB0 }
  - { offsetInCU: 0x6A531, offset: 0x6A531, size: 0x8, addend: 0x0, symName: '__ZNSt3__122__compressed_pair_elemINS_22__allocator_destructorINS_9allocatorINS_10__function6__funcIZ21test_order_book_cacheR9TestSuiteE3$_2NS2_IS7_EEFvvEEEEEEELi1ELb0EEC2B7v160006ISC_vEEOT_', symObjAddr: 0x15BA4, symBinAddr: 0x100018200, symSize: 0x38 }
  - { offsetInCU: 0x6A574, offset: 0x6A574, size: 0x8, addend: 0x0, symName: '__ZNKSt3__117__compressed_pairIPNS_10__function6__funcIZ21test_order_book_cacheR9TestSuiteE3$_2NS_9allocatorIS5_EEFvvEEENS_22__allocator_destructorINS6_IS9_EEEEE5firstB7v160006Ev', symObjAddr: 0x15BDC, symBinAddr: 0x100018238, symSize: 0x24 }
  - { offsetInCU: 0x6A59A, offset: 0x6A59A, size: 0x8, addend: 0x0, symName: '__ZNKSt3__122__compressed_pair_elemIPNS_10__function6__funcIZ21test_order_book_cacheR9TestSuiteE3$_2NS_9allocatorIS5_EEFvvEEELi0ELb0EE5__getB7v160006Ev', symObjAddr: 0x15C00, symBinAddr: 0x10001825C, symSize: 0x14 }
  - { offsetInCU: 0x6A5C0, offset: 0x6A5C0, size: 0x8, addend: 0x0, symName: '__ZNKSt3__117__compressed_pairIZ21test_order_book_cacheR9TestSuiteE3$_2NS_9allocatorIS3_EEE5firstB7v160006Ev', symObjAddr: 0x15C14, symBinAddr: 0x100018270, symSize: 0x24 }
  - { offsetInCU: 0x6A5E6, offset: 0x6A5E6, size: 0x8, addend: 0x0, symName: '__ZNKSt3__122__compressed_pair_elemIZ21test_order_book_cacheR9TestSuiteE3$_2Li0ELb1EE5__getB7v160006Ev', symObjAddr: 0x15C38, symBinAddr: 0x100018294, symSize: 0x14 }
  - { offsetInCU: 0x6A60C, offset: 0x6A60C, size: 0x8, addend: 0x0, symName: '__ZNSt3__110__function6__funcIZ21test_order_book_cacheR9TestSuiteE3$_2NS_9allocatorIS4_EEFvvEEC2B7v160006ERKS4_OS6_', symObjAddr: 0x15C4C, symBinAddr: 0x1000182A8, symSize: 0xC8 }
  - { offsetInCU: 0x6A654, offset: 0x6A654, size: 0x8, addend: 0x0, symName: '__ZNSt3__110__function12__alloc_funcIZ21test_order_book_cacheR9TestSuiteE3$_2NS_9allocatorIS4_EEFvvEEC1B7v160006ERKS4_OS6_', symObjAddr: 0x15D14, symBinAddr: 0x100018370, symSize: 0x3C }
  - { offsetInCU: 0x6A69C, offset: 0x6A69C, size: 0x8, addend: 0x0, symName: '__ZNSt3__110__function12__alloc_funcIZ21test_order_book_cacheR9TestSuiteE3$_2NS_9allocatorIS4_EEFvvEEC2B7v160006ERKS4_OS6_', symObjAddr: 0x15D50, symBinAddr: 0x1000183AC, symSize: 0x314 }
  - { offsetInCU: 0x6A6E7, offset: 0x6A6E7, size: 0x8, addend: 0x0, symName: '__ZNSt3__117__compressed_pairIZ21test_order_book_cacheR9TestSuiteE3$_2NS_9allocatorIS3_EEEC1B7v160006IJRKS3_EJOS5_EEENS_21piecewise_construct_tENS_5tupleIJDpT_EEENSC_IJDpT0_EEE', symObjAddr: 0x1625C, symBinAddr: 0x1000188B8, symSize: 0x2FC }
  - { offsetInCU: 0x6A75E, offset: 0x6A75E, size: 0x8, addend: 0x0, symName: '__ZNSt3__15tupleIJRKZ21test_order_book_cacheR9TestSuiteE3$_2EEC1B7v160006INS_4_AndELi0EEES5_', symObjAddr: 0x16558, symBinAddr: 0x100018BB4, symSize: 0x34 }
  - { offsetInCU: 0x6A7A6, offset: 0x6A7A6, size: 0x8, addend: 0x0, symName: '__ZNSt3__15tupleIJRKZ21test_order_book_cacheR9TestSuiteE3$_2EEC2B7v160006INS_4_AndELi0EEES5_', symObjAddr: 0x1658C, symBinAddr: 0x100018BE8, symSize: 0x34 }
  - { offsetInCU: 0x6A7EE, offset: 0x6A7EE, size: 0x8, addend: 0x0, symName: '__ZNSt3__112__tuple_implINS_15__tuple_indicesIJLm0EEEEJRKZ21test_order_book_cacheR9TestSuiteE3$_2EEC1B7v160006IJLm0EEJS7_EJEJEJS7_EEENS1_IJXspT_EEEENS_13__tuple_typesIJDpT0_EEENS1_IJXspT1_EEEENSB_IJDpT2_EEEDpOT3_', symObjAddr: 0x165C0, symBinAddr: 0x100018C1C, symSize: 0x34 }
  - { offsetInCU: 0x6A883, offset: 0x6A883, size: 0x8, addend: 0x0, symName: '__ZNSt3__112__tuple_implINS_15__tuple_indicesIJLm0EEEEJRKZ21test_order_book_cacheR9TestSuiteE3$_2EEC2B7v160006IJLm0EEJS7_EJEJEJS7_EEENS1_IJXspT_EEEENS_13__tuple_typesIJDpT0_EEENS1_IJXspT1_EEEENSB_IJDpT2_EEEDpOT3_', symObjAddr: 0x165F4, symBinAddr: 0x100018C50, symSize: 0x34 }
  - { offsetInCU: 0x6A918, offset: 0x6A918, size: 0x8, addend: 0x0, symName: '__ZNSt3__112__tuple_leafILm0ERKZ21test_order_book_cacheR9TestSuiteE3$_2Lb0EEC2B7v160006IS5_vEEOT_', symObjAddr: 0x16628, symBinAddr: 0x100018C84, symSize: 0x70 }
  - { offsetInCU: 0x6A95B, offset: 0x6A95B, size: 0x8, addend: 0x0, symName: '__ZNSt3__117__compressed_pairIZ21test_order_book_cacheR9TestSuiteE3$_2NS_9allocatorIS3_EEEC2B7v160006IJRKS3_EJOS5_EEENS_21piecewise_construct_tENS_5tupleIJDpT_EEENSC_IJDpT0_EEE', symObjAddr: 0x16698, symBinAddr: 0x100018CF4, symSize: 0x360 }
  - { offsetInCU: 0x6A9D2, offset: 0x6A9D2, size: 0x8, addend: 0x0, symName: '__ZNSt3__122__compressed_pair_elemIZ21test_order_book_cacheR9TestSuiteE3$_2Li0ELb1EEC2B7v160006IJRKS3_EJLm0EEEENS_21piecewise_construct_tENS_5tupleIJDpT_EEENS_15__tuple_indicesIJXspT0_EEEE', symObjAddr: 0x169F8, symBinAddr: 0x100019054, symSize: 0x200 }
  - { offsetInCU: 0x6AA3D, offset: 0x6AA3D, size: 0x8, addend: 0x0, symName: '__ZNSt3__112__tuple_leafILm0ERKZ21test_order_book_cacheR9TestSuiteE3$_2Lb0EE3getB7v160006Ev', symObjAddr: 0x16C1C, symBinAddr: 0x100019278, symSize: 0x60 }
  - { offsetInCU: 0x6AA63, offset: 0x6AA63, size: 0x8, addend: 0x0, symName: '__ZNSt3__117__compressed_pairIPNS_10__function6__funcIZ21test_order_book_cacheR9TestSuiteE3$_2NS_9allocatorIS5_EEFvvEEENS_22__allocator_destructorINS6_IS9_EEEEE5firstB7v160006Ev', symObjAddr: 0x16C7C, symBinAddr: 0x1000192D8, symSize: 0x24 }
  - { offsetInCU: 0x6AA89, offset: 0x6AA89, size: 0x8, addend: 0x0, symName: '__ZNSt3__122__compressed_pair_elemIPNS_10__function6__funcIZ21test_order_book_cacheR9TestSuiteE3$_2NS_9allocatorIS5_EEFvvEEELi0ELb0EE5__getB7v160006Ev', symObjAddr: 0x16CA0, symBinAddr: 0x1000192FC, symSize: 0x14 }
  - { offsetInCU: 0x6AAAF, offset: 0x6AAAF, size: 0x8, addend: 0x0, symName: '__ZNSt3__110unique_ptrINS_10__function6__funcIZ21test_order_book_cacheR9TestSuiteE3$_2NS_9allocatorIS5_EEFvvEEENS_22__allocator_destructorINS6_IS9_EEEEED2B7v160006Ev', symObjAddr: 0x16CB4, symBinAddr: 0x100019310, symSize: 0x30 }
  - { offsetInCU: 0x6AAD9, offset: 0x6AAD9, size: 0x8, addend: 0x0, symName: '__ZNSt3__110unique_ptrINS_10__function6__funcIZ21test_order_book_cacheR9TestSuiteE3$_2NS_9allocatorIS5_EEFvvEEENS_22__allocator_destructorINS6_IS9_EEEEE5resetB7v160006EPS9_', symObjAddr: 0x16CE4, symBinAddr: 0x100019340, symSize: 0xEC }
  - { offsetInCU: 0x6AB1D, offset: 0x6AB1D, size: 0x8, addend: 0x0, symName: '__ZNSt3__117__compressed_pairIPNS_10__function6__funcIZ21test_order_book_cacheR9TestSuiteE3$_2NS_9allocatorIS5_EEFvvEEENS_22__allocator_destructorINS6_IS9_EEEEE6secondB7v160006Ev', symObjAddr: 0x16DD0, symBinAddr: 0x10001942C, symSize: 0x28 }
  - { offsetInCU: 0x6AB43, offset: 0x6AB43, size: 0x8, addend: 0x0, symName: '__ZNSt3__122__allocator_destructorINS_9allocatorINS_10__function6__funcIZ21test_order_book_cacheR9TestSuiteE3$_2NS1_IS6_EEFvvEEEEEEclB7v160006EPS9_', symObjAddr: 0x16DF8, symBinAddr: 0x100019454, symSize: 0xB8 }
  - { offsetInCU: 0x6AB78, offset: 0x6AB78, size: 0x8, addend: 0x0, symName: '__ZNSt3__122__compressed_pair_elemINS_22__allocator_destructorINS_9allocatorINS_10__function6__funcIZ21test_order_book_cacheR9TestSuiteE3$_2NS2_IS7_EEFvvEEEEEEELi1ELb0EE5__getB7v160006Ev', symObjAddr: 0x16EB0, symBinAddr: 0x10001950C, symSize: 0x14 }
  - { offsetInCU: 0x6AB9E, offset: 0x6AB9E, size: 0x8, addend: 0x0, symName: '__ZNSt3__116allocator_traitsINS_9allocatorINS_10__function6__funcIZ21test_order_book_cacheR9TestSuiteE3$_2NS1_IS6_EEFvvEEEEEE10deallocateB7v160006ERSA_PS9_m', symObjAddr: 0x16EC4, symBinAddr: 0x100019520, symSize: 0x34 }
  - { offsetInCU: 0x6ABE0, offset: 0x6ABE0, size: 0x8, addend: 0x0, symName: '__ZNSt3__19allocatorINS_10__function6__funcIZ21test_order_book_cacheR9TestSuiteE3$_2NS0_IS5_EEFvvEEEE10deallocateB7v160006EPS8_m', symObjAddr: 0x16EF8, symBinAddr: 0x100019554, symSize: 0x4C }
  - { offsetInCU: 0x6AC24, offset: 0x6AC24, size: 0x8, addend: 0x0, symName: '__ZNSt3__110__function6__funcIZ21test_order_book_cacheR9TestSuiteE3$_2NS_9allocatorIS4_EEFvvEEC1B7v160006ERKS4_RKS6_', symObjAddr: 0x16F44, symBinAddr: 0x1000195A0, symSize: 0x3C }
  - { offsetInCU: 0x6AC6C, offset: 0x6AC6C, size: 0x8, addend: 0x0, symName: '__ZNSt3__110__function6__funcIZ21test_order_book_cacheR9TestSuiteE3$_2NS_9allocatorIS4_EEFvvEEC2B7v160006ERKS4_RKS6_', symObjAddr: 0x16F80, symBinAddr: 0x1000195DC, symSize: 0xC8 }
  - { offsetInCU: 0x6ACB4, offset: 0x6ACB4, size: 0x8, addend: 0x0, symName: '__ZNSt3__110__function12__alloc_funcIZ21test_order_book_cacheR9TestSuiteE3$_2NS_9allocatorIS4_EEFvvEEC1B7v160006ERKS4_RKS6_', symObjAddr: 0x17048, symBinAddr: 0x1000196A4, symSize: 0x3C }
  - { offsetInCU: 0x6ACFC, offset: 0x6ACFC, size: 0x8, addend: 0x0, symName: '__ZNSt3__110__function12__alloc_funcIZ21test_order_book_cacheR9TestSuiteE3$_2NS_9allocatorIS4_EEFvvEEC2B7v160006ERKS4_RKS6_', symObjAddr: 0x17084, symBinAddr: 0x1000196E0, symSize: 0x314 }
  - { offsetInCU: 0x6AD47, offset: 0x6AD47, size: 0x8, addend: 0x0, symName: '__ZNSt3__117__compressed_pairIZ21test_order_book_cacheR9TestSuiteE3$_2NS_9allocatorIS3_EEEC1B7v160006IJRKS3_EJRKS5_EEENS_21piecewise_construct_tENS_5tupleIJDpT_EEENSD_IJDpT0_EEE', symObjAddr: 0x17590, symBinAddr: 0x100019BEC, symSize: 0x2FC }
  - { offsetInCU: 0x6ADBE, offset: 0x6ADBE, size: 0x8, addend: 0x0, symName: '__ZNSt3__15tupleIJRKNS_9allocatorIZ21test_order_book_cacheR9TestSuiteE3$_2EEEEC1B7v160006INS_4_AndELi0EEES7_', symObjAddr: 0x1788C, symBinAddr: 0x100019EE8, symSize: 0x34 }
  - { offsetInCU: 0x6AE06, offset: 0x6AE06, size: 0x8, addend: 0x0, symName: '__ZNSt3__15tupleIJRKNS_9allocatorIZ21test_order_book_cacheR9TestSuiteE3$_2EEEEC2B7v160006INS_4_AndELi0EEES7_', symObjAddr: 0x178C0, symBinAddr: 0x100019F1C, symSize: 0x34 }
  - { offsetInCU: 0x6AE4E, offset: 0x6AE4E, size: 0x8, addend: 0x0, symName: '__ZNSt3__112__tuple_implINS_15__tuple_indicesIJLm0EEEEJRKNS_9allocatorIZ21test_order_book_cacheR9TestSuiteE3$_2EEEEC1B7v160006IJLm0EEJS9_EJEJEJS9_EEENS1_IJXspT_EEEENS_13__tuple_typesIJDpT0_EEENS1_IJXspT1_EEEENSD_IJDpT2_EEEDpOT3_', symObjAddr: 0x178F4, symBinAddr: 0x100019F50, symSize: 0x34 }
  - { offsetInCU: 0x6AEE3, offset: 0x6AEE3, size: 0x8, addend: 0x0, symName: '__ZNSt3__112__tuple_implINS_15__tuple_indicesIJLm0EEEEJRKNS_9allocatorIZ21test_order_book_cacheR9TestSuiteE3$_2EEEEC2B7v160006IJLm0EEJS9_EJEJEJS9_EEENS1_IJXspT_EEEENS_13__tuple_typesIJDpT0_EEENS1_IJXspT1_EEEENSD_IJDpT2_EEEDpOT3_', symObjAddr: 0x17928, symBinAddr: 0x100019F84, symSize: 0x34 }
  - { offsetInCU: 0x6AF78, offset: 0x6AF78, size: 0x8, addend: 0x0, symName: '__ZNSt3__112__tuple_leafILm0ERKNS_9allocatorIZ21test_order_book_cacheR9TestSuiteE3$_2EELb0EEC2B7v160006IS7_vEEOT_', symObjAddr: 0x1795C, symBinAddr: 0x100019FB8, symSize: 0x70 }
  - { offsetInCU: 0x6AFBB, offset: 0x6AFBB, size: 0x8, addend: 0x0, symName: '__ZNSt3__117__compressed_pairIZ21test_order_book_cacheR9TestSuiteE3$_2NS_9allocatorIS3_EEEC2B7v160006IJRKS3_EJRKS5_EEENS_21piecewise_construct_tENS_5tupleIJDpT_EEENSD_IJDpT0_EEE', symObjAddr: 0x179CC, symBinAddr: 0x10001A028, symSize: 0x360 }
  - { offsetInCU: 0x6B032, offset: 0x6B032, size: 0x8, addend: 0x0, symName: '__ZNSt3__122__compressed_pair_elemINS_9allocatorIZ21test_order_book_cacheR9TestSuiteE3$_2EELi1ELb1EEC2B7v160006IJRKS5_EJLm0EEEENS_21piecewise_construct_tENS_5tupleIJDpT_EEENS_15__tuple_indicesIJXspT0_EEEE', symObjAddr: 0x17D2C, symBinAddr: 0x10001A388, symSize: 0x200 }
  - { offsetInCU: 0x6B09D, offset: 0x6B09D, size: 0x8, addend: 0x0, symName: '__ZNSt3__112__tuple_leafILm0ERKNS_9allocatorIZ21test_order_book_cacheR9TestSuiteE3$_2EELb0EE3getB7v160006Ev', symObjAddr: 0x17F50, symBinAddr: 0x10001A5AC, symSize: 0x60 }
  - { offsetInCU: 0x6B0C3, offset: 0x6B0C3, size: 0x8, addend: 0x0, symName: '__ZNSt3__110__function12__alloc_funcIZ21test_order_book_cacheR9TestSuiteE3$_2NS_9allocatorIS4_EEFvvEE7destroyB7v160006Ev', symObjAddr: 0x17FB0, symBinAddr: 0x10001A60C, symSize: 0x10 }
  - { offsetInCU: 0x6B0E9, offset: 0x6B0E9, size: 0x8, addend: 0x0, symName: '__ZNSt3__110__function12__alloc_funcIZ21test_order_book_cacheR9TestSuiteE3$_2NS_9allocatorIS4_EEFvvEEclB7v160006Ev', symObjAddr: 0x17FC0, symBinAddr: 0x10001A61C, symSize: 0x28 }
  - { offsetInCU: 0x6B10F, offset: 0x6B10F, size: 0x8, addend: 0x0, symName: '__ZNSt3__128__invoke_void_return_wrapperIvLb1EE6__callIJRZ21test_order_book_cacheR9TestSuiteE3$_2EEEvDpOT_', symObjAddr: 0x17FE8, symBinAddr: 0x10001A644, symSize: 0x24 }
  - { offsetInCU: 0x6B13E, offset: 0x6B13E, size: 0x8, addend: 0x0, symName: '__ZNSt3__117__compressed_pairIZ21test_order_book_cacheR9TestSuiteE3$_2NS_9allocatorIS3_EEE5firstB7v160006Ev', symObjAddr: 0x1800C, symBinAddr: 0x10001A668, symSize: 0x24 }
  - { offsetInCU: 0x6B16A, offset: 0x6B16A, size: 0x8, addend: 0x0, symName: '__ZZ21test_order_book_cacheR9TestSuiteENK3$_2clEv', symObjAddr: 0x18054, symBinAddr: 0x10001A6B0, symSize: 0x5F4 }
  - { offsetInCU: 0x6B1D0, offset: 0x6B1D0, size: 0x8, addend: 0x0, symName: __ZN5cache14OrderBookCacheC1Ev, symObjAddr: 0x18648, symBinAddr: 0x10001ACA4, symSize: 0x2C }
  - { offsetInCU: 0x6B1FA, offset: 0x6B1FA, size: 0x8, addend: 0x0, symName: __ZN5cache14OrderBookCache6updateERKN4data12MarketUpdateE, symObjAddr: 0x18674, symBinAddr: 0x10001ACD0, symSize: 0x11E8 }
  - { offsetInCU: 0x6B2BC, offset: 0x6B2BC, size: 0x8, addend: 0x0, symName: __ZN4data11MarketPriceC1Ev, symObjAddr: 0x1985C, symBinAddr: 0x10001BEB8, symSize: 0x2C }
  - { offsetInCU: 0x6B2E8, offset: 0x6B2E8, size: 0x8, addend: 0x0, symName: __ZNK5cache14OrderBookCache9get_priceEPKcRN4data11MarketPriceE, symObjAddr: 0x19888, symBinAddr: 0x10001BEE4, symSize: 0xB44 }
  - { offsetInCU: 0x6B397, offset: 0x6B397, size: 0x8, addend: 0x0, symName: __ZNK4data11MarketPrice9mid_priceEv, symObjAddr: 0x1A3CC, symBinAddr: 0x10001CA28, symSize: 0x424 }
  - { offsetInCU: 0x6B3BD, offset: 0x6B3BD, size: 0x8, addend: 0x0, symName: __ZN5cache14OrderBookCacheD1Ev, symObjAddr: 0x1A7F0, symBinAddr: 0x10001CE4C, symSize: 0x2C }
  - { offsetInCU: 0x6B3E7, offset: 0x6B3E7, size: 0x8, addend: 0x0, symName: __ZN5cache14OrderBookCacheC2Ev, symObjAddr: 0x1A81C, symBinAddr: 0x10001CE78, symSize: 0x38 }
  - { offsetInCU: 0x6B411, offset: 0x6B411, size: 0x8, addend: 0x0, symName: __ZNSt3__112shared_mutexC1B7v160006Ev, symObjAddr: 0x1A854, symBinAddr: 0x10001CEB0, symSize: 0x2C }
  - { offsetInCU: 0x6B43B, offset: 0x6B43B, size: 0x8, addend: 0x0, symName: __ZNSt3__16vectorINS_10unique_ptrIN4data11MarketPriceENS_14default_deleteIS3_EEEENS_9allocatorIS6_EEEC1B7v160006Ev, symObjAddr: 0x1A880, symBinAddr: 0x10001CEDC, symSize: 0x2C }
  - { offsetInCU: 0x6B465, offset: 0x6B465, size: 0x8, addend: 0x0, symName: __ZNSt3__112shared_mutexC2B7v160006Ev, symObjAddr: 0x1A8AC, symBinAddr: 0x10001CF08, symSize: 0x2C }
  - { offsetInCU: 0x6B48F, offset: 0x6B48F, size: 0x8, addend: 0x0, symName: __ZNSt3__16vectorINS_10unique_ptrIN4data11MarketPriceENS_14default_deleteIS3_EEEENS_9allocatorIS6_EEEC2B7v160006Ev, symObjAddr: 0x1A8D8, symBinAddr: 0x10001CF34, symSize: 0x2F4 }
  - { offsetInCU: 0x6B4C0, offset: 0x6B4C0, size: 0x8, addend: 0x0, symName: __ZNSt3__117__compressed_pairIPNS_10unique_ptrIN4data11MarketPriceENS_14default_deleteIS3_EEEENS_9allocatorIS6_EEEC1B7v160006IDnNS_18__default_init_tagEEEOT_OT0_, symObjAddr: 0x1ABCC, symBinAddr: 0x10001D228, symSize: 0x3C }
  - { offsetInCU: 0x6B51A, offset: 0x6B51A, size: 0x8, addend: 0x0, symName: __ZNSt3__117__compressed_pairIPNS_10unique_ptrIN4data11MarketPriceENS_14default_deleteIS3_EEEENS_9allocatorIS6_EEEC2B7v160006IDnNS_18__default_init_tagEEEOT_OT0_, symObjAddr: 0x1AC18, symBinAddr: 0x10001D274, symSize: 0x40 }
  - { offsetInCU: 0x6B574, offset: 0x6B574, size: 0x8, addend: 0x0, symName: __ZNSt3__122__compressed_pair_elemIPNS_10unique_ptrIN4data11MarketPriceENS_14default_deleteIS3_EEEELi0ELb0EEC2B7v160006IDnvEEOT_, symObjAddr: 0x1AC58, symBinAddr: 0x10001D2B4, symSize: 0x64 }
  - { offsetInCU: 0x6B5B7, offset: 0x6B5B7, size: 0x8, addend: 0x0, symName: __ZNSt3__122__compressed_pair_elemINS_9allocatorINS_10unique_ptrIN4data11MarketPriceENS_14default_deleteIS4_EEEEEELi1ELb1EEC2B7v160006ENS_18__default_init_tagE, symObjAddr: 0x1ACBC, symBinAddr: 0x10001D318, symSize: 0x2C }
  - { offsetInCU: 0x6B5EB, offset: 0x6B5EB, size: 0x8, addend: 0x0, symName: __ZNSt3__19allocatorINS_10unique_ptrIN4data11MarketPriceENS_14default_deleteIS3_EEEEEC2B7v160006Ev, symObjAddr: 0x1ACE8, symBinAddr: 0x10001D344, symSize: 0x2C }
  - { offsetInCU: 0x6B615, offset: 0x6B615, size: 0x8, addend: 0x0, symName: __ZNSt3__116__non_trivial_ifILb1ENS_9allocatorINS_10unique_ptrIN4data11MarketPriceENS_14default_deleteIS4_EEEEEEEC2B7v160006Ev, symObjAddr: 0x1AD14, symBinAddr: 0x10001D370, symSize: 0x14 }
  - { offsetInCU: 0x6B66E, offset: 0x6B66E, size: 0x8, addend: 0x0, symName: __ZNSt3__111unique_lockINS_12shared_mutexEEC1B7v160006ERS1_, symObjAddr: 0x1AD28, symBinAddr: 0x10001D384, symSize: 0x34 }
  - { offsetInCU: 0x6B6A7, offset: 0x6B6A7, size: 0x8, addend: 0x0, symName: __ZNSt3__16vectorINS_10unique_ptrIN4data11MarketPriceENS_14default_deleteIS3_EEEENS_9allocatorIS6_EEE5beginB7v160006Ev, symObjAddr: 0x1AD5C, symBinAddr: 0x10001D3B8, symSize: 0x268 }
  - { offsetInCU: 0x6B6D0, offset: 0x6B6D0, size: 0x8, addend: 0x0, symName: __ZNSt3__16vectorINS_10unique_ptrIN4data11MarketPriceENS_14default_deleteIS3_EEEENS_9allocatorIS6_EEE3endB7v160006Ev, symObjAddr: 0x1AFC4, symBinAddr: 0x10001D620, symSize: 0x26C }
  - { offsetInCU: 0x6B6F9, offset: 0x6B6F9, size: 0x8, addend: 0x0, symName: __ZNKSt3__111__wrap_iterIPNS_10unique_ptrIN4data11MarketPriceENS_14default_deleteIS3_EEEEEdeB7v160006Ev, symObjAddr: 0x1B264, symBinAddr: 0x10001D8C0, symSize: 0x60 }
  - { offsetInCU: 0x6B71F, offset: 0x6B71F, size: 0x8, addend: 0x0, symName: __ZNKSt3__110unique_ptrIN4data11MarketPriceENS_14default_deleteIS2_EEEptB7v160006Ev, symObjAddr: 0x1B2C4, symBinAddr: 0x10001D920, symSize: 0x6C }
  - { offsetInCU: 0x6B745, offset: 0x6B745, size: 0x8, addend: 0x0, symName: __ZNSt3__111__wrap_iterIPNS_10unique_ptrIN4data11MarketPriceENS_14default_deleteIS3_EEEEEppB7v160006Ev, symObjAddr: 0x1B330, symBinAddr: 0x10001D98C, symSize: 0x68 }
  - { offsetInCU: 0x6B76B, offset: 0x6B76B, size: 0x8, addend: 0x0, symName: __ZNSt3__16vectorINS_10unique_ptrIN4data11MarketPriceENS_14default_deleteIS3_EEEENS_9allocatorIS6_EEE9push_backB7v160006EOS6_, symObjAddr: 0x1B3E8, symBinAddr: 0x10001DA44, symSize: 0xE0 }
  - { offsetInCU: 0x6B7A2, offset: 0x6B7A2, size: 0x8, addend: 0x0, symName: __ZNSt3__110unique_ptrIN4data11MarketPriceENS_14default_deleteIS2_EEED1B7v160006Ev, symObjAddr: 0x1B4C8, symBinAddr: 0x10001DB24, symSize: 0x2C }
  - { offsetInCU: 0x6B7CC, offset: 0x6B7CC, size: 0x8, addend: 0x0, symName: __ZNSt3__111unique_lockINS_12shared_mutexEED1B7v160006Ev, symObjAddr: 0x1B4F4, symBinAddr: 0x10001DB50, symSize: 0x2C }
  - { offsetInCU: 0x6B7F6, offset: 0x6B7F6, size: 0x8, addend: 0x0, symName: __ZNSt3__111unique_lockINS_12shared_mutexEEC2B7v160006ERS1_, symObjAddr: 0x1B520, symBinAddr: 0x10001DB7C, symSize: 0x110 }
  - { offsetInCU: 0x6B82F, offset: 0x6B82F, size: 0x8, addend: 0x0, symName: __ZNSt3__112shared_mutex4lockB7v160006Ev, symObjAddr: 0x1B630, symBinAddr: 0x10001DC8C, symSize: 0x24 }
  - { offsetInCU: 0x6B855, offset: 0x6B855, size: 0x8, addend: 0x0, symName: __ZNSt3__16vectorINS_10unique_ptrIN4data11MarketPriceENS_14default_deleteIS3_EEEENS_9allocatorIS6_EEE11__make_iterB7v160006EPS6_, symObjAddr: 0x1B654, symBinAddr: 0x10001DCB0, symSize: 0x200 }
  - { offsetInCU: 0x6B88C, offset: 0x6B88C, size: 0x8, addend: 0x0, symName: __ZNSt3__111__wrap_iterIPNS_10unique_ptrIN4data11MarketPriceENS_14default_deleteIS3_EEEEEC1B7v160006EPKvS7_, symObjAddr: 0x1B854, symBinAddr: 0x10001DEB0, symSize: 0x3C }
  - { offsetInCU: 0x6B8D4, offset: 0x6B8D4, size: 0x8, addend: 0x0, symName: __ZNSt3__111__wrap_iterIPNS_10unique_ptrIN4data11MarketPriceENS_14default_deleteIS3_EEEEEC2B7v160006EPKvS7_, symObjAddr: 0x1B890, symBinAddr: 0x10001DEEC, symSize: 0x74 }
  - { offsetInCU: 0x6B91C, offset: 0x6B91C, size: 0x8, addend: 0x0, symName: __ZNKSt3__111__wrap_iterIPNS_10unique_ptrIN4data11MarketPriceENS_14default_deleteIS3_EEEEE4baseB7v160006Ev, symObjAddr: 0x1B94C, symBinAddr: 0x10001DFA8, symSize: 0x60 }
  - { offsetInCU: 0x6B942, offset: 0x6B942, size: 0x8, addend: 0x0, symName: __ZNKSt3__117__compressed_pairIPN4data11MarketPriceENS_14default_deleteIS2_EEE5firstB7v160006Ev, symObjAddr: 0x1B9AC, symBinAddr: 0x10001E008, symSize: 0x24 }
  - { offsetInCU: 0x6B968, offset: 0x6B968, size: 0x8, addend: 0x0, symName: __ZNKSt3__122__compressed_pair_elemIPN4data11MarketPriceELi0ELb0EE5__getB7v160006Ev, symObjAddr: 0x1B9D0, symBinAddr: 0x10001E02C, symSize: 0x14 }
  - { offsetInCU: 0x6B98E, offset: 0x6B98E, size: 0x8, addend: 0x0, symName: __ZNSt3__110unique_ptrIN4data11MarketPriceENS_14default_deleteIS2_EEEC1B7v160006ILb1EvEEPS2_, symObjAddr: 0x1B9E4, symBinAddr: 0x10001E040, symSize: 0x34 }
  - { offsetInCU: 0x6B9D2, offset: 0x6B9D2, size: 0x8, addend: 0x0, symName: __ZNSt3__110unique_ptrIN4data11MarketPriceENS_14default_deleteIS2_EEEC2B7v160006ILb1EvEEPS2_, symObjAddr: 0x1BA18, symBinAddr: 0x10001E074, symSize: 0x260 }
  - { offsetInCU: 0x6BA21, offset: 0x6BA21, size: 0x8, addend: 0x0, symName: __ZNSt3__117__compressed_pairIPN4data11MarketPriceENS_14default_deleteIS2_EEEC1B7v160006IRS3_NS_16__value_init_tagEEEOT_OT0_, symObjAddr: 0x1BC78, symBinAddr: 0x10001E2D4, symSize: 0x3C }
  - { offsetInCU: 0x6BA7B, offset: 0x6BA7B, size: 0x8, addend: 0x0, symName: __ZNSt3__117__compressed_pairIPN4data11MarketPriceENS_14default_deleteIS2_EEEC2B7v160006IRS3_NS_16__value_init_tagEEEOT_OT0_, symObjAddr: 0x1BCB4, symBinAddr: 0x10001E310, symSize: 0x40 }
  - { offsetInCU: 0x6BAD5, offset: 0x6BAD5, size: 0x8, addend: 0x0, symName: __ZNSt3__122__compressed_pair_elemIPN4data11MarketPriceELi0ELb0EEC2B7v160006IRS3_vEEOT_, symObjAddr: 0x1BCF4, symBinAddr: 0x10001E350, symSize: 0xB0 }
  - { offsetInCU: 0x6BB18, offset: 0x6BB18, size: 0x8, addend: 0x0, symName: __ZNSt3__122__compressed_pair_elemINS_14default_deleteIN4data11MarketPriceEEELi1ELb1EEC2B7v160006ENS_16__value_init_tagE, symObjAddr: 0x1BDA4, symBinAddr: 0x10001E400, symSize: 0x14 }
  - { offsetInCU: 0x6BB4C, offset: 0x6BB4C, size: 0x8, addend: 0x0, symName: __ZNSt3__16vectorINS_10unique_ptrIN4data11MarketPriceENS_14default_deleteIS3_EEEENS_9allocatorIS6_EEE9__end_capB7v160006Ev, symObjAddr: 0x1BDB8, symBinAddr: 0x10001E414, symSize: 0x28 }
  - { offsetInCU: 0x6BB72, offset: 0x6BB72, size: 0x8, addend: 0x0, symName: __ZNSt3__16vectorINS_10unique_ptrIN4data11MarketPriceENS_14default_deleteIS3_EEEENS_9allocatorIS6_EEE22__construct_one_at_endB7v160006IJS6_EEEvDpOT_, symObjAddr: 0x1BDE0, symBinAddr: 0x10001E43C, symSize: 0x36C }
  - { offsetInCU: 0x6BBC7, offset: 0x6BBC7, size: 0x8, addend: 0x0, symName: __ZNSt3__16vectorINS_10unique_ptrIN4data11MarketPriceENS_14default_deleteIS3_EEEENS_9allocatorIS6_EEE21__push_back_slow_pathIS6_EEvOT_, symObjAddr: 0x1C14C, symBinAddr: 0x10001E7A8, symSize: 0x3C0 }
  - { offsetInCU: 0x6BC2C, offset: 0x6BC2C, size: 0x8, addend: 0x0, symName: __ZNSt3__117__compressed_pairIPNS_10unique_ptrIN4data11MarketPriceENS_14default_deleteIS3_EEEENS_9allocatorIS6_EEE5firstB7v160006Ev, symObjAddr: 0x1C50C, symBinAddr: 0x10001EB68, symSize: 0x24 }
  - { offsetInCU: 0x6BC52, offset: 0x6BC52, size: 0x8, addend: 0x0, symName: __ZNSt3__122__compressed_pair_elemIPNS_10unique_ptrIN4data11MarketPriceENS_14default_deleteIS3_EEEELi0ELb0EE5__getB7v160006Ev, symObjAddr: 0x1C530, symBinAddr: 0x10001EB8C, symSize: 0x14 }
  - { offsetInCU: 0x6BC94, offset: 0x6BC94, size: 0x8, addend: 0x0, symName: __ZNSt3__16vectorINS_10unique_ptrIN4data11MarketPriceENS_14default_deleteIS3_EEEENS_9allocatorIS6_EEE21_ConstructTransactionC1B7v160006ERS9_m, symObjAddr: 0x1C544, symBinAddr: 0x10001EBA0, symSize: 0x3C }
  - { offsetInCU: 0x6BCDC, offset: 0x6BCDC, size: 0x8, addend: 0x0, symName: __ZNSt3__116allocator_traitsINS_9allocatorINS_10unique_ptrIN4data11MarketPriceENS_14default_deleteIS4_EEEEEEE9constructB7v160006IS7_JS7_EvvEEvRS8_PT_DpOT0_, symObjAddr: 0x1C580, symBinAddr: 0x10001EBDC, symSize: 0x30 }
  - { offsetInCU: 0x6BD31, offset: 0x6BD31, size: 0x8, addend: 0x0, symName: __ZNSt3__16vectorINS_10unique_ptrIN4data11MarketPriceENS_14default_deleteIS3_EEEENS_9allocatorIS6_EEE7__allocB7v160006Ev, symObjAddr: 0x1C5B0, symBinAddr: 0x10001EC0C, symSize: 0x28 }
  - { offsetInCU: 0x6BD57, offset: 0x6BD57, size: 0x8, addend: 0x0, symName: __ZNSt3__16vectorINS_10unique_ptrIN4data11MarketPriceENS_14default_deleteIS3_EEEENS_9allocatorIS6_EEE21_ConstructTransactionD1B7v160006Ev, symObjAddr: 0x1C5EC, symBinAddr: 0x10001EC48, symSize: 0x2C }
  - { offsetInCU: 0x6BD81, offset: 0x6BD81, size: 0x8, addend: 0x0, symName: __ZNSt3__16vectorINS_10unique_ptrIN4data11MarketPriceENS_14default_deleteIS3_EEEENS_9allocatorIS6_EEE21_ConstructTransactionC2B7v160006ERS9_m, symObjAddr: 0x1C618, symBinAddr: 0x10001EC74, symSize: 0x1D0 }
  - { offsetInCU: 0x6BDC9, offset: 0x6BDC9, size: 0x8, addend: 0x0, symName: __ZNKSt3__16vectorINS_10unique_ptrIN4data11MarketPriceENS_14default_deleteIS3_EEEENS_9allocatorIS6_EEE19__annotate_increaseB7v160006Em, symObjAddr: 0x1C7E8, symBinAddr: 0x10001EE44, symSize: 0xD8 }
  - { offsetInCU: 0x6BDFE, offset: 0x6BDFE, size: 0x8, addend: 0x0, symName: __ZNKSt3__16vectorINS_10unique_ptrIN4data11MarketPriceENS_14default_deleteIS3_EEEENS_9allocatorIS6_EEE31__annotate_contiguous_containerEPKvSB_SB_SB_, symObjAddr: 0x1C8C0, symBinAddr: 0x10001EF1C, symSize: 0x58 }
  - { offsetInCU: 0x6BE60, offset: 0x6BE60, size: 0x8, addend: 0x0, symName: __ZNKSt3__16vectorINS_10unique_ptrIN4data11MarketPriceENS_14default_deleteIS3_EEEENS_9allocatorIS6_EEE4dataB7v160006Ev, symObjAddr: 0x1C918, symBinAddr: 0x10001EF74, symSize: 0x64 }
  - { offsetInCU: 0x6BE86, offset: 0x6BE86, size: 0x8, addend: 0x0, symName: __ZNKSt3__16vectorINS_10unique_ptrIN4data11MarketPriceENS_14default_deleteIS3_EEEENS_9allocatorIS6_EEE8capacityB7v160006Ev, symObjAddr: 0x1C97C, symBinAddr: 0x10001EFD8, symSize: 0xBC }
  - { offsetInCU: 0x6BEAC, offset: 0x6BEAC, size: 0x8, addend: 0x0, symName: __ZNKSt3__16vectorINS_10unique_ptrIN4data11MarketPriceENS_14default_deleteIS3_EEEENS_9allocatorIS6_EEE4sizeB7v160006Ev, symObjAddr: 0x1CA38, symBinAddr: 0x10001F094, symSize: 0xB0 }
  - { offsetInCU: 0x6BED2, offset: 0x6BED2, size: 0x8, addend: 0x0, symName: __ZNKSt3__16vectorINS_10unique_ptrIN4data11MarketPriceENS_14default_deleteIS3_EEEENS_9allocatorIS6_EEE9__end_capB7v160006Ev, symObjAddr: 0x1CAE8, symBinAddr: 0x10001F144, symSize: 0x28 }
  - { offsetInCU: 0x6BEF8, offset: 0x6BEF8, size: 0x8, addend: 0x0, symName: __ZNKSt3__117__compressed_pairIPNS_10unique_ptrIN4data11MarketPriceENS_14default_deleteIS3_EEEENS_9allocatorIS6_EEE5firstB7v160006Ev, symObjAddr: 0x1CB10, symBinAddr: 0x10001F16C, symSize: 0x24 }
  - { offsetInCU: 0x6BF1E, offset: 0x6BF1E, size: 0x8, addend: 0x0, symName: __ZNKSt3__122__compressed_pair_elemIPNS_10unique_ptrIN4data11MarketPriceENS_14default_deleteIS3_EEEELi0ELb0EE5__getB7v160006Ev, symObjAddr: 0x1CB34, symBinAddr: 0x10001F190, symSize: 0x14 }
  - { offsetInCU: 0x6BF44, offset: 0x6BF44, size: 0x8, addend: 0x0, symName: __ZNSt3__110unique_ptrIN4data11MarketPriceENS_14default_deleteIS2_EEEC1B7v160006EOS5_, symObjAddr: 0x1CB84, symBinAddr: 0x10001F1E0, symSize: 0x34 }
  - { offsetInCU: 0x6BF7D, offset: 0x6BF7D, size: 0x8, addend: 0x0, symName: __ZNSt3__110unique_ptrIN4data11MarketPriceENS_14default_deleteIS2_EEEC2B7v160006EOS5_, symObjAddr: 0x1CBB8, symBinAddr: 0x10001F214, symSize: 0x24C }
  - { offsetInCU: 0x6BFB8, offset: 0x6BFB8, size: 0x8, addend: 0x0, symName: __ZNSt3__110unique_ptrIN4data11MarketPriceENS_14default_deleteIS2_EEE7releaseB7v160006Ev, symObjAddr: 0x1CE04, symBinAddr: 0x10001F460, symSize: 0xB8 }
  - { offsetInCU: 0x6BFED, offset: 0x6BFED, size: 0x8, addend: 0x0, symName: __ZNSt3__110unique_ptrIN4data11MarketPriceENS_14default_deleteIS2_EEE11get_deleterB7v160006Ev, symObjAddr: 0x1CEBC, symBinAddr: 0x10001F518, symSize: 0x24 }
  - { offsetInCU: 0x6C01F, offset: 0x6C01F, size: 0x8, addend: 0x0, symName: __ZNSt3__117__compressed_pairIPN4data11MarketPriceENS_14default_deleteIS2_EEEC1B7v160006IS3_S5_EEOT_OT0_, symObjAddr: 0x1CEE0, symBinAddr: 0x10001F53C, symSize: 0x3C }
  - { offsetInCU: 0x6C079, offset: 0x6C079, size: 0x8, addend: 0x0, symName: __ZNSt3__117__compressed_pairIPN4data11MarketPriceENS_14default_deleteIS2_EEE5firstB7v160006Ev, symObjAddr: 0x1CF1C, symBinAddr: 0x10001F578, symSize: 0x24 }
  - { offsetInCU: 0x6C09F, offset: 0x6C09F, size: 0x8, addend: 0x0, symName: __ZNSt3__122__compressed_pair_elemIPN4data11MarketPriceELi0ELb0EE5__getB7v160006Ev, symObjAddr: 0x1CF40, symBinAddr: 0x10001F59C, symSize: 0x14 }
  - { offsetInCU: 0x6C0C5, offset: 0x6C0C5, size: 0x8, addend: 0x0, symName: __ZNSt3__117__compressed_pairIPN4data11MarketPriceENS_14default_deleteIS2_EEE6secondB7v160006Ev, symObjAddr: 0x1CF54, symBinAddr: 0x10001F5B0, symSize: 0x24 }
  - { offsetInCU: 0x6C0EB, offset: 0x6C0EB, size: 0x8, addend: 0x0, symName: __ZNSt3__122__compressed_pair_elemINS_14default_deleteIN4data11MarketPriceEEELi1ELb1EE5__getB7v160006Ev, symObjAddr: 0x1CF78, symBinAddr: 0x10001F5D4, symSize: 0x14 }
  - { offsetInCU: 0x6C111, offset: 0x6C111, size: 0x8, addend: 0x0, symName: __ZNSt3__117__compressed_pairIPN4data11MarketPriceENS_14default_deleteIS2_EEEC2B7v160006IS3_S5_EEOT_OT0_, symObjAddr: 0x1CF8C, symBinAddr: 0x10001F5E8, symSize: 0x44 }
  - { offsetInCU: 0x6C16B, offset: 0x6C16B, size: 0x8, addend: 0x0, symName: __ZNSt3__122__compressed_pair_elemIPN4data11MarketPriceELi0ELb0EEC2B7v160006IS3_vEEOT_, symObjAddr: 0x1CFD0, symBinAddr: 0x10001F62C, symSize: 0xB0 }
  - { offsetInCU: 0x6C1AE, offset: 0x6C1AE, size: 0x8, addend: 0x0, symName: __ZNSt3__122__compressed_pair_elemINS_14default_deleteIN4data11MarketPriceEEELi1ELb1EEC2B7v160006IS4_vEEOT_, symObjAddr: 0x1D080, symBinAddr: 0x10001F6DC, symSize: 0x18 }
  - { offsetInCU: 0x6C1F1, offset: 0x6C1F1, size: 0x8, addend: 0x0, symName: __ZNSt3__117__compressed_pairIPNS_10unique_ptrIN4data11MarketPriceENS_14default_deleteIS3_EEEENS_9allocatorIS6_EEE6secondB7v160006Ev, symObjAddr: 0x1D098, symBinAddr: 0x10001F6F4, symSize: 0x24 }
  - { offsetInCU: 0x6C217, offset: 0x6C217, size: 0x8, addend: 0x0, symName: __ZNSt3__122__compressed_pair_elemINS_9allocatorINS_10unique_ptrIN4data11MarketPriceENS_14default_deleteIS4_EEEEEELi1ELb1EE5__getB7v160006Ev, symObjAddr: 0x1D0BC, symBinAddr: 0x10001F718, symSize: 0x14 }
  - { offsetInCU: 0x6C23D, offset: 0x6C23D, size: 0x8, addend: 0x0, symName: __ZNSt3__16vectorINS_10unique_ptrIN4data11MarketPriceENS_14default_deleteIS3_EEEENS_9allocatorIS6_EEE21_ConstructTransactionD2B7v160006Ev, symObjAddr: 0x1D0D0, symBinAddr: 0x10001F72C, symSize: 0x278 }
  - { offsetInCU: 0x6C267, offset: 0x6C267, size: 0x8, addend: 0x0, symName: __ZNKSt3__16vectorINS_10unique_ptrIN4data11MarketPriceENS_14default_deleteIS3_EEEENS_9allocatorIS6_EEE17__annotate_shrinkB7v160006Em, symObjAddr: 0x1D348, symBinAddr: 0x10001F9A4, symSize: 0xC8 }
  - { offsetInCU: 0x6C29C, offset: 0x6C29C, size: 0x8, addend: 0x0, symName: __ZNKSt3__16vectorINS_10unique_ptrIN4data11MarketPriceENS_14default_deleteIS3_EEEENS_9allocatorIS6_EEE11__recommendB7v160006Em, symObjAddr: 0x1D410, symBinAddr: 0x10001FA6C, symSize: 0x384 }
  - { offsetInCU: 0x6C2F8, offset: 0x6C2F8, size: 0x8, addend: 0x0, symName: __ZNSt3__114__split_bufferINS_10unique_ptrIN4data11MarketPriceENS_14default_deleteIS3_EEEERNS_9allocatorIS6_EEEC1EmmS9_, symObjAddr: 0x1D794, symBinAddr: 0x10001FDF0, symSize: 0x44 }
  - { offsetInCU: 0x6C351, offset: 0x6C351, size: 0x8, addend: 0x0, symName: __ZNSt3__114__split_bufferINS_10unique_ptrIN4data11MarketPriceENS_14default_deleteIS3_EEEERNS_9allocatorIS6_EEED1Ev, symObjAddr: 0x1DD4C, symBinAddr: 0x1000203A8, symSize: 0x2C }
  - { offsetInCU: 0x6C37D, offset: 0x6C37D, size: 0x8, addend: 0x0, symName: __ZNKSt3__16vectorINS_10unique_ptrIN4data11MarketPriceENS_14default_deleteIS3_EEEENS_9allocatorIS6_EEE8max_sizeEv, symObjAddr: 0x1DD78, symBinAddr: 0x1000203D4, symSize: 0x2FC }
  - { offsetInCU: 0x6C3A6, offset: 0x6C3A6, size: 0x8, addend: 0x0, symName: __ZNKSt3__16vectorINS_10unique_ptrIN4data11MarketPriceENS_14default_deleteIS3_EEEENS_9allocatorIS6_EEE20__throw_length_errorB7v160006Ev, symObjAddr: 0x1E074, symBinAddr: 0x1000206D0, symSize: 0x20 }
  - { offsetInCU: 0x6C3D7, offset: 0x6C3D7, size: 0x8, addend: 0x0, symName: __ZNSt3__116allocator_traitsINS_9allocatorINS_10unique_ptrIN4data11MarketPriceENS_14default_deleteIS4_EEEEEEE8max_sizeB7v160006IS8_vvEEmRKS8_, symObjAddr: 0x1E0EC, symBinAddr: 0x100020748, symSize: 0x28 }
  - { offsetInCU: 0x6C403, offset: 0x6C403, size: 0x8, addend: 0x0, symName: __ZNKSt3__16vectorINS_10unique_ptrIN4data11MarketPriceENS_14default_deleteIS3_EEEENS_9allocatorIS6_EEE7__allocB7v160006Ev, symObjAddr: 0x1E114, symBinAddr: 0x100020770, symSize: 0x28 }
  - { offsetInCU: 0x6C429, offset: 0x6C429, size: 0x8, addend: 0x0, symName: __ZNSt3__114numeric_limitsIlE3maxB7v160006Ev, symObjAddr: 0x1E13C, symBinAddr: 0x100020798, symSize: 0x14 }
  - { offsetInCU: 0x6C44E, offset: 0x6C44E, size: 0x8, addend: 0x0, symName: __ZNKSt3__16__lessImmEclB7v160006ERKmS3_, symObjAddr: 0x1E338, symBinAddr: 0x100020994, symSize: 0xBC }
  - { offsetInCU: 0x6C492, offset: 0x6C492, size: 0x8, addend: 0x0, symName: __ZNKSt3__117__compressed_pairIPNS_10unique_ptrIN4data11MarketPriceENS_14default_deleteIS3_EEEENS_9allocatorIS6_EEE6secondB7v160006Ev, symObjAddr: 0x1E3F4, symBinAddr: 0x100020A50, symSize: 0x24 }
  - { offsetInCU: 0x6C4B8, offset: 0x6C4B8, size: 0x8, addend: 0x0, symName: __ZNKSt3__122__compressed_pair_elemINS_9allocatorINS_10unique_ptrIN4data11MarketPriceENS_14default_deleteIS4_EEEEEELi1ELb1EE5__getB7v160006Ev, symObjAddr: 0x1E418, symBinAddr: 0x100020A74, symSize: 0x14 }
  - { offsetInCU: 0x6C4DE, offset: 0x6C4DE, size: 0x8, addend: 0x0, symName: __ZNSt3__123__libcpp_numeric_limitsIlLb1EE3maxB7v160006Ev, symObjAddr: 0x1E42C, symBinAddr: 0x100020A88, symSize: 0x8 }
  - { offsetInCU: 0x6C4F2, offset: 0x6C4F2, size: 0x8, addend: 0x0, symName: __ZNSt12length_errorC1B7v160006EPKc, symObjAddr: 0x1E49C, symBinAddr: 0x100020AF8, symSize: 0x34 }
  - { offsetInCU: 0x6C52B, offset: 0x6C52B, size: 0x8, addend: 0x0, symName: __ZNSt12length_errorC2B7v160006EPKc, symObjAddr: 0x1E4D0, symBinAddr: 0x100020B2C, symSize: 0x8C }
  - { offsetInCU: 0x6C564, offset: 0x6C564, size: 0x8, addend: 0x0, symName: __ZNSt3__114__split_bufferINS_10unique_ptrIN4data11MarketPriceENS_14default_deleteIS3_EEEERNS_9allocatorIS6_EEEC2EmmS9_, symObjAddr: 0x1E744, symBinAddr: 0x100020DA0, symSize: 0x520 }
  - { offsetInCU: 0x6C5E3, offset: 0x6C5E3, size: 0x8, addend: 0x0, symName: __ZNSt3__117__compressed_pairIPNS_10unique_ptrIN4data11MarketPriceENS_14default_deleteIS3_EEEERNS_9allocatorIS6_EEEC1B7v160006IDnSA_EEOT_OT0_, symObjAddr: 0x1EC64, symBinAddr: 0x1000212C0, symSize: 0x3C }
  - { offsetInCU: 0x6C63D, offset: 0x6C63D, size: 0x8, addend: 0x0, symName: __ZNSt3__114__split_bufferINS_10unique_ptrIN4data11MarketPriceENS_14default_deleteIS3_EEEERNS_9allocatorIS6_EEE7__allocB7v160006Ev, symObjAddr: 0x1EF2C, symBinAddr: 0x100021588, symSize: 0x28 }
  - { offsetInCU: 0x6C663, offset: 0x6C663, size: 0x8, addend: 0x0, symName: __ZNSt3__114__split_bufferINS_10unique_ptrIN4data11MarketPriceENS_14default_deleteIS3_EEEERNS_9allocatorIS6_EEE9__end_capB7v160006Ev, symObjAddr: 0x1EF54, symBinAddr: 0x1000215B0, symSize: 0x28 }
  - { offsetInCU: 0x6C689, offset: 0x6C689, size: 0x8, addend: 0x0, symName: __ZNSt3__117__compressed_pairIPNS_10unique_ptrIN4data11MarketPriceENS_14default_deleteIS3_EEEERNS_9allocatorIS6_EEEC2B7v160006IDnSA_EEOT_OT0_, symObjAddr: 0x1EF7C, symBinAddr: 0x1000215D8, symSize: 0x48 }
  - { offsetInCU: 0x6C6E3, offset: 0x6C6E3, size: 0x8, addend: 0x0, symName: __ZNSt3__122__compressed_pair_elemIRNS_9allocatorINS_10unique_ptrIN4data11MarketPriceENS_14default_deleteIS4_EEEEEELi1ELb0EEC2B7v160006IS9_vEEOT_, symObjAddr: 0x1EFC4, symBinAddr: 0x100021620, symSize: 0x70 }
  - { offsetInCU: 0x6C726, offset: 0x6C726, size: 0x8, addend: 0x0, symName: __ZNSt3__19allocatorINS_10unique_ptrIN4data11MarketPriceENS_14default_deleteIS3_EEEEE8allocateB7v160006Em, symObjAddr: 0x1F034, symBinAddr: 0x100021690, symSize: 0x5C }
  - { offsetInCU: 0x6C75B, offset: 0x6C75B, size: 0x8, addend: 0x0, symName: __ZNSt3__117__compressed_pairIPNS_10unique_ptrIN4data11MarketPriceENS_14default_deleteIS3_EEEERNS_9allocatorIS6_EEE6secondB7v160006Ev, symObjAddr: 0x1F090, symBinAddr: 0x1000216EC, symSize: 0x28 }
  - { offsetInCU: 0x6C781, offset: 0x6C781, size: 0x8, addend: 0x0, symName: __ZNSt3__122__compressed_pair_elemIRNS_9allocatorINS_10unique_ptrIN4data11MarketPriceENS_14default_deleteIS4_EEEEEELi1ELb0EE5__getB7v160006Ev, symObjAddr: 0x1F0B8, symBinAddr: 0x100021714, symSize: 0x60 }
  - { offsetInCU: 0x6C7A7, offset: 0x6C7A7, size: 0x8, addend: 0x0, symName: __ZNSt3__117__compressed_pairIPNS_10unique_ptrIN4data11MarketPriceENS_14default_deleteIS3_EEEERNS_9allocatorIS6_EEE5firstB7v160006Ev, symObjAddr: 0x1F118, symBinAddr: 0x100021774, symSize: 0x24 }
  - { offsetInCU: 0x6C7CD, offset: 0x6C7CD, size: 0x8, addend: 0x0, symName: __ZNKSt3__16vectorINS_10unique_ptrIN4data11MarketPriceENS_14default_deleteIS3_EEEENS_9allocatorIS6_EEE17__annotate_deleteB7v160006Ev, symObjAddr: 0x1F13C, symBinAddr: 0x100021798, symSize: 0xCC }
  - { offsetInCU: 0x6C7F3, offset: 0x6C7F3, size: 0x8, addend: 0x0, symName: __ZNSt3__116reverse_iteratorIPNS_10unique_ptrIN4data11MarketPriceENS_14default_deleteIS3_EEEEEC1B7v160006ES7_, symObjAddr: 0x1F74C, symBinAddr: 0x100021DA8, symSize: 0x34 }
  - { offsetInCU: 0x6C82C, offset: 0x6C82C, size: 0x8, addend: 0x0, symName: __ZNKSt3__116reverse_iteratorIPNS_10unique_ptrIN4data11MarketPriceENS_14default_deleteIS3_EEEEE4baseB7v160006Ev, symObjAddr: 0x1F780, symBinAddr: 0x100021DDC, symSize: 0x64 }
  - { offsetInCU: 0x6C852, offset: 0x6C852, size: 0x8, addend: 0x0, symName: __ZNKSt3__16vectorINS_10unique_ptrIN4data11MarketPriceENS_14default_deleteIS3_EEEENS_9allocatorIS6_EEE14__annotate_newB7v160006Em, symObjAddr: 0x1F918, symBinAddr: 0x100021F74, symSize: 0xC0 }
  - { offsetInCU: 0x6C887, offset: 0x6C887, size: 0x8, addend: 0x0, symName: __ZNSt3__129_AllocatorDestroyRangeReverseINS_9allocatorINS_10unique_ptrIN4data11MarketPriceENS_14default_deleteIS4_EEEEEENS_16reverse_iteratorIPS7_EEEC1B7v160006ERS8_RSB_SE_, symObjAddr: 0x1FBE0, symBinAddr: 0x10002223C, symSize: 0x44 }
  - { offsetInCU: 0x6C8DE, offset: 0x6C8DE, size: 0x8, addend: 0x0, symName: __ZNKSt3__116reverse_iteratorIPNS_10unique_ptrIN4data11MarketPriceENS_14default_deleteIS3_EEEEEdeB7v160006Ev, symObjAddr: 0x1FC90, symBinAddr: 0x1000222EC, symSize: 0x74 }
  - { offsetInCU: 0x6C913, offset: 0x6C913, size: 0x8, addend: 0x0, symName: __ZNSt3__116reverse_iteratorIPNS_10unique_ptrIN4data11MarketPriceENS_14default_deleteIS3_EEEEEppB7v160006Ev, symObjAddr: 0x1FD04, symBinAddr: 0x100022360, symSize: 0x6C }
  - { offsetInCU: 0x6C939, offset: 0x6C939, size: 0x8, addend: 0x0, symName: __ZNSt3__128__exception_guard_exceptionsINS_29_AllocatorDestroyRangeReverseINS_9allocatorINS_10unique_ptrIN4data11MarketPriceENS_14default_deleteIS5_EEEEEENS_16reverse_iteratorIPS8_EEEEE10__completeB7v160006Ev, symObjAddr: 0x1FD70, symBinAddr: 0x1000223CC, symSize: 0x8C }
  - { offsetInCU: 0x6C95F, offset: 0x6C95F, size: 0x8, addend: 0x0, symName: __ZNSt3__128__exception_guard_exceptionsINS_29_AllocatorDestroyRangeReverseINS_9allocatorINS_10unique_ptrIN4data11MarketPriceENS_14default_deleteIS5_EEEEEENS_16reverse_iteratorIPS8_EEEEED1B7v160006Ev, symObjAddr: 0x1FDFC, symBinAddr: 0x100022458, symSize: 0x2C }
  - { offsetInCU: 0x6C989, offset: 0x6C989, size: 0x8, addend: 0x0, symName: __ZNSt3__128__exception_guard_exceptionsINS_29_AllocatorDestroyRangeReverseINS_9allocatorINS_10unique_ptrIN4data11MarketPriceENS_14default_deleteIS5_EEEEEENS_16reverse_iteratorIPS8_EEEEEC1B7v160006ESD_, symObjAddr: 0x1FE28, symBinAddr: 0x100022484, symSize: 0x34 }
  - { offsetInCU: 0x6C9C3, offset: 0x6C9C3, size: 0x8, addend: 0x0, symName: __ZNSt3__128__exception_guard_exceptionsINS_29_AllocatorDestroyRangeReverseINS_9allocatorINS_10unique_ptrIN4data11MarketPriceENS_14default_deleteIS5_EEEEEENS_16reverse_iteratorIPS8_EEEEEC2B7v160006ESD_, symObjAddr: 0x1FE5C, symBinAddr: 0x1000224B8, symSize: 0xA4 }
  - { offsetInCU: 0x6C9FD, offset: 0x6C9FD, size: 0x8, addend: 0x0, symName: __ZNSt3__129_AllocatorDestroyRangeReverseINS_9allocatorINS_10unique_ptrIN4data11MarketPriceENS_14default_deleteIS4_EEEEEENS_16reverse_iteratorIPS7_EEEC2B7v160006ERS8_RSB_SE_, symObjAddr: 0x1FF00, symBinAddr: 0x10002255C, symSize: 0x104 }
  - { offsetInCU: 0x6CA5A, offset: 0x6CA5A, size: 0x8, addend: 0x0, symName: __ZNSt3__119__to_address_helperINS_16reverse_iteratorIPNS_10unique_ptrIN4data11MarketPriceENS_14default_deleteIS4_EEEEEEvE6__callB7v160006ERKS9_, symObjAddr: 0x20004, symBinAddr: 0x100022660, symSize: 0x44 }
  - { offsetInCU: 0x6CA7E, offset: 0x6CA7E, size: 0x8, addend: 0x0, symName: __ZNKSt3__116reverse_iteratorIPNS_10unique_ptrIN4data11MarketPriceENS_14default_deleteIS3_EEEEEptB7v160006Ev, symObjAddr: 0x20048, symBinAddr: 0x1000226A4, symSize: 0x6C }
  - { offsetInCU: 0x6CAA4, offset: 0x6CAA4, size: 0x8, addend: 0x0, symName: __ZNSt3__128__exception_guard_exceptionsINS_29_AllocatorDestroyRangeReverseINS_9allocatorINS_10unique_ptrIN4data11MarketPriceENS_14default_deleteIS5_EEEEEENS_16reverse_iteratorIPS8_EEEEED2B7v160006Ev, symObjAddr: 0x203EC, symBinAddr: 0x100022A48, symSize: 0xBC }
  - { offsetInCU: 0x6CACE, offset: 0x6CACE, size: 0x8, addend: 0x0, symName: __ZNKSt3__129_AllocatorDestroyRangeReverseINS_9allocatorINS_10unique_ptrIN4data11MarketPriceENS_14default_deleteIS4_EEEEEENS_16reverse_iteratorIPS7_EEEclB7v160006Ev, symObjAddr: 0x204A8, symBinAddr: 0x100022B04, symSize: 0x3A8 }
  - { offsetInCU: 0x6CAF5, offset: 0x6CAF5, size: 0x8, addend: 0x0, symName: __ZNSt3__116reverse_iteratorINS0_IPNS_10unique_ptrIN4data11MarketPriceENS_14default_deleteIS3_EEEEEEEC1B7v160006ES8_, symObjAddr: 0x208C0, symBinAddr: 0x100022F1C, symSize: 0x248 }
  - { offsetInCU: 0x6CB33, offset: 0x6CB33, size: 0x8, addend: 0x0, symName: __ZNSt3__116allocator_traitsINS_9allocatorINS_10unique_ptrIN4data11MarketPriceENS_14default_deleteIS4_EEEEEEE7destroyB7v160006IS7_vvEEvRS8_PT_, symObjAddr: 0x20DD4, symBinAddr: 0x100023430, symSize: 0x28 }
  - { offsetInCU: 0x6CB6E, offset: 0x6CB6E, size: 0x8, addend: 0x0, symName: __ZNSt3__116reverse_iteratorINS0_IPNS_10unique_ptrIN4data11MarketPriceENS_14default_deleteIS3_EEEEEEEppB7v160006Ev, symObjAddr: 0x20E20, symBinAddr: 0x10002347C, symSize: 0x30 }
  - { offsetInCU: 0x6CB94, offset: 0x6CB94, size: 0x8, addend: 0x0, symName: __ZNKSt3__116reverse_iteratorINS0_IPNS_10unique_ptrIN4data11MarketPriceENS_14default_deleteIS3_EEEEEEE4baseB7v160006Ev, symObjAddr: 0x20E50, symBinAddr: 0x1000234AC, symSize: 0x20C }
  - { offsetInCU: 0x6CBC1, offset: 0x6CBC1, size: 0x8, addend: 0x0, symName: __ZNSt3__119__to_address_helperINS_16reverse_iteratorINS1_IPNS_10unique_ptrIN4data11MarketPriceENS_14default_deleteIS4_EEEEEEEEvE6__callB7v160006ERKSA_, symObjAddr: 0x210A4, symBinAddr: 0x100023700, symSize: 0x44 }
  - { offsetInCU: 0x6CBE5, offset: 0x6CBE5, size: 0x8, addend: 0x0, symName: __ZNKSt3__116reverse_iteratorINS0_IPNS_10unique_ptrIN4data11MarketPriceENS_14default_deleteIS3_EEEEEEEptB7v160006Ev, symObjAddr: 0x210E8, symBinAddr: 0x100023744, symSize: 0x2A0 }
  - { offsetInCU: 0x6CC0C, offset: 0x6CC0C, size: 0x8, addend: 0x0, symName: __ZNSt3__116reverse_iteratorIPNS_10unique_ptrIN4data11MarketPriceENS_14default_deleteIS3_EEEEEpLB7v160006El, symObjAddr: 0x216B4, symBinAddr: 0x100023D10, symSize: 0x84 }
  - { offsetInCU: 0x6CC41, offset: 0x6CC41, size: 0x8, addend: 0x0, symName: __ZNSt3__116reverse_iteratorIPNS_10unique_ptrIN4data11MarketPriceENS_14default_deleteIS3_EEEEEmmB7v160006Ev, symObjAddr: 0x21738, symBinAddr: 0x100023D94, symSize: 0x6C }
  - { offsetInCU: 0x6CC67, offset: 0x6CC67, size: 0x8, addend: 0x0, symName: __ZNSt3__116reverse_iteratorINS0_IPNS_10unique_ptrIN4data11MarketPriceENS_14default_deleteIS3_EEEEEEEC2B7v160006ES8_, symObjAddr: 0x217A4, symBinAddr: 0x100023E00, symSize: 0x22C }
  - { offsetInCU: 0x6CCA5, offset: 0x6CCA5, size: 0x8, addend: 0x0, symName: __ZNSt3__116reverse_iteratorIPNS_10unique_ptrIN4data11MarketPriceENS_14default_deleteIS3_EEEEEC2B7v160006ES7_, symObjAddr: 0x219D0, symBinAddr: 0x10002402C, symSize: 0xB8 }
  - { offsetInCU: 0x6CCDE, offset: 0x6CCDE, size: 0x8, addend: 0x0, symName: __ZNSt3__114__split_bufferINS_10unique_ptrIN4data11MarketPriceENS_14default_deleteIS3_EEEERNS_9allocatorIS6_EEED2Ev, symObjAddr: 0x21A88, symBinAddr: 0x1000240E4, symSize: 0x104 }
  - { offsetInCU: 0x6CD0A, offset: 0x6CD0A, size: 0x8, addend: 0x0, symName: __ZNSt3__114__split_bufferINS_10unique_ptrIN4data11MarketPriceENS_14default_deleteIS3_EEEERNS_9allocatorIS6_EEE5clearB7v160006Ev, symObjAddr: 0x21B8C, symBinAddr: 0x1000241E8, symSize: 0x68 }
  - { offsetInCU: 0x6CD30, offset: 0x6CD30, size: 0x8, addend: 0x0, symName: __ZNSt3__116allocator_traitsINS_9allocatorINS_10unique_ptrIN4data11MarketPriceENS_14default_deleteIS4_EEEEEEE10deallocateB7v160006ERS8_PS7_m, symObjAddr: 0x21BF4, symBinAddr: 0x100024250, symSize: 0x34 }
  - { offsetInCU: 0x6CD72, offset: 0x6CD72, size: 0x8, addend: 0x0, symName: __ZNKSt3__114__split_bufferINS_10unique_ptrIN4data11MarketPriceENS_14default_deleteIS3_EEEERNS_9allocatorIS6_EEE8capacityB7v160006Ev, symObjAddr: 0x21C28, symBinAddr: 0x100024284, symSize: 0xBC }
  - { offsetInCU: 0x6CD98, offset: 0x6CD98, size: 0x8, addend: 0x0, symName: __ZNSt3__114__split_bufferINS_10unique_ptrIN4data11MarketPriceENS_14default_deleteIS3_EEEERNS_9allocatorIS6_EEE17__destruct_at_endB7v160006EPS6_, symObjAddr: 0x21CE4, symBinAddr: 0x100024340, symSize: 0x2C }
  - { offsetInCU: 0x6CDCD, offset: 0x6CDCD, size: 0x8, addend: 0x0, symName: __ZNSt3__114__split_bufferINS_10unique_ptrIN4data11MarketPriceENS_14default_deleteIS3_EEEERNS_9allocatorIS6_EEE17__destruct_at_endB7v160006EPS6_NS_17integral_constantIbLb0EEE, symObjAddr: 0x21D10, symBinAddr: 0x10002436C, symSize: 0x10C }
  - { offsetInCU: 0x6CE0E, offset: 0x6CE0E, size: 0x8, addend: 0x0, symName: __ZNSt3__19allocatorINS_10unique_ptrIN4data11MarketPriceENS_14default_deleteIS3_EEEEE10deallocateB7v160006EPS6_m, symObjAddr: 0x21E1C, symBinAddr: 0x100024478, symSize: 0x4C }
  - { offsetInCU: 0x6CE52, offset: 0x6CE52, size: 0x8, addend: 0x0, symName: __ZNKSt3__114__split_bufferINS_10unique_ptrIN4data11MarketPriceENS_14default_deleteIS3_EEEERNS_9allocatorIS6_EEE9__end_capB7v160006Ev, symObjAddr: 0x21E68, symBinAddr: 0x1000244C4, symSize: 0x28 }
  - { offsetInCU: 0x6CE78, offset: 0x6CE78, size: 0x8, addend: 0x0, symName: __ZNKSt3__117__compressed_pairIPNS_10unique_ptrIN4data11MarketPriceENS_14default_deleteIS3_EEEERNS_9allocatorIS6_EEE5firstB7v160006Ev, symObjAddr: 0x21E90, symBinAddr: 0x1000244EC, symSize: 0x24 }
  - { offsetInCU: 0x6CE9E, offset: 0x6CE9E, size: 0x8, addend: 0x0, symName: __ZNSt3__110unique_ptrIN4data11MarketPriceENS_14default_deleteIS2_EEED2B7v160006Ev, symObjAddr: 0x21EB4, symBinAddr: 0x100024510, symSize: 0x30 }
  - { offsetInCU: 0x6CEC8, offset: 0x6CEC8, size: 0x8, addend: 0x0, symName: __ZNSt3__110unique_ptrIN4data11MarketPriceENS_14default_deleteIS2_EEE5resetB7v160006EPS2_, symObjAddr: 0x21EE4, symBinAddr: 0x100024540, symSize: 0xEC }
  - { offsetInCU: 0x6CF0C, offset: 0x6CF0C, size: 0x8, addend: 0x0, symName: __ZNKSt3__114default_deleteIN4data11MarketPriceEEclB7v160006EPS2_, symObjAddr: 0x21FD0, symBinAddr: 0x10002462C, symSize: 0x44 }
  - { offsetInCU: 0x6CF41, offset: 0x6CF41, size: 0x8, addend: 0x0, symName: __ZNSt3__111unique_lockINS_12shared_mutexEED2B7v160006Ev, symObjAddr: 0x22014, symBinAddr: 0x100024670, symSize: 0xF4 }
  - { offsetInCU: 0x6CF6B, offset: 0x6CF6B, size: 0x8, addend: 0x0, symName: __ZNSt3__112shared_mutex6unlockB7v160006Ev, symObjAddr: 0x22108, symBinAddr: 0x100024764, symSize: 0x24 }
  - { offsetInCU: 0x6CF91, offset: 0x6CF91, size: 0x8, addend: 0x0, symName: __ZN4data11MarketPriceC2Ev, symObjAddr: 0x2212C, symBinAddr: 0x100024788, symSize: 0x304 }
  - { offsetInCU: 0x6CFEC, offset: 0x6CFEC, size: 0x8, addend: 0x0, symName: __ZNSt3__111shared_lockINS_12shared_mutexEEC1B7v160006ERS1_, symObjAddr: 0x22430, symBinAddr: 0x100024A8C, symSize: 0x34 }
  - { offsetInCU: 0x6D025, offset: 0x6D025, size: 0x8, addend: 0x0, symName: __ZNKSt3__16vectorINS_10unique_ptrIN4data11MarketPriceENS_14default_deleteIS3_EEEENS_9allocatorIS6_EEE5beginB7v160006Ev, symObjAddr: 0x22464, symBinAddr: 0x100024AC0, symSize: 0x268 }
  - { offsetInCU: 0x6D04E, offset: 0x6D04E, size: 0x8, addend: 0x0, symName: __ZNKSt3__16vectorINS_10unique_ptrIN4data11MarketPriceENS_14default_deleteIS3_EEEENS_9allocatorIS6_EEE3endB7v160006Ev, symObjAddr: 0x226CC, symBinAddr: 0x100024D28, symSize: 0x26C }
  - { offsetInCU: 0x6D077, offset: 0x6D077, size: 0x8, addend: 0x0, symName: __ZNKSt3__111__wrap_iterIPKNS_10unique_ptrIN4data11MarketPriceENS_14default_deleteIS3_EEEEEdeB7v160006Ev, symObjAddr: 0x2296C, symBinAddr: 0x100024FC8, symSize: 0x60 }
  - { offsetInCU: 0x6D09D, offset: 0x6D09D, size: 0x8, addend: 0x0, symName: __ZNSt3__111__wrap_iterIPKNS_10unique_ptrIN4data11MarketPriceENS_14default_deleteIS3_EEEEEppB7v160006Ev, symObjAddr: 0x229CC, symBinAddr: 0x100025028, symSize: 0x68 }
  - { offsetInCU: 0x6D0C3, offset: 0x6D0C3, size: 0x8, addend: 0x0, symName: __ZNSt3__111shared_lockINS_12shared_mutexEED1B7v160006Ev, symObjAddr: 0x22A34, symBinAddr: 0x100025090, symSize: 0x2C }
  - { offsetInCU: 0x6D0ED, offset: 0x6D0ED, size: 0x8, addend: 0x0, symName: __ZNSt3__111shared_lockINS_12shared_mutexEEC2B7v160006ERS1_, symObjAddr: 0x22A60, symBinAddr: 0x1000250BC, symSize: 0x110 }
  - { offsetInCU: 0x6D126, offset: 0x6D126, size: 0x8, addend: 0x0, symName: __ZNSt3__112shared_mutex11lock_sharedB7v160006Ev, symObjAddr: 0x22B70, symBinAddr: 0x1000251CC, symSize: 0x24 }
  - { offsetInCU: 0x6D14C, offset: 0x6D14C, size: 0x8, addend: 0x0, symName: __ZNKSt3__16vectorINS_10unique_ptrIN4data11MarketPriceENS_14default_deleteIS3_EEEENS_9allocatorIS6_EEE11__make_iterB7v160006EPKS6_, symObjAddr: 0x22B94, symBinAddr: 0x1000251F0, symSize: 0x200 }
  - { offsetInCU: 0x6D183, offset: 0x6D183, size: 0x8, addend: 0x0, symName: __ZNSt3__111__wrap_iterIPKNS_10unique_ptrIN4data11MarketPriceENS_14default_deleteIS3_EEEEEC1B7v160006EPKvS8_, symObjAddr: 0x22D94, symBinAddr: 0x1000253F0, symSize: 0x3C }
  - { offsetInCU: 0x6D1CB, offset: 0x6D1CB, size: 0x8, addend: 0x0, symName: __ZNSt3__111__wrap_iterIPKNS_10unique_ptrIN4data11MarketPriceENS_14default_deleteIS3_EEEEEC2B7v160006EPKvS8_, symObjAddr: 0x22DD0, symBinAddr: 0x10002542C, symSize: 0x74 }
  - { offsetInCU: 0x6D213, offset: 0x6D213, size: 0x8, addend: 0x0, symName: __ZNKSt3__111__wrap_iterIPKNS_10unique_ptrIN4data11MarketPriceENS_14default_deleteIS3_EEEEE4baseB7v160006Ev, symObjAddr: 0x22E8C, symBinAddr: 0x1000254E8, symSize: 0x60 }
  - { offsetInCU: 0x6D239, offset: 0x6D239, size: 0x8, addend: 0x0, symName: __ZNSt3__111shared_lockINS_12shared_mutexEED2B7v160006Ev, symObjAddr: 0x22EEC, symBinAddr: 0x100025548, symSize: 0xF4 }
  - { offsetInCU: 0x6D263, offset: 0x6D263, size: 0x8, addend: 0x0, symName: __ZNSt3__112shared_mutex13unlock_sharedB7v160006Ev, symObjAddr: 0x22FE0, symBinAddr: 0x10002563C, symSize: 0x24 }
  - { offsetInCU: 0x6D289, offset: 0x6D289, size: 0x8, addend: 0x0, symName: __ZN5cache14OrderBookCacheD2Ev, symObjAddr: 0x23004, symBinAddr: 0x100025660, symSize: 0x38 }
  - { offsetInCU: 0x6D2B3, offset: 0x6D2B3, size: 0x8, addend: 0x0, symName: __ZNSt3__16vectorINS_10unique_ptrIN4data11MarketPriceENS_14default_deleteIS3_EEEENS_9allocatorIS6_EEED1B7v160006Ev, symObjAddr: 0x2303C, symBinAddr: 0x100025698, symSize: 0x2C }
  - { offsetInCU: 0x6D2DD, offset: 0x6D2DD, size: 0x8, addend: 0x0, symName: __ZNSt3__112shared_mutexD1B7v160006Ev, symObjAddr: 0x23068, symBinAddr: 0x1000256C4, symSize: 0x2C }
  - { offsetInCU: 0x6D307, offset: 0x6D307, size: 0x8, addend: 0x0, symName: __ZNSt3__16vectorINS_10unique_ptrIN4data11MarketPriceENS_14default_deleteIS3_EEEENS_9allocatorIS6_EEED2B7v160006Ev, symObjAddr: 0x23094, symBinAddr: 0x1000256F0, symSize: 0x1F8 }
  - { offsetInCU: 0x6D332, offset: 0x6D332, size: 0x8, addend: 0x0, symName: __ZNSt3__16vectorINS_10unique_ptrIN4data11MarketPriceENS_14default_deleteIS3_EEEENS_9allocatorIS6_EEE16__destroy_vectorC1ERS9_, symObjAddr: 0x2328C, symBinAddr: 0x1000258E8, symSize: 0x34 }
  - { offsetInCU: 0x6D36B, offset: 0x6D36B, size: 0x8, addend: 0x0, symName: __ZNSt3__16vectorINS_10unique_ptrIN4data11MarketPriceENS_14default_deleteIS3_EEEENS_9allocatorIS6_EEE16__destroy_vectorclB7v160006Ev, symObjAddr: 0x232C0, symBinAddr: 0x10002591C, symSize: 0x264 }
  - { offsetInCU: 0x6D391, offset: 0x6D391, size: 0x8, addend: 0x0, symName: __ZNSt3__16vectorINS_10unique_ptrIN4data11MarketPriceENS_14default_deleteIS3_EEEENS_9allocatorIS6_EEE16__destroy_vectorC2ERS9_, symObjAddr: 0x23524, symBinAddr: 0x100025B80, symSize: 0x70 }
  - { offsetInCU: 0x6D3CA, offset: 0x6D3CA, size: 0x8, addend: 0x0, symName: __ZNSt3__16vectorINS_10unique_ptrIN4data11MarketPriceENS_14default_deleteIS3_EEEENS_9allocatorIS6_EEE7__clearB7v160006Ev, symObjAddr: 0x235A4, symBinAddr: 0x100025C00, symSize: 0x64 }
  - { offsetInCU: 0x6D3F0, offset: 0x6D3F0, size: 0x8, addend: 0x0, symName: __ZNSt3__16vectorINS_10unique_ptrIN4data11MarketPriceENS_14default_deleteIS3_EEEENS_9allocatorIS6_EEE22__base_destruct_at_endB7v160006EPS6_, symObjAddr: 0x23608, symBinAddr: 0x100025C64, symSize: 0x114 }
  - { offsetInCU: 0x6D434, offset: 0x6D434, size: 0x8, addend: 0x0, symName: __ZNSt3__112shared_mutexD2B7v160006Ev, symObjAddr: 0x2371C, symBinAddr: 0x100025D78, symSize: 0x2C }
  - { offsetInCU: 0x6D45E, offset: 0x6D45E, size: 0x8, addend: 0x0, symName: __ZNSt3__119__shared_mutex_baseD1B7v160006Ev, symObjAddr: 0x23748, symBinAddr: 0x100025DA4, symSize: 0x2C }
  - { offsetInCU: 0x6D488, offset: 0x6D488, size: 0x8, addend: 0x0, symName: __ZNSt3__119__shared_mutex_baseD2B7v160006Ev, symObjAddr: 0x23774, symBinAddr: 0x100025DD0, symSize: 0x44 }
  - { offsetInCU: 0x6D4B2, offset: 0x6D4B2, size: 0x8, addend: 0x0, symName: '__ZNSt3__122__compressed_pair_elemIZ21test_order_book_cacheR9TestSuiteE3$_2Li0ELb1EE5__getB7v160006Ev', symObjAddr: 0x237B8, symBinAddr: 0x100025E14, symSize: 0x14 }
  - { offsetInCU: 0x6D4D8, offset: 0x6D4D8, size: 0x8, addend: 0x0, symName: '__ZNSt3__18functionIFvvEEC2IZ21test_order_book_cacheR9TestSuiteE3$_3vEET_', symObjAddr: 0x237CC, symBinAddr: 0x100025E28, symSize: 0x1BC }
  - { offsetInCU: 0x6D522, offset: 0x6D522, size: 0x8, addend: 0x0, symName: '__ZNSt3__110__function12__value_funcIFvvEEC1B7v160006IZ21test_order_book_cacheR9TestSuiteE3$_3vEEOT_', symObjAddr: 0x23988, symBinAddr: 0x100025FE4, symSize: 0x1F8 }
  - { offsetInCU: 0x6D567, offset: 0x6D567, size: 0x8, addend: 0x0, symName: '__ZNSt3__19allocatorIZ21test_order_book_cacheR9TestSuiteE3$_3EC1B7v160006Ev', symObjAddr: 0x23B80, symBinAddr: 0x1000261DC, symSize: 0x2C }
  - { offsetInCU: 0x6D591, offset: 0x6D591, size: 0x8, addend: 0x0, symName: '__ZNSt3__110__function12__value_funcIFvvEEC1B7v160006IZ21test_order_book_cacheR9TestSuiteE3$_3NS_9allocatorIS7_EEEEOT_RKT0_', symObjAddr: 0x23BAC, symBinAddr: 0x100026208, symSize: 0x3C }
  - { offsetInCU: 0x6D5EB, offset: 0x6D5EB, size: 0x8, addend: 0x0, symName: '__ZNSt3__19allocatorIZ21test_order_book_cacheR9TestSuiteE3$_3EC2B7v160006Ev', symObjAddr: 0x23BE8, symBinAddr: 0x100026244, symSize: 0x2C }
  - { offsetInCU: 0x6D615, offset: 0x6D615, size: 0x8, addend: 0x0, symName: '__ZNSt3__116__non_trivial_ifILb1ENS_9allocatorIZ21test_order_book_cacheR9TestSuiteE3$_3EEEC2B7v160006Ev', symObjAddr: 0x23C14, symBinAddr: 0x100026270, symSize: 0x14 }
  - { offsetInCU: 0x6D63F, offset: 0x6D63F, size: 0x8, addend: 0x0, symName: '__ZNSt3__110__function12__value_funcIFvvEEC2B7v160006IZ21test_order_book_cacheR9TestSuiteE3$_3NS_9allocatorIS7_EEEEOT_RKT0_', symObjAddr: 0x23C28, symBinAddr: 0x100026284, symSize: 0x2D0 }
  - { offsetInCU: 0x6D6CD, offset: 0x6D6CD, size: 0x8, addend: 0x0, symName: '__ZNSt3__19allocatorINS_10__function6__funcIZ21test_order_book_cacheR9TestSuiteE3$_3NS0_IS5_EEFvvEEEEC1B7v160006IS5_EERKNS0_IT_EE', symObjAddr: 0x23F10, symBinAddr: 0x10002656C, symSize: 0x34 }
  - { offsetInCU: 0x6D715, offset: 0x6D715, size: 0x8, addend: 0x0, symName: '__ZNSt3__19allocatorIZ21test_order_book_cacheR9TestSuiteE3$_3EC1B7v160006INS_10__function6__funcIS3_S4_FvvEEEEERKNS0_IT_EE', symObjAddr: 0x23F44, symBinAddr: 0x1000265A0, symSize: 0x34 }
  - { offsetInCU: 0x6D752, offset: 0x6D752, size: 0x8, addend: 0x0, symName: '__ZNSt3__110__function6__funcIZ21test_order_book_cacheR9TestSuiteE3$_3NS_9allocatorIS4_EEFvvEEC1B7v160006EOS4_OS6_', symObjAddr: 0x23F78, symBinAddr: 0x1000265D4, symSize: 0x3C }
  - { offsetInCU: 0x6D79A, offset: 0x6D79A, size: 0x8, addend: 0x0, symName: '__ZNSt3__19allocatorINS_10__function6__funcIZ21test_order_book_cacheR9TestSuiteE3$_3NS0_IS5_EEFvvEEEEC2B7v160006IS5_EERKNS0_IT_EE', symObjAddr: 0x23FB4, symBinAddr: 0x100026610, symSize: 0x30 }
  - { offsetInCU: 0x6D7D7, offset: 0x6D7D7, size: 0x8, addend: 0x0, symName: '__ZNSt3__116__non_trivial_ifILb1ENS_9allocatorINS_10__function6__funcIZ21test_order_book_cacheR9TestSuiteE3$_3NS1_IS6_EEFvvEEEEEEC2B7v160006Ev', symObjAddr: 0x23FE4, symBinAddr: 0x100026640, symSize: 0x14 }
  - { offsetInCU: 0x6D801, offset: 0x6D801, size: 0x8, addend: 0x0, symName: '__ZNSt3__19allocatorIZ21test_order_book_cacheR9TestSuiteE3$_3EC2B7v160006INS_10__function6__funcIS3_S4_FvvEEEEERKNS0_IT_EE', symObjAddr: 0x23FF8, symBinAddr: 0x100026654, symSize: 0x30 }
  - { offsetInCU: 0x6D83E, offset: 0x6D83E, size: 0x8, addend: 0x0, symName: '__ZNSt3__110__function6__funcIZ21test_order_book_cacheR9TestSuiteE3$_3NS_9allocatorIS4_EEFvvEEC2B7v160006EOS4_OS6_', symObjAddr: 0x24028, symBinAddr: 0x100026684, symSize: 0xC8 }
  - { offsetInCU: 0x6D886, offset: 0x6D886, size: 0x8, addend: 0x0, symName: '__ZNSt3__110__function12__alloc_funcIZ21test_order_book_cacheR9TestSuiteE3$_3NS_9allocatorIS4_EEFvvEEC1B7v160006EOS4_OS6_', symObjAddr: 0x240F0, symBinAddr: 0x10002674C, symSize: 0x3C }
  - { offsetInCU: 0x6D8CE, offset: 0x6D8CE, size: 0x8, addend: 0x0, symName: '__ZNSt3__110__function6__funcIZ21test_order_book_cacheR9TestSuiteE3$_3NS_9allocatorIS4_EEFvvEED1Ev', symObjAddr: 0x2412C, symBinAddr: 0x100026788, symSize: 0x2C }
  - { offsetInCU: 0x6D8FB, offset: 0x6D8FB, size: 0x8, addend: 0x0, symName: '__ZNSt3__110__function6__funcIZ21test_order_book_cacheR9TestSuiteE3$_3NS_9allocatorIS4_EEFvvEED0Ev', symObjAddr: 0x24158, symBinAddr: 0x1000267B4, symSize: 0x30 }
  - { offsetInCU: 0x6D928, offset: 0x6D928, size: 0x8, addend: 0x0, symName: '__ZNKSt3__110__function6__funcIZ21test_order_book_cacheR9TestSuiteE3$_3NS_9allocatorIS4_EEFvvEE7__cloneEv', symObjAddr: 0x24188, symBinAddr: 0x1000267E4, symSize: 0x448 }
  - { offsetInCU: 0x6D983, offset: 0x6D983, size: 0x8, addend: 0x0, symName: '__ZNKSt3__110__function6__funcIZ21test_order_book_cacheR9TestSuiteE3$_3NS_9allocatorIS4_EEFvvEE7__cloneEPNS0_6__baseIS7_EE', symObjAddr: 0x245D0, symBinAddr: 0x100026C2C, symSize: 0x58 }
  - { offsetInCU: 0x6D9BA, offset: 0x6D9BA, size: 0x8, addend: 0x0, symName: '__ZNSt3__110__function6__funcIZ21test_order_book_cacheR9TestSuiteE3$_3NS_9allocatorIS4_EEFvvEE7destroyEv', symObjAddr: 0x24628, symBinAddr: 0x100026C84, symSize: 0x28 }
  - { offsetInCU: 0x6D9E2, offset: 0x6D9E2, size: 0x8, addend: 0x0, symName: '__ZNSt3__110__function6__funcIZ21test_order_book_cacheR9TestSuiteE3$_3NS_9allocatorIS4_EEFvvEE18destroy_deallocateEv', symObjAddr: 0x24650, symBinAddr: 0x100026CAC, symSize: 0x204 }
  - { offsetInCU: 0x6DA2A, offset: 0x6DA2A, size: 0x8, addend: 0x0, symName: '__ZNSt3__110__function6__funcIZ21test_order_book_cacheR9TestSuiteE3$_3NS_9allocatorIS4_EEFvvEEclEv', symObjAddr: 0x24854, symBinAddr: 0x100026EB0, symSize: 0x28 }
  - { offsetInCU: 0x6DA52, offset: 0x6DA52, size: 0x8, addend: 0x0, symName: '__ZNKSt3__110__function6__funcIZ21test_order_book_cacheR9TestSuiteE3$_3NS_9allocatorIS4_EEFvvEE6targetERKSt9type_info', symObjAddr: 0x2487C, symBinAddr: 0x100026ED8, symSize: 0x60 }
  - { offsetInCU: 0x6DA89, offset: 0x6DA89, size: 0x8, addend: 0x0, symName: '__ZNKSt3__110__function6__funcIZ21test_order_book_cacheR9TestSuiteE3$_3NS_9allocatorIS4_EEFvvEE11target_typeEv', symObjAddr: 0x248DC, symBinAddr: 0x100026F38, symSize: 0x18 }
  - { offsetInCU: 0x6DAB1, offset: 0x6DAB1, size: 0x8, addend: 0x0, symName: '__ZNSt3__110__function12__alloc_funcIZ21test_order_book_cacheR9TestSuiteE3$_3NS_9allocatorIS4_EEFvvEEC2B7v160006EOS4_OS6_', symObjAddr: 0x248F4, symBinAddr: 0x100026F50, symSize: 0x314 }
  - { offsetInCU: 0x6DAFC, offset: 0x6DAFC, size: 0x8, addend: 0x0, symName: '__ZNSt3__117__compressed_pairIZ21test_order_book_cacheR9TestSuiteE3$_3NS_9allocatorIS3_EEEC1B7v160006IJOS3_EJOS5_EEENS_21piecewise_construct_tENS_5tupleIJDpT_EEENSB_IJDpT0_EEE', symObjAddr: 0x24FF8, symBinAddr: 0x100027654, symSize: 0x2FC }
  - { offsetInCU: 0x6DB73, offset: 0x6DB73, size: 0x8, addend: 0x0, symName: '__ZNSt3__15tupleIJOZ21test_order_book_cacheR9TestSuiteE3$_3EEC1B7v160006IJS3_ELi0EEEDpOT_', symObjAddr: 0x252F4, symBinAddr: 0x100027950, symSize: 0x34 }
  - { offsetInCU: 0x6DBBD, offset: 0x6DBBD, size: 0x8, addend: 0x0, symName: '__ZNSt3__15tupleIJOZ21test_order_book_cacheR9TestSuiteE3$_3EEC2B7v160006IJS3_ELi0EEEDpOT_', symObjAddr: 0x25328, symBinAddr: 0x100027984, symSize: 0x34 }
  - { offsetInCU: 0x6DC07, offset: 0x6DC07, size: 0x8, addend: 0x0, symName: '__ZNSt3__112__tuple_implINS_15__tuple_indicesIJLm0EEEEJOZ21test_order_book_cacheR9TestSuiteE3$_3EEC1B7v160006IJLm0EEJS6_EJEJEJS5_EEENS1_IJXspT_EEEENS_13__tuple_typesIJDpT0_EEENS1_IJXspT1_EEEENSA_IJDpT2_EEEDpOT3_', symObjAddr: 0x2535C, symBinAddr: 0x1000279B8, symSize: 0x34 }
  - { offsetInCU: 0x6DC9C, offset: 0x6DC9C, size: 0x8, addend: 0x0, symName: '__ZNSt3__112__tuple_implINS_15__tuple_indicesIJLm0EEEEJOZ21test_order_book_cacheR9TestSuiteE3$_3EEC2B7v160006IJLm0EEJS6_EJEJEJS5_EEENS1_IJXspT_EEEENS_13__tuple_typesIJDpT0_EEENS1_IJXspT1_EEEENSA_IJDpT2_EEEDpOT3_', symObjAddr: 0x25390, symBinAddr: 0x1000279EC, symSize: 0x34 }
  - { offsetInCU: 0x6DD31, offset: 0x6DD31, size: 0x8, addend: 0x0, symName: '__ZNSt3__112__tuple_leafILm0EOZ21test_order_book_cacheR9TestSuiteE3$_3Lb0EEC2B7v160006IS3_vEEOT_', symObjAddr: 0x253C4, symBinAddr: 0x100027A20, symSize: 0x70 }
  - { offsetInCU: 0x6DD74, offset: 0x6DD74, size: 0x8, addend: 0x0, symName: '__ZNSt3__15tupleIJONS_9allocatorIZ21test_order_book_cacheR9TestSuiteE3$_3EEEEC1B7v160006IJS5_ELi0EEEDpOT_', symObjAddr: 0x25434, symBinAddr: 0x100027A90, symSize: 0x34 }
  - { offsetInCU: 0x6DDBE, offset: 0x6DDBE, size: 0x8, addend: 0x0, symName: '__ZNSt3__15tupleIJONS_9allocatorIZ21test_order_book_cacheR9TestSuiteE3$_3EEEEC2B7v160006IJS5_ELi0EEEDpOT_', symObjAddr: 0x25468, symBinAddr: 0x100027AC4, symSize: 0x34 }
  - { offsetInCU: 0x6DE08, offset: 0x6DE08, size: 0x8, addend: 0x0, symName: '__ZNSt3__112__tuple_implINS_15__tuple_indicesIJLm0EEEEJONS_9allocatorIZ21test_order_book_cacheR9TestSuiteE3$_3EEEEC1B7v160006IJLm0EEJS8_EJEJEJS7_EEENS1_IJXspT_EEEENS_13__tuple_typesIJDpT0_EEENS1_IJXspT1_EEEENSC_IJDpT2_EEEDpOT3_', symObjAddr: 0x2549C, symBinAddr: 0x100027AF8, symSize: 0x34 }
  - { offsetInCU: 0x6DE9D, offset: 0x6DE9D, size: 0x8, addend: 0x0, symName: '__ZNSt3__112__tuple_implINS_15__tuple_indicesIJLm0EEEEJONS_9allocatorIZ21test_order_book_cacheR9TestSuiteE3$_3EEEEC2B7v160006IJLm0EEJS8_EJEJEJS7_EEENS1_IJXspT_EEEENS_13__tuple_typesIJDpT0_EEENS1_IJXspT1_EEEENSC_IJDpT2_EEEDpOT3_', symObjAddr: 0x254D0, symBinAddr: 0x100027B2C, symSize: 0x34 }
  - { offsetInCU: 0x6DF32, offset: 0x6DF32, size: 0x8, addend: 0x0, symName: '__ZNSt3__112__tuple_leafILm0EONS_9allocatorIZ21test_order_book_cacheR9TestSuiteE3$_3EELb0EEC2B7v160006IS5_vEEOT_', symObjAddr: 0x25504, symBinAddr: 0x100027B60, symSize: 0x70 }
  - { offsetInCU: 0x6DF75, offset: 0x6DF75, size: 0x8, addend: 0x0, symName: '__ZNSt3__117__compressed_pairIZ21test_order_book_cacheR9TestSuiteE3$_3NS_9allocatorIS3_EEEC2B7v160006IJOS3_EJOS5_EEENS_21piecewise_construct_tENS_5tupleIJDpT_EEENSB_IJDpT0_EEE', symObjAddr: 0x25574, symBinAddr: 0x100027BD0, symSize: 0x360 }
  - { offsetInCU: 0x6DFEC, offset: 0x6DFEC, size: 0x8, addend: 0x0, symName: '__ZNSt3__122__compressed_pair_elemIZ21test_order_book_cacheR9TestSuiteE3$_3Li0ELb1EEC2B7v160006IJOS3_EJLm0EEEENS_21piecewise_construct_tENS_5tupleIJDpT_EEENS_15__tuple_indicesIJXspT0_EEEE', symObjAddr: 0x258D4, symBinAddr: 0x100027F30, symSize: 0x200 }
  - { offsetInCU: 0x6E057, offset: 0x6E057, size: 0x8, addend: 0x0, symName: '__ZNSt3__122__compressed_pair_elemINS_9allocatorIZ21test_order_book_cacheR9TestSuiteE3$_3EELi1ELb1EEC2B7v160006IJOS5_EJLm0EEEENS_21piecewise_construct_tENS_5tupleIJDpT_EEENS_15__tuple_indicesIJXspT0_EEEE', symObjAddr: 0x25AD4, symBinAddr: 0x100028130, symSize: 0x200 }
  - { offsetInCU: 0x6E0C2, offset: 0x6E0C2, size: 0x8, addend: 0x0, symName: '__ZNSt3__112__tuple_leafILm0EOZ21test_order_book_cacheR9TestSuiteE3$_3Lb0EE3getB7v160006Ev', symObjAddr: 0x25CF8, symBinAddr: 0x100028354, symSize: 0x60 }
  - { offsetInCU: 0x6E0E8, offset: 0x6E0E8, size: 0x8, addend: 0x0, symName: '__ZNSt3__112__tuple_leafILm0EONS_9allocatorIZ21test_order_book_cacheR9TestSuiteE3$_3EELb0EE3getB7v160006Ev', symObjAddr: 0x25D7C, symBinAddr: 0x1000283D8, symSize: 0x60 }
  - { offsetInCU: 0x6E10E, offset: 0x6E10E, size: 0x8, addend: 0x0, symName: '__ZNSt3__110__function6__funcIZ21test_order_book_cacheR9TestSuiteE3$_3NS_9allocatorIS4_EEFvvEED2Ev', symObjAddr: 0x25DDC, symBinAddr: 0x100028438, symSize: 0x2C }
  - { offsetInCU: 0x6E13B, offset: 0x6E13B, size: 0x8, addend: 0x0, symName: '__ZNKSt3__110__function12__alloc_funcIZ21test_order_book_cacheR9TestSuiteE3$_3NS_9allocatorIS4_EEFvvEE15__get_allocatorB7v160006Ev', symObjAddr: 0x25E08, symBinAddr: 0x100028464, symSize: 0x24 }
  - { offsetInCU: 0x6E161, offset: 0x6E161, size: 0x8, addend: 0x0, symName: '__ZNSt3__19allocatorINS_10__function6__funcIZ21test_order_book_cacheR9TestSuiteE3$_3NS0_IS5_EEFvvEEEE8allocateB7v160006Em', symObjAddr: 0x25E2C, symBinAddr: 0x100028488, symSize: 0x5C }
  - { offsetInCU: 0x6E1A8, offset: 0x6E1A8, size: 0x8, addend: 0x0, symName: '__ZNSt3__122__allocator_destructorINS_9allocatorINS_10__function6__funcIZ21test_order_book_cacheR9TestSuiteE3$_3NS1_IS6_EEFvvEEEEEEC1B7v160006ERSA_m', symObjAddr: 0x25E88, symBinAddr: 0x1000284E4, symSize: 0x3C }
  - { offsetInCU: 0x6E297, offset: 0x6E297, size: 0x8, addend: 0x0, symName: '__ZNSt3__110unique_ptrINS_10__function6__funcIZ21test_order_book_cacheR9TestSuiteE3$_3NS_9allocatorIS5_EEFvvEEENS_22__allocator_destructorINS6_IS9_EEEEEC1B7v160006ILb1EvEEPS9_NS_16__dependent_typeINS_27__unique_ptr_deleter_sfinaeISC_EEXT_EE20__good_rval_ref_typeE', symObjAddr: 0x25EC4, symBinAddr: 0x100028520, symSize: 0x3C }
  - { offsetInCU: 0x6E2EA, offset: 0x6E2EA, size: 0x8, addend: 0x0, symName: '__ZNKSt3__110unique_ptrINS_10__function6__funcIZ21test_order_book_cacheR9TestSuiteE3$_3NS_9allocatorIS5_EEFvvEEENS_22__allocator_destructorINS6_IS9_EEEEE3getB7v160006Ev', symObjAddr: 0x25F00, symBinAddr: 0x10002855C, symSize: 0x6C }
  - { offsetInCU: 0x6E310, offset: 0x6E310, size: 0x8, addend: 0x0, symName: '__ZNKSt3__110__function12__alloc_funcIZ21test_order_book_cacheR9TestSuiteE3$_3NS_9allocatorIS4_EEFvvEE8__targetB7v160006Ev', symObjAddr: 0x25F6C, symBinAddr: 0x1000285C8, symSize: 0x24 }
  - { offsetInCU: 0x6E336, offset: 0x6E336, size: 0x8, addend: 0x0, symName: '__ZNSt3__110__function6__funcIZ21test_order_book_cacheR9TestSuiteE3$_3NS_9allocatorIS4_EEFvvEEC1B7v160006ERKS4_OS6_', symObjAddr: 0x25F90, symBinAddr: 0x1000285EC, symSize: 0x3C }
  - { offsetInCU: 0x6E37E, offset: 0x6E37E, size: 0x8, addend: 0x0, symName: '__ZNSt3__110unique_ptrINS_10__function6__funcIZ21test_order_book_cacheR9TestSuiteE3$_3NS_9allocatorIS5_EEFvvEEENS_22__allocator_destructorINS6_IS9_EEEEE7releaseB7v160006Ev', symObjAddr: 0x25FCC, symBinAddr: 0x100028628, symSize: 0xB8 }
  - { offsetInCU: 0x6E3B3, offset: 0x6E3B3, size: 0x8, addend: 0x0, symName: '__ZNSt3__110unique_ptrINS_10__function6__funcIZ21test_order_book_cacheR9TestSuiteE3$_3NS_9allocatorIS5_EEFvvEEENS_22__allocator_destructorINS6_IS9_EEEEED1B7v160006Ev', symObjAddr: 0x26084, symBinAddr: 0x1000286E0, symSize: 0x2C }
  - { offsetInCU: 0x6E3DD, offset: 0x6E3DD, size: 0x8, addend: 0x0, symName: '__ZNKSt3__117__compressed_pairIZ21test_order_book_cacheR9TestSuiteE3$_3NS_9allocatorIS3_EEE6secondB7v160006Ev', symObjAddr: 0x260B0, symBinAddr: 0x10002870C, symSize: 0x24 }
  - { offsetInCU: 0x6E403, offset: 0x6E403, size: 0x8, addend: 0x0, symName: '__ZNKSt3__122__compressed_pair_elemINS_9allocatorIZ21test_order_book_cacheR9TestSuiteE3$_3EELi1ELb1EE5__getB7v160006Ev', symObjAddr: 0x260D4, symBinAddr: 0x100028730, symSize: 0x14 }
  - { offsetInCU: 0x6E434, offset: 0x6E434, size: 0x8, addend: 0x0, symName: '__ZNSt3__116allocator_traitsINS_9allocatorINS_10__function6__funcIZ21test_order_book_cacheR9TestSuiteE3$_3NS1_IS6_EEFvvEEEEEE8max_sizeB7v160006ISA_vvEEmRKSA_', symObjAddr: 0x260E8, symBinAddr: 0x100028744, symSize: 0x28 }
  - { offsetInCU: 0x6E460, offset: 0x6E460, size: 0x8, addend: 0x0, symName: '__ZNSt3__122__allocator_destructorINS_9allocatorINS_10__function6__funcIZ21test_order_book_cacheR9TestSuiteE3$_3NS1_IS6_EEFvvEEEEEEC2B7v160006ERSA_m', symObjAddr: 0x26110, symBinAddr: 0x10002876C, symSize: 0xBC }
  - { offsetInCU: 0x6E4A8, offset: 0x6E4A8, size: 0x8, addend: 0x0, symName: '__ZNSt3__110unique_ptrINS_10__function6__funcIZ21test_order_book_cacheR9TestSuiteE3$_3NS_9allocatorIS5_EEFvvEEENS_22__allocator_destructorINS6_IS9_EEEEEC2B7v160006ILb1EvEEPS9_NS_16__dependent_typeINS_27__unique_ptr_deleter_sfinaeISC_EEXT_EE20__good_rval_ref_typeE', symObjAddr: 0x261CC, symBinAddr: 0x100028828, symSize: 0x21C }
  - { offsetInCU: 0x6E501, offset: 0x6E501, size: 0x8, addend: 0x0, symName: '__ZNSt3__117__compressed_pairIPNS_10__function6__funcIZ21test_order_book_cacheR9TestSuiteE3$_3NS_9allocatorIS5_EEFvvEEENS_22__allocator_destructorINS6_IS9_EEEEEC1B7v160006IRSA_SD_EEOT_OT0_', symObjAddr: 0x263E8, symBinAddr: 0x100028A44, symSize: 0x3C }
  - { offsetInCU: 0x6E55B, offset: 0x6E55B, size: 0x8, addend: 0x0, symName: '__ZNSt3__117__compressed_pairIPNS_10__function6__funcIZ21test_order_book_cacheR9TestSuiteE3$_3NS_9allocatorIS5_EEFvvEEENS_22__allocator_destructorINS6_IS9_EEEEEC2B7v160006IRSA_SD_EEOT_OT0_', symObjAddr: 0x26424, symBinAddr: 0x100028A80, symSize: 0x48 }
  - { offsetInCU: 0x6E5B5, offset: 0x6E5B5, size: 0x8, addend: 0x0, symName: '__ZNSt3__122__compressed_pair_elemIPNS_10__function6__funcIZ21test_order_book_cacheR9TestSuiteE3$_3NS_9allocatorIS5_EEFvvEEELi0ELb0EEC2B7v160006IRSA_vEEOT_', symObjAddr: 0x2646C, symBinAddr: 0x100028AC8, symSize: 0xB0 }
  - { offsetInCU: 0x6E5F8, offset: 0x6E5F8, size: 0x8, addend: 0x0, symName: '__ZNSt3__122__compressed_pair_elemINS_22__allocator_destructorINS_9allocatorINS_10__function6__funcIZ21test_order_book_cacheR9TestSuiteE3$_3NS2_IS7_EEFvvEEEEEEELi1ELb0EEC2B7v160006ISC_vEEOT_', symObjAddr: 0x2651C, symBinAddr: 0x100028B78, symSize: 0x38 }
  - { offsetInCU: 0x6E63B, offset: 0x6E63B, size: 0x8, addend: 0x0, symName: '__ZNKSt3__117__compressed_pairIPNS_10__function6__funcIZ21test_order_book_cacheR9TestSuiteE3$_3NS_9allocatorIS5_EEFvvEEENS_22__allocator_destructorINS6_IS9_EEEEE5firstB7v160006Ev', symObjAddr: 0x26554, symBinAddr: 0x100028BB0, symSize: 0x24 }
  - { offsetInCU: 0x6E661, offset: 0x6E661, size: 0x8, addend: 0x0, symName: '__ZNKSt3__122__compressed_pair_elemIPNS_10__function6__funcIZ21test_order_book_cacheR9TestSuiteE3$_3NS_9allocatorIS5_EEFvvEEELi0ELb0EE5__getB7v160006Ev', symObjAddr: 0x26578, symBinAddr: 0x100028BD4, symSize: 0x14 }
  - { offsetInCU: 0x6E687, offset: 0x6E687, size: 0x8, addend: 0x0, symName: '__ZNKSt3__117__compressed_pairIZ21test_order_book_cacheR9TestSuiteE3$_3NS_9allocatorIS3_EEE5firstB7v160006Ev', symObjAddr: 0x2658C, symBinAddr: 0x100028BE8, symSize: 0x24 }
  - { offsetInCU: 0x6E6AD, offset: 0x6E6AD, size: 0x8, addend: 0x0, symName: '__ZNKSt3__122__compressed_pair_elemIZ21test_order_book_cacheR9TestSuiteE3$_3Li0ELb1EE5__getB7v160006Ev', symObjAddr: 0x265B0, symBinAddr: 0x100028C0C, symSize: 0x14 }
  - { offsetInCU: 0x6E6D3, offset: 0x6E6D3, size: 0x8, addend: 0x0, symName: '__ZNSt3__110__function6__funcIZ21test_order_book_cacheR9TestSuiteE3$_3NS_9allocatorIS4_EEFvvEEC2B7v160006ERKS4_OS6_', symObjAddr: 0x265C4, symBinAddr: 0x100028C20, symSize: 0xC8 }
  - { offsetInCU: 0x6E71B, offset: 0x6E71B, size: 0x8, addend: 0x0, symName: '__ZNSt3__110__function12__alloc_funcIZ21test_order_book_cacheR9TestSuiteE3$_3NS_9allocatorIS4_EEFvvEEC1B7v160006ERKS4_OS6_', symObjAddr: 0x2668C, symBinAddr: 0x100028CE8, symSize: 0x3C }
  - { offsetInCU: 0x6E763, offset: 0x6E763, size: 0x8, addend: 0x0, symName: '__ZNSt3__110__function12__alloc_funcIZ21test_order_book_cacheR9TestSuiteE3$_3NS_9allocatorIS4_EEFvvEEC2B7v160006ERKS4_OS6_', symObjAddr: 0x266C8, symBinAddr: 0x100028D24, symSize: 0x314 }
  - { offsetInCU: 0x6E7AE, offset: 0x6E7AE, size: 0x8, addend: 0x0, symName: '__ZNSt3__117__compressed_pairIZ21test_order_book_cacheR9TestSuiteE3$_3NS_9allocatorIS3_EEEC1B7v160006IJRKS3_EJOS5_EEENS_21piecewise_construct_tENS_5tupleIJDpT_EEENSC_IJDpT0_EEE', symObjAddr: 0x26BD4, symBinAddr: 0x100029230, symSize: 0x2FC }
  - { offsetInCU: 0x6E825, offset: 0x6E825, size: 0x8, addend: 0x0, symName: '__ZNSt3__15tupleIJRKZ21test_order_book_cacheR9TestSuiteE3$_3EEC1B7v160006INS_4_AndELi0EEES5_', symObjAddr: 0x26ED0, symBinAddr: 0x10002952C, symSize: 0x34 }
  - { offsetInCU: 0x6E86D, offset: 0x6E86D, size: 0x8, addend: 0x0, symName: '__ZNSt3__15tupleIJRKZ21test_order_book_cacheR9TestSuiteE3$_3EEC2B7v160006INS_4_AndELi0EEES5_', symObjAddr: 0x26F04, symBinAddr: 0x100029560, symSize: 0x34 }
  - { offsetInCU: 0x6E8B5, offset: 0x6E8B5, size: 0x8, addend: 0x0, symName: '__ZNSt3__112__tuple_implINS_15__tuple_indicesIJLm0EEEEJRKZ21test_order_book_cacheR9TestSuiteE3$_3EEC1B7v160006IJLm0EEJS7_EJEJEJS7_EEENS1_IJXspT_EEEENS_13__tuple_typesIJDpT0_EEENS1_IJXspT1_EEEENSB_IJDpT2_EEEDpOT3_', symObjAddr: 0x26F38, symBinAddr: 0x100029594, symSize: 0x34 }
  - { offsetInCU: 0x6E94A, offset: 0x6E94A, size: 0x8, addend: 0x0, symName: '__ZNSt3__112__tuple_implINS_15__tuple_indicesIJLm0EEEEJRKZ21test_order_book_cacheR9TestSuiteE3$_3EEC2B7v160006IJLm0EEJS7_EJEJEJS7_EEENS1_IJXspT_EEEENS_13__tuple_typesIJDpT0_EEENS1_IJXspT1_EEEENSB_IJDpT2_EEEDpOT3_', symObjAddr: 0x26F6C, symBinAddr: 0x1000295C8, symSize: 0x34 }
  - { offsetInCU: 0x6E9DF, offset: 0x6E9DF, size: 0x8, addend: 0x0, symName: '__ZNSt3__112__tuple_leafILm0ERKZ21test_order_book_cacheR9TestSuiteE3$_3Lb0EEC2B7v160006IS5_vEEOT_', symObjAddr: 0x26FA0, symBinAddr: 0x1000295FC, symSize: 0x70 }
  - { offsetInCU: 0x6EA22, offset: 0x6EA22, size: 0x8, addend: 0x0, symName: '__ZNSt3__117__compressed_pairIZ21test_order_book_cacheR9TestSuiteE3$_3NS_9allocatorIS3_EEEC2B7v160006IJRKS3_EJOS5_EEENS_21piecewise_construct_tENS_5tupleIJDpT_EEENSC_IJDpT0_EEE', symObjAddr: 0x27010, symBinAddr: 0x10002966C, symSize: 0x360 }
  - { offsetInCU: 0x6EA99, offset: 0x6EA99, size: 0x8, addend: 0x0, symName: '__ZNSt3__122__compressed_pair_elemIZ21test_order_book_cacheR9TestSuiteE3$_3Li0ELb1EEC2B7v160006IJRKS3_EJLm0EEEENS_21piecewise_construct_tENS_5tupleIJDpT_EEENS_15__tuple_indicesIJXspT0_EEEE', symObjAddr: 0x27370, symBinAddr: 0x1000299CC, symSize: 0x200 }
  - { offsetInCU: 0x6EB04, offset: 0x6EB04, size: 0x8, addend: 0x0, symName: '__ZNSt3__112__tuple_leafILm0ERKZ21test_order_book_cacheR9TestSuiteE3$_3Lb0EE3getB7v160006Ev', symObjAddr: 0x27594, symBinAddr: 0x100029BF0, symSize: 0x60 }
  - { offsetInCU: 0x6EB2A, offset: 0x6EB2A, size: 0x8, addend: 0x0, symName: '__ZNSt3__117__compressed_pairIPNS_10__function6__funcIZ21test_order_book_cacheR9TestSuiteE3$_3NS_9allocatorIS5_EEFvvEEENS_22__allocator_destructorINS6_IS9_EEEEE5firstB7v160006Ev', symObjAddr: 0x275F4, symBinAddr: 0x100029C50, symSize: 0x24 }
  - { offsetInCU: 0x6EB50, offset: 0x6EB50, size: 0x8, addend: 0x0, symName: '__ZNSt3__122__compressed_pair_elemIPNS_10__function6__funcIZ21test_order_book_cacheR9TestSuiteE3$_3NS_9allocatorIS5_EEFvvEEELi0ELb0EE5__getB7v160006Ev', symObjAddr: 0x27618, symBinAddr: 0x100029C74, symSize: 0x14 }
  - { offsetInCU: 0x6EB76, offset: 0x6EB76, size: 0x8, addend: 0x0, symName: '__ZNSt3__110unique_ptrINS_10__function6__funcIZ21test_order_book_cacheR9TestSuiteE3$_3NS_9allocatorIS5_EEFvvEEENS_22__allocator_destructorINS6_IS9_EEEEED2B7v160006Ev', symObjAddr: 0x2762C, symBinAddr: 0x100029C88, symSize: 0x30 }
  - { offsetInCU: 0x6EBA0, offset: 0x6EBA0, size: 0x8, addend: 0x0, symName: '__ZNSt3__110unique_ptrINS_10__function6__funcIZ21test_order_book_cacheR9TestSuiteE3$_3NS_9allocatorIS5_EEFvvEEENS_22__allocator_destructorINS6_IS9_EEEEE5resetB7v160006EPS9_', symObjAddr: 0x2765C, symBinAddr: 0x100029CB8, symSize: 0xEC }
  - { offsetInCU: 0x6EBE4, offset: 0x6EBE4, size: 0x8, addend: 0x0, symName: '__ZNSt3__117__compressed_pairIPNS_10__function6__funcIZ21test_order_book_cacheR9TestSuiteE3$_3NS_9allocatorIS5_EEFvvEEENS_22__allocator_destructorINS6_IS9_EEEEE6secondB7v160006Ev', symObjAddr: 0x27748, symBinAddr: 0x100029DA4, symSize: 0x28 }
  - { offsetInCU: 0x6EC0A, offset: 0x6EC0A, size: 0x8, addend: 0x0, symName: '__ZNSt3__122__allocator_destructorINS_9allocatorINS_10__function6__funcIZ21test_order_book_cacheR9TestSuiteE3$_3NS1_IS6_EEFvvEEEEEEclB7v160006EPS9_', symObjAddr: 0x27770, symBinAddr: 0x100029DCC, symSize: 0xB8 }
  - { offsetInCU: 0x6EC3F, offset: 0x6EC3F, size: 0x8, addend: 0x0, symName: '__ZNSt3__122__compressed_pair_elemINS_22__allocator_destructorINS_9allocatorINS_10__function6__funcIZ21test_order_book_cacheR9TestSuiteE3$_3NS2_IS7_EEFvvEEEEEEELi1ELb0EE5__getB7v160006Ev', symObjAddr: 0x27828, symBinAddr: 0x100029E84, symSize: 0x14 }
  - { offsetInCU: 0x6EC65, offset: 0x6EC65, size: 0x8, addend: 0x0, symName: '__ZNSt3__116allocator_traitsINS_9allocatorINS_10__function6__funcIZ21test_order_book_cacheR9TestSuiteE3$_3NS1_IS6_EEFvvEEEEEE10deallocateB7v160006ERSA_PS9_m', symObjAddr: 0x2783C, symBinAddr: 0x100029E98, symSize: 0x34 }
  - { offsetInCU: 0x6ECA7, offset: 0x6ECA7, size: 0x8, addend: 0x0, symName: '__ZNSt3__19allocatorINS_10__function6__funcIZ21test_order_book_cacheR9TestSuiteE3$_3NS0_IS5_EEFvvEEEE10deallocateB7v160006EPS8_m', symObjAddr: 0x27870, symBinAddr: 0x100029ECC, symSize: 0x4C }
  - { offsetInCU: 0x6ECEB, offset: 0x6ECEB, size: 0x8, addend: 0x0, symName: '__ZNSt3__110__function6__funcIZ21test_order_book_cacheR9TestSuiteE3$_3NS_9allocatorIS4_EEFvvEEC1B7v160006ERKS4_RKS6_', symObjAddr: 0x278BC, symBinAddr: 0x100029F18, symSize: 0x3C }
  - { offsetInCU: 0x6ED33, offset: 0x6ED33, size: 0x8, addend: 0x0, symName: '__ZNSt3__110__function6__funcIZ21test_order_book_cacheR9TestSuiteE3$_3NS_9allocatorIS4_EEFvvEEC2B7v160006ERKS4_RKS6_', symObjAddr: 0x278F8, symBinAddr: 0x100029F54, symSize: 0xC8 }
  - { offsetInCU: 0x6ED7B, offset: 0x6ED7B, size: 0x8, addend: 0x0, symName: '__ZNSt3__110__function12__alloc_funcIZ21test_order_book_cacheR9TestSuiteE3$_3NS_9allocatorIS4_EEFvvEEC1B7v160006ERKS4_RKS6_', symObjAddr: 0x279C0, symBinAddr: 0x10002A01C, symSize: 0x3C }
  - { offsetInCU: 0x6EDC3, offset: 0x6EDC3, size: 0x8, addend: 0x0, symName: '__ZNSt3__110__function12__alloc_funcIZ21test_order_book_cacheR9TestSuiteE3$_3NS_9allocatorIS4_EEFvvEEC2B7v160006ERKS4_RKS6_', symObjAddr: 0x279FC, symBinAddr: 0x10002A058, symSize: 0x314 }
  - { offsetInCU: 0x6EE0E, offset: 0x6EE0E, size: 0x8, addend: 0x0, symName: '__ZNSt3__117__compressed_pairIZ21test_order_book_cacheR9TestSuiteE3$_3NS_9allocatorIS3_EEEC1B7v160006IJRKS3_EJRKS5_EEENS_21piecewise_construct_tENS_5tupleIJDpT_EEENSD_IJDpT0_EEE', symObjAddr: 0x27F08, symBinAddr: 0x10002A564, symSize: 0x2FC }
  - { offsetInCU: 0x6EE85, offset: 0x6EE85, size: 0x8, addend: 0x0, symName: '__ZNSt3__15tupleIJRKNS_9allocatorIZ21test_order_book_cacheR9TestSuiteE3$_3EEEEC1B7v160006INS_4_AndELi0EEES7_', symObjAddr: 0x28204, symBinAddr: 0x10002A860, symSize: 0x34 }
  - { offsetInCU: 0x6EECD, offset: 0x6EECD, size: 0x8, addend: 0x0, symName: '__ZNSt3__15tupleIJRKNS_9allocatorIZ21test_order_book_cacheR9TestSuiteE3$_3EEEEC2B7v160006INS_4_AndELi0EEES7_', symObjAddr: 0x28238, symBinAddr: 0x10002A894, symSize: 0x34 }
  - { offsetInCU: 0x6EF15, offset: 0x6EF15, size: 0x8, addend: 0x0, symName: '__ZNSt3__112__tuple_implINS_15__tuple_indicesIJLm0EEEEJRKNS_9allocatorIZ21test_order_book_cacheR9TestSuiteE3$_3EEEEC1B7v160006IJLm0EEJS9_EJEJEJS9_EEENS1_IJXspT_EEEENS_13__tuple_typesIJDpT0_EEENS1_IJXspT1_EEEENSD_IJDpT2_EEEDpOT3_', symObjAddr: 0x2826C, symBinAddr: 0x10002A8C8, symSize: 0x34 }
  - { offsetInCU: 0x6EFAA, offset: 0x6EFAA, size: 0x8, addend: 0x0, symName: '__ZNSt3__112__tuple_implINS_15__tuple_indicesIJLm0EEEEJRKNS_9allocatorIZ21test_order_book_cacheR9TestSuiteE3$_3EEEEC2B7v160006IJLm0EEJS9_EJEJEJS9_EEENS1_IJXspT_EEEENS_13__tuple_typesIJDpT0_EEENS1_IJXspT1_EEEENSD_IJDpT2_EEEDpOT3_', symObjAddr: 0x282A0, symBinAddr: 0x10002A8FC, symSize: 0x34 }
  - { offsetInCU: 0x6F03F, offset: 0x6F03F, size: 0x8, addend: 0x0, symName: '__ZNSt3__112__tuple_leafILm0ERKNS_9allocatorIZ21test_order_book_cacheR9TestSuiteE3$_3EELb0EEC2B7v160006IS7_vEEOT_', symObjAddr: 0x282D4, symBinAddr: 0x10002A930, symSize: 0x70 }
  - { offsetInCU: 0x6F082, offset: 0x6F082, size: 0x8, addend: 0x0, symName: '__ZNSt3__117__compressed_pairIZ21test_order_book_cacheR9TestSuiteE3$_3NS_9allocatorIS3_EEEC2B7v160006IJRKS3_EJRKS5_EEENS_21piecewise_construct_tENS_5tupleIJDpT_EEENSD_IJDpT0_EEE', symObjAddr: 0x28344, symBinAddr: 0x10002A9A0, symSize: 0x360 }
  - { offsetInCU: 0x6F0F9, offset: 0x6F0F9, size: 0x8, addend: 0x0, symName: '__ZNSt3__122__compressed_pair_elemINS_9allocatorIZ21test_order_book_cacheR9TestSuiteE3$_3EELi1ELb1EEC2B7v160006IJRKS5_EJLm0EEEENS_21piecewise_construct_tENS_5tupleIJDpT_EEENS_15__tuple_indicesIJXspT0_EEEE', symObjAddr: 0x286A4, symBinAddr: 0x10002AD00, symSize: 0x200 }
  - { offsetInCU: 0x6F164, offset: 0x6F164, size: 0x8, addend: 0x0, symName: '__ZNSt3__112__tuple_leafILm0ERKNS_9allocatorIZ21test_order_book_cacheR9TestSuiteE3$_3EELb0EE3getB7v160006Ev', symObjAddr: 0x288C8, symBinAddr: 0x10002AF24, symSize: 0x60 }
  - { offsetInCU: 0x6F18A, offset: 0x6F18A, size: 0x8, addend: 0x0, symName: '__ZNSt3__110__function12__alloc_funcIZ21test_order_book_cacheR9TestSuiteE3$_3NS_9allocatorIS4_EEFvvEE7destroyB7v160006Ev', symObjAddr: 0x28928, symBinAddr: 0x10002AF84, symSize: 0x10 }
  - { offsetInCU: 0x6F1B0, offset: 0x6F1B0, size: 0x8, addend: 0x0, symName: '__ZNSt3__110__function12__alloc_funcIZ21test_order_book_cacheR9TestSuiteE3$_3NS_9allocatorIS4_EEFvvEEclB7v160006Ev', symObjAddr: 0x28938, symBinAddr: 0x10002AF94, symSize: 0x28 }
  - { offsetInCU: 0x6F1D6, offset: 0x6F1D6, size: 0x8, addend: 0x0, symName: '__ZNSt3__128__invoke_void_return_wrapperIvLb1EE6__callIJRZ21test_order_book_cacheR9TestSuiteE3$_3EEEvDpOT_', symObjAddr: 0x28960, symBinAddr: 0x10002AFBC, symSize: 0x24 }
  - { offsetInCU: 0x6F205, offset: 0x6F205, size: 0x8, addend: 0x0, symName: '__ZNSt3__117__compressed_pairIZ21test_order_book_cacheR9TestSuiteE3$_3NS_9allocatorIS3_EEE5firstB7v160006Ev', symObjAddr: 0x28984, symBinAddr: 0x10002AFE0, symSize: 0x24 }
  - { offsetInCU: 0x6F231, offset: 0x6F231, size: 0x8, addend: 0x0, symName: '__ZZ21test_order_book_cacheR9TestSuiteENK3$_3clEv', symObjAddr: 0x289CC, symBinAddr: 0x10002B028, symSize: 0x40C }
  - { offsetInCU: 0x6F283, offset: 0x6F283, size: 0x8, addend: 0x0, symName: '__ZNSt3__122__compressed_pair_elemIZ21test_order_book_cacheR9TestSuiteE3$_3Li0ELb1EE5__getB7v160006Ev', symObjAddr: 0x28DD8, symBinAddr: 0x10002B434, symSize: 0x14 }
  - { offsetInCU: 0x6F2A9, offset: 0x6F2A9, size: 0x8, addend: 0x0, symName: '__ZNSt3__18functionIFvvEEC2IZ21test_order_book_cacheR9TestSuiteE3$_4vEET_', symObjAddr: 0x28DEC, symBinAddr: 0x10002B448, symSize: 0x1BC }
  - { offsetInCU: 0x6F2F3, offset: 0x6F2F3, size: 0x8, addend: 0x0, symName: '__ZNSt3__110__function12__value_funcIFvvEEC1B7v160006IZ21test_order_book_cacheR9TestSuiteE3$_4vEEOT_', symObjAddr: 0x28FA8, symBinAddr: 0x10002B604, symSize: 0x1F8 }
  - { offsetInCU: 0x6F338, offset: 0x6F338, size: 0x8, addend: 0x0, symName: '__ZNSt3__19allocatorIZ21test_order_book_cacheR9TestSuiteE3$_4EC1B7v160006Ev', symObjAddr: 0x291A0, symBinAddr: 0x10002B7FC, symSize: 0x2C }
  - { offsetInCU: 0x6F362, offset: 0x6F362, size: 0x8, addend: 0x0, symName: '__ZNSt3__110__function12__value_funcIFvvEEC1B7v160006IZ21test_order_book_cacheR9TestSuiteE3$_4NS_9allocatorIS7_EEEEOT_RKT0_', symObjAddr: 0x291CC, symBinAddr: 0x10002B828, symSize: 0x3C }
  - { offsetInCU: 0x6F3BC, offset: 0x6F3BC, size: 0x8, addend: 0x0, symName: '__ZNSt3__19allocatorIZ21test_order_book_cacheR9TestSuiteE3$_4EC2B7v160006Ev', symObjAddr: 0x29208, symBinAddr: 0x10002B864, symSize: 0x2C }
  - { offsetInCU: 0x6F3E6, offset: 0x6F3E6, size: 0x8, addend: 0x0, symName: '__ZNSt3__116__non_trivial_ifILb1ENS_9allocatorIZ21test_order_book_cacheR9TestSuiteE3$_4EEEC2B7v160006Ev', symObjAddr: 0x29234, symBinAddr: 0x10002B890, symSize: 0x14 }
  - { offsetInCU: 0x6F410, offset: 0x6F410, size: 0x8, addend: 0x0, symName: '__ZNSt3__110__function12__value_funcIFvvEEC2B7v160006IZ21test_order_book_cacheR9TestSuiteE3$_4NS_9allocatorIS7_EEEEOT_RKT0_', symObjAddr: 0x29248, symBinAddr: 0x10002B8A4, symSize: 0x2D0 }
  - { offsetInCU: 0x6F49E, offset: 0x6F49E, size: 0x8, addend: 0x0, symName: '__ZNSt3__19allocatorINS_10__function6__funcIZ21test_order_book_cacheR9TestSuiteE3$_4NS0_IS5_EEFvvEEEEC1B7v160006IS5_EERKNS0_IT_EE', symObjAddr: 0x29530, symBinAddr: 0x10002BB8C, symSize: 0x34 }
  - { offsetInCU: 0x6F4E6, offset: 0x6F4E6, size: 0x8, addend: 0x0, symName: '__ZNSt3__19allocatorIZ21test_order_book_cacheR9TestSuiteE3$_4EC1B7v160006INS_10__function6__funcIS3_S4_FvvEEEEERKNS0_IT_EE', symObjAddr: 0x29564, symBinAddr: 0x10002BBC0, symSize: 0x34 }
  - { offsetInCU: 0x6F523, offset: 0x6F523, size: 0x8, addend: 0x0, symName: '__ZNSt3__110__function6__funcIZ21test_order_book_cacheR9TestSuiteE3$_4NS_9allocatorIS4_EEFvvEEC1B7v160006EOS4_OS6_', symObjAddr: 0x29598, symBinAddr: 0x10002BBF4, symSize: 0x3C }
  - { offsetInCU: 0x6F56B, offset: 0x6F56B, size: 0x8, addend: 0x0, symName: '__ZNSt3__19allocatorINS_10__function6__funcIZ21test_order_book_cacheR9TestSuiteE3$_4NS0_IS5_EEFvvEEEEC2B7v160006IS5_EERKNS0_IT_EE', symObjAddr: 0x295D4, symBinAddr: 0x10002BC30, symSize: 0x30 }
  - { offsetInCU: 0x6F5A8, offset: 0x6F5A8, size: 0x8, addend: 0x0, symName: '__ZNSt3__116__non_trivial_ifILb1ENS_9allocatorINS_10__function6__funcIZ21test_order_book_cacheR9TestSuiteE3$_4NS1_IS6_EEFvvEEEEEEC2B7v160006Ev', symObjAddr: 0x29604, symBinAddr: 0x10002BC60, symSize: 0x14 }
  - { offsetInCU: 0x6F5D2, offset: 0x6F5D2, size: 0x8, addend: 0x0, symName: '__ZNSt3__19allocatorIZ21test_order_book_cacheR9TestSuiteE3$_4EC2B7v160006INS_10__function6__funcIS3_S4_FvvEEEEERKNS0_IT_EE', symObjAddr: 0x29618, symBinAddr: 0x10002BC74, symSize: 0x30 }
  - { offsetInCU: 0x6F60F, offset: 0x6F60F, size: 0x8, addend: 0x0, symName: '__ZNSt3__110__function6__funcIZ21test_order_book_cacheR9TestSuiteE3$_4NS_9allocatorIS4_EEFvvEEC2B7v160006EOS4_OS6_', symObjAddr: 0x29648, symBinAddr: 0x10002BCA4, symSize: 0xC8 }
  - { offsetInCU: 0x6F657, offset: 0x6F657, size: 0x8, addend: 0x0, symName: '__ZNSt3__110__function12__alloc_funcIZ21test_order_book_cacheR9TestSuiteE3$_4NS_9allocatorIS4_EEFvvEEC1B7v160006EOS4_OS6_', symObjAddr: 0x29710, symBinAddr: 0x10002BD6C, symSize: 0x3C }
  - { offsetInCU: 0x6F69F, offset: 0x6F69F, size: 0x8, addend: 0x0, symName: '__ZNSt3__110__function6__funcIZ21test_order_book_cacheR9TestSuiteE3$_4NS_9allocatorIS4_EEFvvEED1Ev', symObjAddr: 0x2974C, symBinAddr: 0x10002BDA8, symSize: 0x2C }
  - { offsetInCU: 0x6F6CC, offset: 0x6F6CC, size: 0x8, addend: 0x0, symName: '__ZNSt3__110__function6__funcIZ21test_order_book_cacheR9TestSuiteE3$_4NS_9allocatorIS4_EEFvvEED0Ev', symObjAddr: 0x29778, symBinAddr: 0x10002BDD4, symSize: 0x30 }
  - { offsetInCU: 0x6F6F9, offset: 0x6F6F9, size: 0x8, addend: 0x0, symName: '__ZNKSt3__110__function6__funcIZ21test_order_book_cacheR9TestSuiteE3$_4NS_9allocatorIS4_EEFvvEE7__cloneEv', symObjAddr: 0x297A8, symBinAddr: 0x10002BE04, symSize: 0x448 }
  - { offsetInCU: 0x6F754, offset: 0x6F754, size: 0x8, addend: 0x0, symName: '__ZNKSt3__110__function6__funcIZ21test_order_book_cacheR9TestSuiteE3$_4NS_9allocatorIS4_EEFvvEE7__cloneEPNS0_6__baseIS7_EE', symObjAddr: 0x29BF0, symBinAddr: 0x10002C24C, symSize: 0x58 }
  - { offsetInCU: 0x6F78B, offset: 0x6F78B, size: 0x8, addend: 0x0, symName: '__ZNSt3__110__function6__funcIZ21test_order_book_cacheR9TestSuiteE3$_4NS_9allocatorIS4_EEFvvEE7destroyEv', symObjAddr: 0x29C48, symBinAddr: 0x10002C2A4, symSize: 0x28 }
  - { offsetInCU: 0x6F7B3, offset: 0x6F7B3, size: 0x8, addend: 0x0, symName: '__ZNSt3__110__function6__funcIZ21test_order_book_cacheR9TestSuiteE3$_4NS_9allocatorIS4_EEFvvEE18destroy_deallocateEv', symObjAddr: 0x29C70, symBinAddr: 0x10002C2CC, symSize: 0x204 }
  - { offsetInCU: 0x6F7FB, offset: 0x6F7FB, size: 0x8, addend: 0x0, symName: '__ZNSt3__110__function6__funcIZ21test_order_book_cacheR9TestSuiteE3$_4NS_9allocatorIS4_EEFvvEEclEv', symObjAddr: 0x29E74, symBinAddr: 0x10002C4D0, symSize: 0x28 }
  - { offsetInCU: 0x6F823, offset: 0x6F823, size: 0x8, addend: 0x0, symName: '__ZNKSt3__110__function6__funcIZ21test_order_book_cacheR9TestSuiteE3$_4NS_9allocatorIS4_EEFvvEE6targetERKSt9type_info', symObjAddr: 0x29E9C, symBinAddr: 0x10002C4F8, symSize: 0x60 }
  - { offsetInCU: 0x6F85A, offset: 0x6F85A, size: 0x8, addend: 0x0, symName: '__ZNKSt3__110__function6__funcIZ21test_order_book_cacheR9TestSuiteE3$_4NS_9allocatorIS4_EEFvvEE11target_typeEv', symObjAddr: 0x29EFC, symBinAddr: 0x10002C558, symSize: 0x18 }
  - { offsetInCU: 0x6F882, offset: 0x6F882, size: 0x8, addend: 0x0, symName: '__ZNSt3__110__function12__alloc_funcIZ21test_order_book_cacheR9TestSuiteE3$_4NS_9allocatorIS4_EEFvvEEC2B7v160006EOS4_OS6_', symObjAddr: 0x29F14, symBinAddr: 0x10002C570, symSize: 0x314 }
  - { offsetInCU: 0x6F8CD, offset: 0x6F8CD, size: 0x8, addend: 0x0, symName: '__ZNSt3__117__compressed_pairIZ21test_order_book_cacheR9TestSuiteE3$_4NS_9allocatorIS3_EEEC1B7v160006IJOS3_EJOS5_EEENS_21piecewise_construct_tENS_5tupleIJDpT_EEENSB_IJDpT0_EEE', symObjAddr: 0x2A618, symBinAddr: 0x10002CC74, symSize: 0x2FC }
  - { offsetInCU: 0x6F944, offset: 0x6F944, size: 0x8, addend: 0x0, symName: '__ZNSt3__15tupleIJOZ21test_order_book_cacheR9TestSuiteE3$_4EEC1B7v160006IJS3_ELi0EEEDpOT_', symObjAddr: 0x2A914, symBinAddr: 0x10002CF70, symSize: 0x34 }
  - { offsetInCU: 0x6F98E, offset: 0x6F98E, size: 0x8, addend: 0x0, symName: '__ZNSt3__15tupleIJOZ21test_order_book_cacheR9TestSuiteE3$_4EEC2B7v160006IJS3_ELi0EEEDpOT_', symObjAddr: 0x2A948, symBinAddr: 0x10002CFA4, symSize: 0x34 }
  - { offsetInCU: 0x6F9D8, offset: 0x6F9D8, size: 0x8, addend: 0x0, symName: '__ZNSt3__112__tuple_implINS_15__tuple_indicesIJLm0EEEEJOZ21test_order_book_cacheR9TestSuiteE3$_4EEC1B7v160006IJLm0EEJS6_EJEJEJS5_EEENS1_IJXspT_EEEENS_13__tuple_typesIJDpT0_EEENS1_IJXspT1_EEEENSA_IJDpT2_EEEDpOT3_', symObjAddr: 0x2A97C, symBinAddr: 0x10002CFD8, symSize: 0x34 }
  - { offsetInCU: 0x6FA6D, offset: 0x6FA6D, size: 0x8, addend: 0x0, symName: '__ZNSt3__112__tuple_implINS_15__tuple_indicesIJLm0EEEEJOZ21test_order_book_cacheR9TestSuiteE3$_4EEC2B7v160006IJLm0EEJS6_EJEJEJS5_EEENS1_IJXspT_EEEENS_13__tuple_typesIJDpT0_EEENS1_IJXspT1_EEEENSA_IJDpT2_EEEDpOT3_', symObjAddr: 0x2A9B0, symBinAddr: 0x10002D00C, symSize: 0x34 }
  - { offsetInCU: 0x6FB02, offset: 0x6FB02, size: 0x8, addend: 0x0, symName: '__ZNSt3__112__tuple_leafILm0EOZ21test_order_book_cacheR9TestSuiteE3$_4Lb0EEC2B7v160006IS3_vEEOT_', symObjAddr: 0x2A9E4, symBinAddr: 0x10002D040, symSize: 0x70 }
  - { offsetInCU: 0x6FB45, offset: 0x6FB45, size: 0x8, addend: 0x0, symName: '__ZNSt3__15tupleIJONS_9allocatorIZ21test_order_book_cacheR9TestSuiteE3$_4EEEEC1B7v160006IJS5_ELi0EEEDpOT_', symObjAddr: 0x2AA54, symBinAddr: 0x10002D0B0, symSize: 0x34 }
  - { offsetInCU: 0x6FB8F, offset: 0x6FB8F, size: 0x8, addend: 0x0, symName: '__ZNSt3__15tupleIJONS_9allocatorIZ21test_order_book_cacheR9TestSuiteE3$_4EEEEC2B7v160006IJS5_ELi0EEEDpOT_', symObjAddr: 0x2AA88, symBinAddr: 0x10002D0E4, symSize: 0x34 }
  - { offsetInCU: 0x6FBD9, offset: 0x6FBD9, size: 0x8, addend: 0x0, symName: '__ZNSt3__112__tuple_implINS_15__tuple_indicesIJLm0EEEEJONS_9allocatorIZ21test_order_book_cacheR9TestSuiteE3$_4EEEEC1B7v160006IJLm0EEJS8_EJEJEJS7_EEENS1_IJXspT_EEEENS_13__tuple_typesIJDpT0_EEENS1_IJXspT1_EEEENSC_IJDpT2_EEEDpOT3_', symObjAddr: 0x2AABC, symBinAddr: 0x10002D118, symSize: 0x34 }
  - { offsetInCU: 0x6FC6E, offset: 0x6FC6E, size: 0x8, addend: 0x0, symName: '__ZNSt3__112__tuple_implINS_15__tuple_indicesIJLm0EEEEJONS_9allocatorIZ21test_order_book_cacheR9TestSuiteE3$_4EEEEC2B7v160006IJLm0EEJS8_EJEJEJS7_EEENS1_IJXspT_EEEENS_13__tuple_typesIJDpT0_EEENS1_IJXspT1_EEEENSC_IJDpT2_EEEDpOT3_', symObjAddr: 0x2AAF0, symBinAddr: 0x10002D14C, symSize: 0x34 }
  - { offsetInCU: 0x6FD03, offset: 0x6FD03, size: 0x8, addend: 0x0, symName: '__ZNSt3__112__tuple_leafILm0EONS_9allocatorIZ21test_order_book_cacheR9TestSuiteE3$_4EELb0EEC2B7v160006IS5_vEEOT_', symObjAddr: 0x2AB24, symBinAddr: 0x10002D180, symSize: 0x70 }
  - { offsetInCU: 0x6FD46, offset: 0x6FD46, size: 0x8, addend: 0x0, symName: '__ZNSt3__117__compressed_pairIZ21test_order_book_cacheR9TestSuiteE3$_4NS_9allocatorIS3_EEEC2B7v160006IJOS3_EJOS5_EEENS_21piecewise_construct_tENS_5tupleIJDpT_EEENSB_IJDpT0_EEE', symObjAddr: 0x2AB94, symBinAddr: 0x10002D1F0, symSize: 0x360 }
  - { offsetInCU: 0x6FDBD, offset: 0x6FDBD, size: 0x8, addend: 0x0, symName: '__ZNSt3__122__compressed_pair_elemIZ21test_order_book_cacheR9TestSuiteE3$_4Li0ELb1EEC2B7v160006IJOS3_EJLm0EEEENS_21piecewise_construct_tENS_5tupleIJDpT_EEENS_15__tuple_indicesIJXspT0_EEEE', symObjAddr: 0x2AEF4, symBinAddr: 0x10002D550, symSize: 0x200 }
  - { offsetInCU: 0x6FE28, offset: 0x6FE28, size: 0x8, addend: 0x0, symName: '__ZNSt3__122__compressed_pair_elemINS_9allocatorIZ21test_order_book_cacheR9TestSuiteE3$_4EELi1ELb1EEC2B7v160006IJOS5_EJLm0EEEENS_21piecewise_construct_tENS_5tupleIJDpT_EEENS_15__tuple_indicesIJXspT0_EEEE', symObjAddr: 0x2B0F4, symBinAddr: 0x10002D750, symSize: 0x200 }
  - { offsetInCU: 0x6FE93, offset: 0x6FE93, size: 0x8, addend: 0x0, symName: '__ZNSt3__112__tuple_leafILm0EOZ21test_order_book_cacheR9TestSuiteE3$_4Lb0EE3getB7v160006Ev', symObjAddr: 0x2B318, symBinAddr: 0x10002D974, symSize: 0x60 }
  - { offsetInCU: 0x6FEB9, offset: 0x6FEB9, size: 0x8, addend: 0x0, symName: '__ZNSt3__112__tuple_leafILm0EONS_9allocatorIZ21test_order_book_cacheR9TestSuiteE3$_4EELb0EE3getB7v160006Ev', symObjAddr: 0x2B39C, symBinAddr: 0x10002D9F8, symSize: 0x60 }
  - { offsetInCU: 0x6FEDF, offset: 0x6FEDF, size: 0x8, addend: 0x0, symName: '__ZNSt3__110__function6__funcIZ21test_order_book_cacheR9TestSuiteE3$_4NS_9allocatorIS4_EEFvvEED2Ev', symObjAddr: 0x2B3FC, symBinAddr: 0x10002DA58, symSize: 0x2C }
  - { offsetInCU: 0x6FF0C, offset: 0x6FF0C, size: 0x8, addend: 0x0, symName: '__ZNKSt3__110__function12__alloc_funcIZ21test_order_book_cacheR9TestSuiteE3$_4NS_9allocatorIS4_EEFvvEE15__get_allocatorB7v160006Ev', symObjAddr: 0x2B428, symBinAddr: 0x10002DA84, symSize: 0x24 }
  - { offsetInCU: 0x6FF32, offset: 0x6FF32, size: 0x8, addend: 0x0, symName: '__ZNSt3__19allocatorINS_10__function6__funcIZ21test_order_book_cacheR9TestSuiteE3$_4NS0_IS5_EEFvvEEEE8allocateB7v160006Em', symObjAddr: 0x2B44C, symBinAddr: 0x10002DAA8, symSize: 0x5C }
  - { offsetInCU: 0x6FF79, offset: 0x6FF79, size: 0x8, addend: 0x0, symName: '__ZNSt3__122__allocator_destructorINS_9allocatorINS_10__function6__funcIZ21test_order_book_cacheR9TestSuiteE3$_4NS1_IS6_EEFvvEEEEEEC1B7v160006ERSA_m', symObjAddr: 0x2B4A8, symBinAddr: 0x10002DB04, symSize: 0x3C }
  - { offsetInCU: 0x70068, offset: 0x70068, size: 0x8, addend: 0x0, symName: '__ZNSt3__110unique_ptrINS_10__function6__funcIZ21test_order_book_cacheR9TestSuiteE3$_4NS_9allocatorIS5_EEFvvEEENS_22__allocator_destructorINS6_IS9_EEEEEC1B7v160006ILb1EvEEPS9_NS_16__dependent_typeINS_27__unique_ptr_deleter_sfinaeISC_EEXT_EE20__good_rval_ref_typeE', symObjAddr: 0x2B4E4, symBinAddr: 0x10002DB40, symSize: 0x3C }
  - { offsetInCU: 0x700BB, offset: 0x700BB, size: 0x8, addend: 0x0, symName: '__ZNKSt3__110unique_ptrINS_10__function6__funcIZ21test_order_book_cacheR9TestSuiteE3$_4NS_9allocatorIS5_EEFvvEEENS_22__allocator_destructorINS6_IS9_EEEEE3getB7v160006Ev', symObjAddr: 0x2B520, symBinAddr: 0x10002DB7C, symSize: 0x6C }
  - { offsetInCU: 0x700E1, offset: 0x700E1, size: 0x8, addend: 0x0, symName: '__ZNKSt3__110__function12__alloc_funcIZ21test_order_book_cacheR9TestSuiteE3$_4NS_9allocatorIS4_EEFvvEE8__targetB7v160006Ev', symObjAddr: 0x2B58C, symBinAddr: 0x10002DBE8, symSize: 0x24 }
  - { offsetInCU: 0x70107, offset: 0x70107, size: 0x8, addend: 0x0, symName: '__ZNSt3__110__function6__funcIZ21test_order_book_cacheR9TestSuiteE3$_4NS_9allocatorIS4_EEFvvEEC1B7v160006ERKS4_OS6_', symObjAddr: 0x2B5B0, symBinAddr: 0x10002DC0C, symSize: 0x3C }
  - { offsetInCU: 0x7014F, offset: 0x7014F, size: 0x8, addend: 0x0, symName: '__ZNSt3__110unique_ptrINS_10__function6__funcIZ21test_order_book_cacheR9TestSuiteE3$_4NS_9allocatorIS5_EEFvvEEENS_22__allocator_destructorINS6_IS9_EEEEE7releaseB7v160006Ev', symObjAddr: 0x2B5EC, symBinAddr: 0x10002DC48, symSize: 0xB8 }
  - { offsetInCU: 0x70184, offset: 0x70184, size: 0x8, addend: 0x0, symName: '__ZNSt3__110unique_ptrINS_10__function6__funcIZ21test_order_book_cacheR9TestSuiteE3$_4NS_9allocatorIS5_EEFvvEEENS_22__allocator_destructorINS6_IS9_EEEEED1B7v160006Ev', symObjAddr: 0x2B6A4, symBinAddr: 0x10002DD00, symSize: 0x2C }
  - { offsetInCU: 0x701AE, offset: 0x701AE, size: 0x8, addend: 0x0, symName: '__ZNKSt3__117__compressed_pairIZ21test_order_book_cacheR9TestSuiteE3$_4NS_9allocatorIS3_EEE6secondB7v160006Ev', symObjAddr: 0x2B6D0, symBinAddr: 0x10002DD2C, symSize: 0x24 }
  - { offsetInCU: 0x701D4, offset: 0x701D4, size: 0x8, addend: 0x0, symName: '__ZNKSt3__122__compressed_pair_elemINS_9allocatorIZ21test_order_book_cacheR9TestSuiteE3$_4EELi1ELb1EE5__getB7v160006Ev', symObjAddr: 0x2B6F4, symBinAddr: 0x10002DD50, symSize: 0x14 }
  - { offsetInCU: 0x70205, offset: 0x70205, size: 0x8, addend: 0x0, symName: '__ZNSt3__116allocator_traitsINS_9allocatorINS_10__function6__funcIZ21test_order_book_cacheR9TestSuiteE3$_4NS1_IS6_EEFvvEEEEEE8max_sizeB7v160006ISA_vvEEmRKSA_', symObjAddr: 0x2B708, symBinAddr: 0x10002DD64, symSize: 0x28 }
  - { offsetInCU: 0x70231, offset: 0x70231, size: 0x8, addend: 0x0, symName: '__ZNSt3__122__allocator_destructorINS_9allocatorINS_10__function6__funcIZ21test_order_book_cacheR9TestSuiteE3$_4NS1_IS6_EEFvvEEEEEEC2B7v160006ERSA_m', symObjAddr: 0x2B730, symBinAddr: 0x10002DD8C, symSize: 0xBC }
  - { offsetInCU: 0x70279, offset: 0x70279, size: 0x8, addend: 0x0, symName: '__ZNSt3__110unique_ptrINS_10__function6__funcIZ21test_order_book_cacheR9TestSuiteE3$_4NS_9allocatorIS5_EEFvvEEENS_22__allocator_destructorINS6_IS9_EEEEEC2B7v160006ILb1EvEEPS9_NS_16__dependent_typeINS_27__unique_ptr_deleter_sfinaeISC_EEXT_EE20__good_rval_ref_typeE', symObjAddr: 0x2B7EC, symBinAddr: 0x10002DE48, symSize: 0x21C }
  - { offsetInCU: 0x702D2, offset: 0x702D2, size: 0x8, addend: 0x0, symName: '__ZNSt3__117__compressed_pairIPNS_10__function6__funcIZ21test_order_book_cacheR9TestSuiteE3$_4NS_9allocatorIS5_EEFvvEEENS_22__allocator_destructorINS6_IS9_EEEEEC1B7v160006IRSA_SD_EEOT_OT0_', symObjAddr: 0x2BA08, symBinAddr: 0x10002E064, symSize: 0x3C }
  - { offsetInCU: 0x7032C, offset: 0x7032C, size: 0x8, addend: 0x0, symName: '__ZNSt3__117__compressed_pairIPNS_10__function6__funcIZ21test_order_book_cacheR9TestSuiteE3$_4NS_9allocatorIS5_EEFvvEEENS_22__allocator_destructorINS6_IS9_EEEEEC2B7v160006IRSA_SD_EEOT_OT0_', symObjAddr: 0x2BA44, symBinAddr: 0x10002E0A0, symSize: 0x48 }
  - { offsetInCU: 0x70386, offset: 0x70386, size: 0x8, addend: 0x0, symName: '__ZNSt3__122__compressed_pair_elemIPNS_10__function6__funcIZ21test_order_book_cacheR9TestSuiteE3$_4NS_9allocatorIS5_EEFvvEEELi0ELb0EEC2B7v160006IRSA_vEEOT_', symObjAddr: 0x2BA8C, symBinAddr: 0x10002E0E8, symSize: 0xB0 }
  - { offsetInCU: 0x703C9, offset: 0x703C9, size: 0x8, addend: 0x0, symName: '__ZNSt3__122__compressed_pair_elemINS_22__allocator_destructorINS_9allocatorINS_10__function6__funcIZ21test_order_book_cacheR9TestSuiteE3$_4NS2_IS7_EEFvvEEEEEEELi1ELb0EEC2B7v160006ISC_vEEOT_', symObjAddr: 0x2BB3C, symBinAddr: 0x10002E198, symSize: 0x38 }
  - { offsetInCU: 0x7040C, offset: 0x7040C, size: 0x8, addend: 0x0, symName: '__ZNKSt3__117__compressed_pairIPNS_10__function6__funcIZ21test_order_book_cacheR9TestSuiteE3$_4NS_9allocatorIS5_EEFvvEEENS_22__allocator_destructorINS6_IS9_EEEEE5firstB7v160006Ev', symObjAddr: 0x2BB74, symBinAddr: 0x10002E1D0, symSize: 0x24 }
  - { offsetInCU: 0x70432, offset: 0x70432, size: 0x8, addend: 0x0, symName: '__ZNKSt3__122__compressed_pair_elemIPNS_10__function6__funcIZ21test_order_book_cacheR9TestSuiteE3$_4NS_9allocatorIS5_EEFvvEEELi0ELb0EE5__getB7v160006Ev', symObjAddr: 0x2BB98, symBinAddr: 0x10002E1F4, symSize: 0x14 }
  - { offsetInCU: 0x70458, offset: 0x70458, size: 0x8, addend: 0x0, symName: '__ZNKSt3__117__compressed_pairIZ21test_order_book_cacheR9TestSuiteE3$_4NS_9allocatorIS3_EEE5firstB7v160006Ev', symObjAddr: 0x2BBAC, symBinAddr: 0x10002E208, symSize: 0x24 }
  - { offsetInCU: 0x7047E, offset: 0x7047E, size: 0x8, addend: 0x0, symName: '__ZNKSt3__122__compressed_pair_elemIZ21test_order_book_cacheR9TestSuiteE3$_4Li0ELb1EE5__getB7v160006Ev', symObjAddr: 0x2BBD0, symBinAddr: 0x10002E22C, symSize: 0x14 }
  - { offsetInCU: 0x704A4, offset: 0x704A4, size: 0x8, addend: 0x0, symName: '__ZNSt3__110__function6__funcIZ21test_order_book_cacheR9TestSuiteE3$_4NS_9allocatorIS4_EEFvvEEC2B7v160006ERKS4_OS6_', symObjAddr: 0x2BBE4, symBinAddr: 0x10002E240, symSize: 0xC8 }
  - { offsetInCU: 0x704EC, offset: 0x704EC, size: 0x8, addend: 0x0, symName: '__ZNSt3__110__function12__alloc_funcIZ21test_order_book_cacheR9TestSuiteE3$_4NS_9allocatorIS4_EEFvvEEC1B7v160006ERKS4_OS6_', symObjAddr: 0x2BCAC, symBinAddr: 0x10002E308, symSize: 0x3C }
  - { offsetInCU: 0x70534, offset: 0x70534, size: 0x8, addend: 0x0, symName: '__ZNSt3__110__function12__alloc_funcIZ21test_order_book_cacheR9TestSuiteE3$_4NS_9allocatorIS4_EEFvvEEC2B7v160006ERKS4_OS6_', symObjAddr: 0x2BCE8, symBinAddr: 0x10002E344, symSize: 0x314 }
  - { offsetInCU: 0x7057F, offset: 0x7057F, size: 0x8, addend: 0x0, symName: '__ZNSt3__117__compressed_pairIZ21test_order_book_cacheR9TestSuiteE3$_4NS_9allocatorIS3_EEEC1B7v160006IJRKS3_EJOS5_EEENS_21piecewise_construct_tENS_5tupleIJDpT_EEENSC_IJDpT0_EEE', symObjAddr: 0x2C1F4, symBinAddr: 0x10002E850, symSize: 0x2FC }
  - { offsetInCU: 0x705F6, offset: 0x705F6, size: 0x8, addend: 0x0, symName: '__ZNSt3__15tupleIJRKZ21test_order_book_cacheR9TestSuiteE3$_4EEC1B7v160006INS_4_AndELi0EEES5_', symObjAddr: 0x2C4F0, symBinAddr: 0x10002EB4C, symSize: 0x34 }
  - { offsetInCU: 0x7063E, offset: 0x7063E, size: 0x8, addend: 0x0, symName: '__ZNSt3__15tupleIJRKZ21test_order_book_cacheR9TestSuiteE3$_4EEC2B7v160006INS_4_AndELi0EEES5_', symObjAddr: 0x2C524, symBinAddr: 0x10002EB80, symSize: 0x34 }
  - { offsetInCU: 0x70686, offset: 0x70686, size: 0x8, addend: 0x0, symName: '__ZNSt3__112__tuple_implINS_15__tuple_indicesIJLm0EEEEJRKZ21test_order_book_cacheR9TestSuiteE3$_4EEC1B7v160006IJLm0EEJS7_EJEJEJS7_EEENS1_IJXspT_EEEENS_13__tuple_typesIJDpT0_EEENS1_IJXspT1_EEEENSB_IJDpT2_EEEDpOT3_', symObjAddr: 0x2C558, symBinAddr: 0x10002EBB4, symSize: 0x34 }
  - { offsetInCU: 0x7071B, offset: 0x7071B, size: 0x8, addend: 0x0, symName: '__ZNSt3__112__tuple_implINS_15__tuple_indicesIJLm0EEEEJRKZ21test_order_book_cacheR9TestSuiteE3$_4EEC2B7v160006IJLm0EEJS7_EJEJEJS7_EEENS1_IJXspT_EEEENS_13__tuple_typesIJDpT0_EEENS1_IJXspT1_EEEENSB_IJDpT2_EEEDpOT3_', symObjAddr: 0x2C58C, symBinAddr: 0x10002EBE8, symSize: 0x34 }
  - { offsetInCU: 0x707B0, offset: 0x707B0, size: 0x8, addend: 0x0, symName: '__ZNSt3__112__tuple_leafILm0ERKZ21test_order_book_cacheR9TestSuiteE3$_4Lb0EEC2B7v160006IS5_vEEOT_', symObjAddr: 0x2C5C0, symBinAddr: 0x10002EC1C, symSize: 0x70 }
  - { offsetInCU: 0x707F3, offset: 0x707F3, size: 0x8, addend: 0x0, symName: '__ZNSt3__117__compressed_pairIZ21test_order_book_cacheR9TestSuiteE3$_4NS_9allocatorIS3_EEEC2B7v160006IJRKS3_EJOS5_EEENS_21piecewise_construct_tENS_5tupleIJDpT_EEENSC_IJDpT0_EEE', symObjAddr: 0x2C630, symBinAddr: 0x10002EC8C, symSize: 0x360 }
  - { offsetInCU: 0x7086A, offset: 0x7086A, size: 0x8, addend: 0x0, symName: '__ZNSt3__122__compressed_pair_elemIZ21test_order_book_cacheR9TestSuiteE3$_4Li0ELb1EEC2B7v160006IJRKS3_EJLm0EEEENS_21piecewise_construct_tENS_5tupleIJDpT_EEENS_15__tuple_indicesIJXspT0_EEEE', symObjAddr: 0x2C990, symBinAddr: 0x10002EFEC, symSize: 0x200 }
  - { offsetInCU: 0x708D5, offset: 0x708D5, size: 0x8, addend: 0x0, symName: '__ZNSt3__112__tuple_leafILm0ERKZ21test_order_book_cacheR9TestSuiteE3$_4Lb0EE3getB7v160006Ev', symObjAddr: 0x2CBB4, symBinAddr: 0x10002F210, symSize: 0x60 }
  - { offsetInCU: 0x708FB, offset: 0x708FB, size: 0x8, addend: 0x0, symName: '__ZNSt3__117__compressed_pairIPNS_10__function6__funcIZ21test_order_book_cacheR9TestSuiteE3$_4NS_9allocatorIS5_EEFvvEEENS_22__allocator_destructorINS6_IS9_EEEEE5firstB7v160006Ev', symObjAddr: 0x2CC14, symBinAddr: 0x10002F270, symSize: 0x24 }
  - { offsetInCU: 0x70921, offset: 0x70921, size: 0x8, addend: 0x0, symName: '__ZNSt3__122__compressed_pair_elemIPNS_10__function6__funcIZ21test_order_book_cacheR9TestSuiteE3$_4NS_9allocatorIS5_EEFvvEEELi0ELb0EE5__getB7v160006Ev', symObjAddr: 0x2CC38, symBinAddr: 0x10002F294, symSize: 0x14 }
  - { offsetInCU: 0x70947, offset: 0x70947, size: 0x8, addend: 0x0, symName: '__ZNSt3__110unique_ptrINS_10__function6__funcIZ21test_order_book_cacheR9TestSuiteE3$_4NS_9allocatorIS5_EEFvvEEENS_22__allocator_destructorINS6_IS9_EEEEED2B7v160006Ev', symObjAddr: 0x2CC4C, symBinAddr: 0x10002F2A8, symSize: 0x30 }
  - { offsetInCU: 0x70971, offset: 0x70971, size: 0x8, addend: 0x0, symName: '__ZNSt3__110unique_ptrINS_10__function6__funcIZ21test_order_book_cacheR9TestSuiteE3$_4NS_9allocatorIS5_EEFvvEEENS_22__allocator_destructorINS6_IS9_EEEEE5resetB7v160006EPS9_', symObjAddr: 0x2CC7C, symBinAddr: 0x10002F2D8, symSize: 0xEC }
  - { offsetInCU: 0x709B5, offset: 0x709B5, size: 0x8, addend: 0x0, symName: '__ZNSt3__117__compressed_pairIPNS_10__function6__funcIZ21test_order_book_cacheR9TestSuiteE3$_4NS_9allocatorIS5_EEFvvEEENS_22__allocator_destructorINS6_IS9_EEEEE6secondB7v160006Ev', symObjAddr: 0x2CD68, symBinAddr: 0x10002F3C4, symSize: 0x28 }
  - { offsetInCU: 0x709DB, offset: 0x709DB, size: 0x8, addend: 0x0, symName: '__ZNSt3__122__allocator_destructorINS_9allocatorINS_10__function6__funcIZ21test_order_book_cacheR9TestSuiteE3$_4NS1_IS6_EEFvvEEEEEEclB7v160006EPS9_', symObjAddr: 0x2CD90, symBinAddr: 0x10002F3EC, symSize: 0xB8 }
  - { offsetInCU: 0x70A10, offset: 0x70A10, size: 0x8, addend: 0x0, symName: '__ZNSt3__122__compressed_pair_elemINS_22__allocator_destructorINS_9allocatorINS_10__function6__funcIZ21test_order_book_cacheR9TestSuiteE3$_4NS2_IS7_EEFvvEEEEEEELi1ELb0EE5__getB7v160006Ev', symObjAddr: 0x2CE48, symBinAddr: 0x10002F4A4, symSize: 0x14 }
  - { offsetInCU: 0x70A36, offset: 0x70A36, size: 0x8, addend: 0x0, symName: '__ZNSt3__116allocator_traitsINS_9allocatorINS_10__function6__funcIZ21test_order_book_cacheR9TestSuiteE3$_4NS1_IS6_EEFvvEEEEEE10deallocateB7v160006ERSA_PS9_m', symObjAddr: 0x2CE5C, symBinAddr: 0x10002F4B8, symSize: 0x34 }
  - { offsetInCU: 0x70A78, offset: 0x70A78, size: 0x8, addend: 0x0, symName: '__ZNSt3__19allocatorINS_10__function6__funcIZ21test_order_book_cacheR9TestSuiteE3$_4NS0_IS5_EEFvvEEEE10deallocateB7v160006EPS8_m', symObjAddr: 0x2CE90, symBinAddr: 0x10002F4EC, symSize: 0x4C }
  - { offsetInCU: 0x70ABC, offset: 0x70ABC, size: 0x8, addend: 0x0, symName: '__ZNSt3__110__function6__funcIZ21test_order_book_cacheR9TestSuiteE3$_4NS_9allocatorIS4_EEFvvEEC1B7v160006ERKS4_RKS6_', symObjAddr: 0x2CEDC, symBinAddr: 0x10002F538, symSize: 0x3C }
  - { offsetInCU: 0x70B04, offset: 0x70B04, size: 0x8, addend: 0x0, symName: '__ZNSt3__110__function6__funcIZ21test_order_book_cacheR9TestSuiteE3$_4NS_9allocatorIS4_EEFvvEEC2B7v160006ERKS4_RKS6_', symObjAddr: 0x2CF18, symBinAddr: 0x10002F574, symSize: 0xC8 }
  - { offsetInCU: 0x70B4C, offset: 0x70B4C, size: 0x8, addend: 0x0, symName: '__ZNSt3__110__function12__alloc_funcIZ21test_order_book_cacheR9TestSuiteE3$_4NS_9allocatorIS4_EEFvvEEC1B7v160006ERKS4_RKS6_', symObjAddr: 0x2CFE0, symBinAddr: 0x10002F63C, symSize: 0x3C }
  - { offsetInCU: 0x70B94, offset: 0x70B94, size: 0x8, addend: 0x0, symName: '__ZNSt3__110__function12__alloc_funcIZ21test_order_book_cacheR9TestSuiteE3$_4NS_9allocatorIS4_EEFvvEEC2B7v160006ERKS4_RKS6_', symObjAddr: 0x2D01C, symBinAddr: 0x10002F678, symSize: 0x314 }
  - { offsetInCU: 0x70BDF, offset: 0x70BDF, size: 0x8, addend: 0x0, symName: '__ZNSt3__117__compressed_pairIZ21test_order_book_cacheR9TestSuiteE3$_4NS_9allocatorIS3_EEEC1B7v160006IJRKS3_EJRKS5_EEENS_21piecewise_construct_tENS_5tupleIJDpT_EEENSD_IJDpT0_EEE', symObjAddr: 0x2D528, symBinAddr: 0x10002FB84, symSize: 0x2FC }
  - { offsetInCU: 0x70C56, offset: 0x70C56, size: 0x8, addend: 0x0, symName: '__ZNSt3__15tupleIJRKNS_9allocatorIZ21test_order_book_cacheR9TestSuiteE3$_4EEEEC1B7v160006INS_4_AndELi0EEES7_', symObjAddr: 0x2D824, symBinAddr: 0x10002FE80, symSize: 0x34 }
  - { offsetInCU: 0x70C9E, offset: 0x70C9E, size: 0x8, addend: 0x0, symName: '__ZNSt3__15tupleIJRKNS_9allocatorIZ21test_order_book_cacheR9TestSuiteE3$_4EEEEC2B7v160006INS_4_AndELi0EEES7_', symObjAddr: 0x2D858, symBinAddr: 0x10002FEB4, symSize: 0x34 }
  - { offsetInCU: 0x70CE6, offset: 0x70CE6, size: 0x8, addend: 0x0, symName: '__ZNSt3__112__tuple_implINS_15__tuple_indicesIJLm0EEEEJRKNS_9allocatorIZ21test_order_book_cacheR9TestSuiteE3$_4EEEEC1B7v160006IJLm0EEJS9_EJEJEJS9_EEENS1_IJXspT_EEEENS_13__tuple_typesIJDpT0_EEENS1_IJXspT1_EEEENSD_IJDpT2_EEEDpOT3_', symObjAddr: 0x2D88C, symBinAddr: 0x10002FEE8, symSize: 0x34 }
  - { offsetInCU: 0x70D7B, offset: 0x70D7B, size: 0x8, addend: 0x0, symName: '__ZNSt3__112__tuple_implINS_15__tuple_indicesIJLm0EEEEJRKNS_9allocatorIZ21test_order_book_cacheR9TestSuiteE3$_4EEEEC2B7v160006IJLm0EEJS9_EJEJEJS9_EEENS1_IJXspT_EEEENS_13__tuple_typesIJDpT0_EEENS1_IJXspT1_EEEENSD_IJDpT2_EEEDpOT3_', symObjAddr: 0x2D8C0, symBinAddr: 0x10002FF1C, symSize: 0x34 }
  - { offsetInCU: 0x70E10, offset: 0x70E10, size: 0x8, addend: 0x0, symName: '__ZNSt3__112__tuple_leafILm0ERKNS_9allocatorIZ21test_order_book_cacheR9TestSuiteE3$_4EELb0EEC2B7v160006IS7_vEEOT_', symObjAddr: 0x2D8F4, symBinAddr: 0x10002FF50, symSize: 0x70 }
  - { offsetInCU: 0x70E53, offset: 0x70E53, size: 0x8, addend: 0x0, symName: '__ZNSt3__117__compressed_pairIZ21test_order_book_cacheR9TestSuiteE3$_4NS_9allocatorIS3_EEEC2B7v160006IJRKS3_EJRKS5_EEENS_21piecewise_construct_tENS_5tupleIJDpT_EEENSD_IJDpT0_EEE', symObjAddr: 0x2D964, symBinAddr: 0x10002FFC0, symSize: 0x360 }
  - { offsetInCU: 0x70ECA, offset: 0x70ECA, size: 0x8, addend: 0x0, symName: '__ZNSt3__122__compressed_pair_elemINS_9allocatorIZ21test_order_book_cacheR9TestSuiteE3$_4EELi1ELb1EEC2B7v160006IJRKS5_EJLm0EEEENS_21piecewise_construct_tENS_5tupleIJDpT_EEENS_15__tuple_indicesIJXspT0_EEEE', symObjAddr: 0x2DCC4, symBinAddr: 0x100030320, symSize: 0x200 }
  - { offsetInCU: 0x70F35, offset: 0x70F35, size: 0x8, addend: 0x0, symName: '__ZNSt3__112__tuple_leafILm0ERKNS_9allocatorIZ21test_order_book_cacheR9TestSuiteE3$_4EELb0EE3getB7v160006Ev', symObjAddr: 0x2DEE8, symBinAddr: 0x100030544, symSize: 0x60 }
  - { offsetInCU: 0x70F5B, offset: 0x70F5B, size: 0x8, addend: 0x0, symName: '__ZNSt3__110__function12__alloc_funcIZ21test_order_book_cacheR9TestSuiteE3$_4NS_9allocatorIS4_EEFvvEE7destroyB7v160006Ev', symObjAddr: 0x2DF48, symBinAddr: 0x1000305A4, symSize: 0x10 }
  - { offsetInCU: 0x70F81, offset: 0x70F81, size: 0x8, addend: 0x0, symName: '__ZNSt3__110__function12__alloc_funcIZ21test_order_book_cacheR9TestSuiteE3$_4NS_9allocatorIS4_EEFvvEEclB7v160006Ev', symObjAddr: 0x2DF58, symBinAddr: 0x1000305B4, symSize: 0x28 }
  - { offsetInCU: 0x70FA7, offset: 0x70FA7, size: 0x8, addend: 0x0, symName: '__ZNSt3__128__invoke_void_return_wrapperIvLb1EE6__callIJRZ21test_order_book_cacheR9TestSuiteE3$_4EEEvDpOT_', symObjAddr: 0x2DF80, symBinAddr: 0x1000305DC, symSize: 0x24 }
  - { offsetInCU: 0x70FD6, offset: 0x70FD6, size: 0x8, addend: 0x0, symName: '__ZNSt3__117__compressed_pairIZ21test_order_book_cacheR9TestSuiteE3$_4NS_9allocatorIS3_EEE5firstB7v160006Ev', symObjAddr: 0x2DFA4, symBinAddr: 0x100030600, symSize: 0x24 }
  - { offsetInCU: 0x71002, offset: 0x71002, size: 0x8, addend: 0x0, symName: '__ZZ21test_order_book_cacheR9TestSuiteENK3$_4clEv', symObjAddr: 0x2DFEC, symBinAddr: 0x100030648, symSize: 0x4D0 }
  - { offsetInCU: 0x71068, offset: 0x71068, size: 0x8, addend: 0x0, symName: __ZN5cache14OrderBookCache16invalidate_staleEyy, symObjAddr: 0x2E4BC, symBinAddr: 0x100030B18, symSize: 0x47C }
  - { offsetInCU: 0x7113F, offset: 0x7113F, size: 0x8, addend: 0x0, symName: '__ZNSt3__122__compressed_pair_elemIZ21test_order_book_cacheR9TestSuiteE3$_4Li0ELb1EE5__getB7v160006Ev', symObjAddr: 0x2E938, symBinAddr: 0x100030F94, symSize: 0x14 }
  - { offsetInCU: 0x71165, offset: 0x71165, size: 0x8, addend: 0x0, symName: '__ZNSt3__18functionIFvvEEC2IZ22test_spread_calculatorR9TestSuiteE3$_5vEET_', symObjAddr: 0x2E94C, symBinAddr: 0x100030FA8, symSize: 0x1BC }
  - { offsetInCU: 0x711AF, offset: 0x711AF, size: 0x8, addend: 0x0, symName: '__ZNSt3__110__function12__value_funcIFvvEEC1B7v160006IZ22test_spread_calculatorR9TestSuiteE3$_5vEEOT_', symObjAddr: 0x2EB08, symBinAddr: 0x100031164, symSize: 0x1F8 }
  - { offsetInCU: 0x711F4, offset: 0x711F4, size: 0x8, addend: 0x0, symName: '__ZNSt3__19allocatorIZ22test_spread_calculatorR9TestSuiteE3$_5EC1B7v160006Ev', symObjAddr: 0x2ED00, symBinAddr: 0x10003135C, symSize: 0x2C }
  - { offsetInCU: 0x7121E, offset: 0x7121E, size: 0x8, addend: 0x0, symName: '__ZNSt3__110__function12__value_funcIFvvEEC1B7v160006IZ22test_spread_calculatorR9TestSuiteE3$_5NS_9allocatorIS7_EEEEOT_RKT0_', symObjAddr: 0x2ED2C, symBinAddr: 0x100031388, symSize: 0x3C }
  - { offsetInCU: 0x71278, offset: 0x71278, size: 0x8, addend: 0x0, symName: '__ZNSt3__19allocatorIZ22test_spread_calculatorR9TestSuiteE3$_5EC2B7v160006Ev', symObjAddr: 0x2ED68, symBinAddr: 0x1000313C4, symSize: 0x2C }
  - { offsetInCU: 0x712A2, offset: 0x712A2, size: 0x8, addend: 0x0, symName: '__ZNSt3__116__non_trivial_ifILb1ENS_9allocatorIZ22test_spread_calculatorR9TestSuiteE3$_5EEEC2B7v160006Ev', symObjAddr: 0x2ED94, symBinAddr: 0x1000313F0, symSize: 0x14 }
  - { offsetInCU: 0x712CC, offset: 0x712CC, size: 0x8, addend: 0x0, symName: '__ZNSt3__110__function12__value_funcIFvvEEC2B7v160006IZ22test_spread_calculatorR9TestSuiteE3$_5NS_9allocatorIS7_EEEEOT_RKT0_', symObjAddr: 0x2EDA8, symBinAddr: 0x100031404, symSize: 0x2D0 }
  - { offsetInCU: 0x7135A, offset: 0x7135A, size: 0x8, addend: 0x0, symName: '__ZNSt3__19allocatorINS_10__function6__funcIZ22test_spread_calculatorR9TestSuiteE3$_5NS0_IS5_EEFvvEEEEC1B7v160006IS5_EERKNS0_IT_EE', symObjAddr: 0x2F090, symBinAddr: 0x1000316EC, symSize: 0x34 }
  - { offsetInCU: 0x713A2, offset: 0x713A2, size: 0x8, addend: 0x0, symName: '__ZNSt3__19allocatorIZ22test_spread_calculatorR9TestSuiteE3$_5EC1B7v160006INS_10__function6__funcIS3_S4_FvvEEEEERKNS0_IT_EE', symObjAddr: 0x2F0C4, symBinAddr: 0x100031720, symSize: 0x34 }
  - { offsetInCU: 0x713DF, offset: 0x713DF, size: 0x8, addend: 0x0, symName: '__ZNSt3__110__function6__funcIZ22test_spread_calculatorR9TestSuiteE3$_5NS_9allocatorIS4_EEFvvEEC1B7v160006EOS4_OS6_', symObjAddr: 0x2F0F8, symBinAddr: 0x100031754, symSize: 0x3C }
  - { offsetInCU: 0x71427, offset: 0x71427, size: 0x8, addend: 0x0, symName: '__ZNSt3__19allocatorINS_10__function6__funcIZ22test_spread_calculatorR9TestSuiteE3$_5NS0_IS5_EEFvvEEEEC2B7v160006IS5_EERKNS0_IT_EE', symObjAddr: 0x2F134, symBinAddr: 0x100031790, symSize: 0x30 }
  - { offsetInCU: 0x71464, offset: 0x71464, size: 0x8, addend: 0x0, symName: '__ZNSt3__116__non_trivial_ifILb1ENS_9allocatorINS_10__function6__funcIZ22test_spread_calculatorR9TestSuiteE3$_5NS1_IS6_EEFvvEEEEEEC2B7v160006Ev', symObjAddr: 0x2F164, symBinAddr: 0x1000317C0, symSize: 0x14 }
  - { offsetInCU: 0x7148E, offset: 0x7148E, size: 0x8, addend: 0x0, symName: '__ZNSt3__19allocatorIZ22test_spread_calculatorR9TestSuiteE3$_5EC2B7v160006INS_10__function6__funcIS3_S4_FvvEEEEERKNS0_IT_EE', symObjAddr: 0x2F178, symBinAddr: 0x1000317D4, symSize: 0x30 }
  - { offsetInCU: 0x714CB, offset: 0x714CB, size: 0x8, addend: 0x0, symName: '__ZNSt3__110__function6__funcIZ22test_spread_calculatorR9TestSuiteE3$_5NS_9allocatorIS4_EEFvvEEC2B7v160006EOS4_OS6_', symObjAddr: 0x2F1A8, symBinAddr: 0x100031804, symSize: 0xC8 }
  - { offsetInCU: 0x71513, offset: 0x71513, size: 0x8, addend: 0x0, symName: '__ZNSt3__110__function12__alloc_funcIZ22test_spread_calculatorR9TestSuiteE3$_5NS_9allocatorIS4_EEFvvEEC1B7v160006EOS4_OS6_', symObjAddr: 0x2F270, symBinAddr: 0x1000318CC, symSize: 0x3C }
  - { offsetInCU: 0x7155B, offset: 0x7155B, size: 0x8, addend: 0x0, symName: '__ZNSt3__110__function6__funcIZ22test_spread_calculatorR9TestSuiteE3$_5NS_9allocatorIS4_EEFvvEED1Ev', symObjAddr: 0x2F2AC, symBinAddr: 0x100031908, symSize: 0x2C }
  - { offsetInCU: 0x71588, offset: 0x71588, size: 0x8, addend: 0x0, symName: '__ZNSt3__110__function6__funcIZ22test_spread_calculatorR9TestSuiteE3$_5NS_9allocatorIS4_EEFvvEED0Ev', symObjAddr: 0x2F2D8, symBinAddr: 0x100031934, symSize: 0x30 }
  - { offsetInCU: 0x715B5, offset: 0x715B5, size: 0x8, addend: 0x0, symName: '__ZNKSt3__110__function6__funcIZ22test_spread_calculatorR9TestSuiteE3$_5NS_9allocatorIS4_EEFvvEE7__cloneEv', symObjAddr: 0x2F308, symBinAddr: 0x100031964, symSize: 0x448 }
  - { offsetInCU: 0x71610, offset: 0x71610, size: 0x8, addend: 0x0, symName: '__ZNKSt3__110__function6__funcIZ22test_spread_calculatorR9TestSuiteE3$_5NS_9allocatorIS4_EEFvvEE7__cloneEPNS0_6__baseIS7_EE', symObjAddr: 0x2F750, symBinAddr: 0x100031DAC, symSize: 0x58 }
  - { offsetInCU: 0x71647, offset: 0x71647, size: 0x8, addend: 0x0, symName: '__ZNSt3__110__function6__funcIZ22test_spread_calculatorR9TestSuiteE3$_5NS_9allocatorIS4_EEFvvEE7destroyEv', symObjAddr: 0x2F7A8, symBinAddr: 0x100031E04, symSize: 0x28 }
  - { offsetInCU: 0x7166F, offset: 0x7166F, size: 0x8, addend: 0x0, symName: '__ZNSt3__110__function6__funcIZ22test_spread_calculatorR9TestSuiteE3$_5NS_9allocatorIS4_EEFvvEE18destroy_deallocateEv', symObjAddr: 0x2F7D0, symBinAddr: 0x100031E2C, symSize: 0x204 }
  - { offsetInCU: 0x716B7, offset: 0x716B7, size: 0x8, addend: 0x0, symName: '__ZNSt3__110__function6__funcIZ22test_spread_calculatorR9TestSuiteE3$_5NS_9allocatorIS4_EEFvvEEclEv', symObjAddr: 0x2F9D4, symBinAddr: 0x100032030, symSize: 0x28 }
  - { offsetInCU: 0x716DF, offset: 0x716DF, size: 0x8, addend: 0x0, symName: '__ZNKSt3__110__function6__funcIZ22test_spread_calculatorR9TestSuiteE3$_5NS_9allocatorIS4_EEFvvEE6targetERKSt9type_info', symObjAddr: 0x2F9FC, symBinAddr: 0x100032058, symSize: 0x60 }
  - { offsetInCU: 0x71716, offset: 0x71716, size: 0x8, addend: 0x0, symName: '__ZNKSt3__110__function6__funcIZ22test_spread_calculatorR9TestSuiteE3$_5NS_9allocatorIS4_EEFvvEE11target_typeEv', symObjAddr: 0x2FA5C, symBinAddr: 0x1000320B8, symSize: 0x18 }
  - { offsetInCU: 0x7173E, offset: 0x7173E, size: 0x8, addend: 0x0, symName: '__ZNSt3__110__function12__alloc_funcIZ22test_spread_calculatorR9TestSuiteE3$_5NS_9allocatorIS4_EEFvvEEC2B7v160006EOS4_OS6_', symObjAddr: 0x2FA74, symBinAddr: 0x1000320D0, symSize: 0x314 }
  - { offsetInCU: 0x71789, offset: 0x71789, size: 0x8, addend: 0x0, symName: '__ZNSt3__117__compressed_pairIZ22test_spread_calculatorR9TestSuiteE3$_5NS_9allocatorIS3_EEEC1B7v160006IJOS3_EJOS5_EEENS_21piecewise_construct_tENS_5tupleIJDpT_EEENSB_IJDpT0_EEE', symObjAddr: 0x30178, symBinAddr: 0x1000327D4, symSize: 0x2FC }
  - { offsetInCU: 0x71800, offset: 0x71800, size: 0x8, addend: 0x0, symName: '__ZNSt3__15tupleIJOZ22test_spread_calculatorR9TestSuiteE3$_5EEC1B7v160006IJS3_ELi0EEEDpOT_', symObjAddr: 0x30474, symBinAddr: 0x100032AD0, symSize: 0x34 }
  - { offsetInCU: 0x7184A, offset: 0x7184A, size: 0x8, addend: 0x0, symName: '__ZNSt3__15tupleIJOZ22test_spread_calculatorR9TestSuiteE3$_5EEC2B7v160006IJS3_ELi0EEEDpOT_', symObjAddr: 0x304A8, symBinAddr: 0x100032B04, symSize: 0x34 }
  - { offsetInCU: 0x71894, offset: 0x71894, size: 0x8, addend: 0x0, symName: '__ZNSt3__112__tuple_implINS_15__tuple_indicesIJLm0EEEEJOZ22test_spread_calculatorR9TestSuiteE3$_5EEC1B7v160006IJLm0EEJS6_EJEJEJS5_EEENS1_IJXspT_EEEENS_13__tuple_typesIJDpT0_EEENS1_IJXspT1_EEEENSA_IJDpT2_EEEDpOT3_', symObjAddr: 0x304DC, symBinAddr: 0x100032B38, symSize: 0x34 }
  - { offsetInCU: 0x71929, offset: 0x71929, size: 0x8, addend: 0x0, symName: '__ZNSt3__112__tuple_implINS_15__tuple_indicesIJLm0EEEEJOZ22test_spread_calculatorR9TestSuiteE3$_5EEC2B7v160006IJLm0EEJS6_EJEJEJS5_EEENS1_IJXspT_EEEENS_13__tuple_typesIJDpT0_EEENS1_IJXspT1_EEEENSA_IJDpT2_EEEDpOT3_', symObjAddr: 0x30510, symBinAddr: 0x100032B6C, symSize: 0x34 }
  - { offsetInCU: 0x719BE, offset: 0x719BE, size: 0x8, addend: 0x0, symName: '__ZNSt3__112__tuple_leafILm0EOZ22test_spread_calculatorR9TestSuiteE3$_5Lb0EEC2B7v160006IS3_vEEOT_', symObjAddr: 0x30544, symBinAddr: 0x100032BA0, symSize: 0x70 }
  - { offsetInCU: 0x71A01, offset: 0x71A01, size: 0x8, addend: 0x0, symName: '__ZNSt3__15tupleIJONS_9allocatorIZ22test_spread_calculatorR9TestSuiteE3$_5EEEEC1B7v160006IJS5_ELi0EEEDpOT_', symObjAddr: 0x305B4, symBinAddr: 0x100032C10, symSize: 0x34 }
  - { offsetInCU: 0x71A4B, offset: 0x71A4B, size: 0x8, addend: 0x0, symName: '__ZNSt3__15tupleIJONS_9allocatorIZ22test_spread_calculatorR9TestSuiteE3$_5EEEEC2B7v160006IJS5_ELi0EEEDpOT_', symObjAddr: 0x305E8, symBinAddr: 0x100032C44, symSize: 0x34 }
  - { offsetInCU: 0x71A95, offset: 0x71A95, size: 0x8, addend: 0x0, symName: '__ZNSt3__112__tuple_implINS_15__tuple_indicesIJLm0EEEEJONS_9allocatorIZ22test_spread_calculatorR9TestSuiteE3$_5EEEEC1B7v160006IJLm0EEJS8_EJEJEJS7_EEENS1_IJXspT_EEEENS_13__tuple_typesIJDpT0_EEENS1_IJXspT1_EEEENSC_IJDpT2_EEEDpOT3_', symObjAddr: 0x3061C, symBinAddr: 0x100032C78, symSize: 0x34 }
  - { offsetInCU: 0x71B2A, offset: 0x71B2A, size: 0x8, addend: 0x0, symName: '__ZNSt3__112__tuple_implINS_15__tuple_indicesIJLm0EEEEJONS_9allocatorIZ22test_spread_calculatorR9TestSuiteE3$_5EEEEC2B7v160006IJLm0EEJS8_EJEJEJS7_EEENS1_IJXspT_EEEENS_13__tuple_typesIJDpT0_EEENS1_IJXspT1_EEEENSC_IJDpT2_EEEDpOT3_', symObjAddr: 0x30650, symBinAddr: 0x100032CAC, symSize: 0x34 }
  - { offsetInCU: 0x71BBF, offset: 0x71BBF, size: 0x8, addend: 0x0, symName: '__ZNSt3__112__tuple_leafILm0EONS_9allocatorIZ22test_spread_calculatorR9TestSuiteE3$_5EELb0EEC2B7v160006IS5_vEEOT_', symObjAddr: 0x30684, symBinAddr: 0x100032CE0, symSize: 0x70 }
  - { offsetInCU: 0x71C02, offset: 0x71C02, size: 0x8, addend: 0x0, symName: '__ZNSt3__117__compressed_pairIZ22test_spread_calculatorR9TestSuiteE3$_5NS_9allocatorIS3_EEEC2B7v160006IJOS3_EJOS5_EEENS_21piecewise_construct_tENS_5tupleIJDpT_EEENSB_IJDpT0_EEE', symObjAddr: 0x306F4, symBinAddr: 0x100032D50, symSize: 0x360 }
  - { offsetInCU: 0x71C79, offset: 0x71C79, size: 0x8, addend: 0x0, symName: '__ZNSt3__122__compressed_pair_elemIZ22test_spread_calculatorR9TestSuiteE3$_5Li0ELb1EEC2B7v160006IJOS3_EJLm0EEEENS_21piecewise_construct_tENS_5tupleIJDpT_EEENS_15__tuple_indicesIJXspT0_EEEE', symObjAddr: 0x30A54, symBinAddr: 0x1000330B0, symSize: 0x200 }
  - { offsetInCU: 0x71CE4, offset: 0x71CE4, size: 0x8, addend: 0x0, symName: '__ZNSt3__122__compressed_pair_elemINS_9allocatorIZ22test_spread_calculatorR9TestSuiteE3$_5EELi1ELb1EEC2B7v160006IJOS5_EJLm0EEEENS_21piecewise_construct_tENS_5tupleIJDpT_EEENS_15__tuple_indicesIJXspT0_EEEE', symObjAddr: 0x30C54, symBinAddr: 0x1000332B0, symSize: 0x200 }
  - { offsetInCU: 0x71D4F, offset: 0x71D4F, size: 0x8, addend: 0x0, symName: '__ZNSt3__112__tuple_leafILm0EOZ22test_spread_calculatorR9TestSuiteE3$_5Lb0EE3getB7v160006Ev', symObjAddr: 0x30E78, symBinAddr: 0x1000334D4, symSize: 0x60 }
  - { offsetInCU: 0x71D75, offset: 0x71D75, size: 0x8, addend: 0x0, symName: '__ZNSt3__112__tuple_leafILm0EONS_9allocatorIZ22test_spread_calculatorR9TestSuiteE3$_5EELb0EE3getB7v160006Ev', symObjAddr: 0x30EFC, symBinAddr: 0x100033558, symSize: 0x60 }
  - { offsetInCU: 0x71D9B, offset: 0x71D9B, size: 0x8, addend: 0x0, symName: '__ZNSt3__110__function6__funcIZ22test_spread_calculatorR9TestSuiteE3$_5NS_9allocatorIS4_EEFvvEED2Ev', symObjAddr: 0x30F5C, symBinAddr: 0x1000335B8, symSize: 0x2C }
  - { offsetInCU: 0x71DC8, offset: 0x71DC8, size: 0x8, addend: 0x0, symName: '__ZNKSt3__110__function12__alloc_funcIZ22test_spread_calculatorR9TestSuiteE3$_5NS_9allocatorIS4_EEFvvEE15__get_allocatorB7v160006Ev', symObjAddr: 0x30F88, symBinAddr: 0x1000335E4, symSize: 0x24 }
  - { offsetInCU: 0x71DEE, offset: 0x71DEE, size: 0x8, addend: 0x0, symName: '__ZNSt3__19allocatorINS_10__function6__funcIZ22test_spread_calculatorR9TestSuiteE3$_5NS0_IS5_EEFvvEEEE8allocateB7v160006Em', symObjAddr: 0x30FAC, symBinAddr: 0x100033608, symSize: 0x5C }
  - { offsetInCU: 0x71E35, offset: 0x71E35, size: 0x8, addend: 0x0, symName: '__ZNSt3__122__allocator_destructorINS_9allocatorINS_10__function6__funcIZ22test_spread_calculatorR9TestSuiteE3$_5NS1_IS6_EEFvvEEEEEEC1B7v160006ERSA_m', symObjAddr: 0x31008, symBinAddr: 0x100033664, symSize: 0x3C }
  - { offsetInCU: 0x71F24, offset: 0x71F24, size: 0x8, addend: 0x0, symName: '__ZNSt3__110unique_ptrINS_10__function6__funcIZ22test_spread_calculatorR9TestSuiteE3$_5NS_9allocatorIS5_EEFvvEEENS_22__allocator_destructorINS6_IS9_EEEEEC1B7v160006ILb1EvEEPS9_NS_16__dependent_typeINS_27__unique_ptr_deleter_sfinaeISC_EEXT_EE20__good_rval_ref_typeE', symObjAddr: 0x31044, symBinAddr: 0x1000336A0, symSize: 0x3C }
  - { offsetInCU: 0x71F77, offset: 0x71F77, size: 0x8, addend: 0x0, symName: '__ZNKSt3__110unique_ptrINS_10__function6__funcIZ22test_spread_calculatorR9TestSuiteE3$_5NS_9allocatorIS5_EEFvvEEENS_22__allocator_destructorINS6_IS9_EEEEE3getB7v160006Ev', symObjAddr: 0x31080, symBinAddr: 0x1000336DC, symSize: 0x6C }
  - { offsetInCU: 0x71F9D, offset: 0x71F9D, size: 0x8, addend: 0x0, symName: '__ZNKSt3__110__function12__alloc_funcIZ22test_spread_calculatorR9TestSuiteE3$_5NS_9allocatorIS4_EEFvvEE8__targetB7v160006Ev', symObjAddr: 0x310EC, symBinAddr: 0x100033748, symSize: 0x24 }
  - { offsetInCU: 0x71FC3, offset: 0x71FC3, size: 0x8, addend: 0x0, symName: '__ZNSt3__110__function6__funcIZ22test_spread_calculatorR9TestSuiteE3$_5NS_9allocatorIS4_EEFvvEEC1B7v160006ERKS4_OS6_', symObjAddr: 0x31110, symBinAddr: 0x10003376C, symSize: 0x3C }
  - { offsetInCU: 0x7200B, offset: 0x7200B, size: 0x8, addend: 0x0, symName: '__ZNSt3__110unique_ptrINS_10__function6__funcIZ22test_spread_calculatorR9TestSuiteE3$_5NS_9allocatorIS5_EEFvvEEENS_22__allocator_destructorINS6_IS9_EEEEE7releaseB7v160006Ev', symObjAddr: 0x3114C, symBinAddr: 0x1000337A8, symSize: 0xB8 }
  - { offsetInCU: 0x72040, offset: 0x72040, size: 0x8, addend: 0x0, symName: '__ZNSt3__110unique_ptrINS_10__function6__funcIZ22test_spread_calculatorR9TestSuiteE3$_5NS_9allocatorIS5_EEFvvEEENS_22__allocator_destructorINS6_IS9_EEEEED1B7v160006Ev', symObjAddr: 0x31204, symBinAddr: 0x100033860, symSize: 0x2C }
  - { offsetInCU: 0x7206A, offset: 0x7206A, size: 0x8, addend: 0x0, symName: '__ZNKSt3__117__compressed_pairIZ22test_spread_calculatorR9TestSuiteE3$_5NS_9allocatorIS3_EEE6secondB7v160006Ev', symObjAddr: 0x31230, symBinAddr: 0x10003388C, symSize: 0x24 }
  - { offsetInCU: 0x72090, offset: 0x72090, size: 0x8, addend: 0x0, symName: '__ZNKSt3__122__compressed_pair_elemINS_9allocatorIZ22test_spread_calculatorR9TestSuiteE3$_5EELi1ELb1EE5__getB7v160006Ev', symObjAddr: 0x31254, symBinAddr: 0x1000338B0, symSize: 0x14 }
  - { offsetInCU: 0x720C1, offset: 0x720C1, size: 0x8, addend: 0x0, symName: '__ZNSt3__116allocator_traitsINS_9allocatorINS_10__function6__funcIZ22test_spread_calculatorR9TestSuiteE3$_5NS1_IS6_EEFvvEEEEEE8max_sizeB7v160006ISA_vvEEmRKSA_', symObjAddr: 0x31268, symBinAddr: 0x1000338C4, symSize: 0x28 }
  - { offsetInCU: 0x720ED, offset: 0x720ED, size: 0x8, addend: 0x0, symName: '__ZNSt3__122__allocator_destructorINS_9allocatorINS_10__function6__funcIZ22test_spread_calculatorR9TestSuiteE3$_5NS1_IS6_EEFvvEEEEEEC2B7v160006ERSA_m', symObjAddr: 0x31290, symBinAddr: 0x1000338EC, symSize: 0xBC }
  - { offsetInCU: 0x72135, offset: 0x72135, size: 0x8, addend: 0x0, symName: '__ZNSt3__110unique_ptrINS_10__function6__funcIZ22test_spread_calculatorR9TestSuiteE3$_5NS_9allocatorIS5_EEFvvEEENS_22__allocator_destructorINS6_IS9_EEEEEC2B7v160006ILb1EvEEPS9_NS_16__dependent_typeINS_27__unique_ptr_deleter_sfinaeISC_EEXT_EE20__good_rval_ref_typeE', symObjAddr: 0x3134C, symBinAddr: 0x1000339A8, symSize: 0x21C }
  - { offsetInCU: 0x7218E, offset: 0x7218E, size: 0x8, addend: 0x0, symName: '__ZNSt3__117__compressed_pairIPNS_10__function6__funcIZ22test_spread_calculatorR9TestSuiteE3$_5NS_9allocatorIS5_EEFvvEEENS_22__allocator_destructorINS6_IS9_EEEEEC1B7v160006IRSA_SD_EEOT_OT0_', symObjAddr: 0x31568, symBinAddr: 0x100033BC4, symSize: 0x3C }
  - { offsetInCU: 0x721E8, offset: 0x721E8, size: 0x8, addend: 0x0, symName: '__ZNSt3__117__compressed_pairIPNS_10__function6__funcIZ22test_spread_calculatorR9TestSuiteE3$_5NS_9allocatorIS5_EEFvvEEENS_22__allocator_destructorINS6_IS9_EEEEEC2B7v160006IRSA_SD_EEOT_OT0_', symObjAddr: 0x315A4, symBinAddr: 0x100033C00, symSize: 0x48 }
  - { offsetInCU: 0x72242, offset: 0x72242, size: 0x8, addend: 0x0, symName: '__ZNSt3__122__compressed_pair_elemIPNS_10__function6__funcIZ22test_spread_calculatorR9TestSuiteE3$_5NS_9allocatorIS5_EEFvvEEELi0ELb0EEC2B7v160006IRSA_vEEOT_', symObjAddr: 0x315EC, symBinAddr: 0x100033C48, symSize: 0xB0 }
  - { offsetInCU: 0x72285, offset: 0x72285, size: 0x8, addend: 0x0, symName: '__ZNSt3__122__compressed_pair_elemINS_22__allocator_destructorINS_9allocatorINS_10__function6__funcIZ22test_spread_calculatorR9TestSuiteE3$_5NS2_IS7_EEFvvEEEEEEELi1ELb0EEC2B7v160006ISC_vEEOT_', symObjAddr: 0x3169C, symBinAddr: 0x100033CF8, symSize: 0x38 }
  - { offsetInCU: 0x722C8, offset: 0x722C8, size: 0x8, addend: 0x0, symName: '__ZNKSt3__117__compressed_pairIPNS_10__function6__funcIZ22test_spread_calculatorR9TestSuiteE3$_5NS_9allocatorIS5_EEFvvEEENS_22__allocator_destructorINS6_IS9_EEEEE5firstB7v160006Ev', symObjAddr: 0x316D4, symBinAddr: 0x100033D30, symSize: 0x24 }
  - { offsetInCU: 0x722EE, offset: 0x722EE, size: 0x8, addend: 0x0, symName: '__ZNKSt3__122__compressed_pair_elemIPNS_10__function6__funcIZ22test_spread_calculatorR9TestSuiteE3$_5NS_9allocatorIS5_EEFvvEEELi0ELb0EE5__getB7v160006Ev', symObjAddr: 0x316F8, symBinAddr: 0x100033D54, symSize: 0x14 }
  - { offsetInCU: 0x72314, offset: 0x72314, size: 0x8, addend: 0x0, symName: '__ZNKSt3__117__compressed_pairIZ22test_spread_calculatorR9TestSuiteE3$_5NS_9allocatorIS3_EEE5firstB7v160006Ev', symObjAddr: 0x3170C, symBinAddr: 0x100033D68, symSize: 0x24 }
  - { offsetInCU: 0x7233A, offset: 0x7233A, size: 0x8, addend: 0x0, symName: '__ZNKSt3__122__compressed_pair_elemIZ22test_spread_calculatorR9TestSuiteE3$_5Li0ELb1EE5__getB7v160006Ev', symObjAddr: 0x31730, symBinAddr: 0x100033D8C, symSize: 0x14 }
  - { offsetInCU: 0x72360, offset: 0x72360, size: 0x8, addend: 0x0, symName: '__ZNSt3__110__function6__funcIZ22test_spread_calculatorR9TestSuiteE3$_5NS_9allocatorIS4_EEFvvEEC2B7v160006ERKS4_OS6_', symObjAddr: 0x31744, symBinAddr: 0x100033DA0, symSize: 0xC8 }
  - { offsetInCU: 0x723A8, offset: 0x723A8, size: 0x8, addend: 0x0, symName: '__ZNSt3__110__function12__alloc_funcIZ22test_spread_calculatorR9TestSuiteE3$_5NS_9allocatorIS4_EEFvvEEC1B7v160006ERKS4_OS6_', symObjAddr: 0x3180C, symBinAddr: 0x100033E68, symSize: 0x3C }
  - { offsetInCU: 0x723F0, offset: 0x723F0, size: 0x8, addend: 0x0, symName: '__ZNSt3__110__function12__alloc_funcIZ22test_spread_calculatorR9TestSuiteE3$_5NS_9allocatorIS4_EEFvvEEC2B7v160006ERKS4_OS6_', symObjAddr: 0x31848, symBinAddr: 0x100033EA4, symSize: 0x314 }
  - { offsetInCU: 0x7243B, offset: 0x7243B, size: 0x8, addend: 0x0, symName: '__ZNSt3__117__compressed_pairIZ22test_spread_calculatorR9TestSuiteE3$_5NS_9allocatorIS3_EEEC1B7v160006IJRKS3_EJOS5_EEENS_21piecewise_construct_tENS_5tupleIJDpT_EEENSC_IJDpT0_EEE', symObjAddr: 0x31D54, symBinAddr: 0x1000343B0, symSize: 0x2FC }
  - { offsetInCU: 0x724B2, offset: 0x724B2, size: 0x8, addend: 0x0, symName: '__ZNSt3__15tupleIJRKZ22test_spread_calculatorR9TestSuiteE3$_5EEC1B7v160006INS_4_AndELi0EEES5_', symObjAddr: 0x32050, symBinAddr: 0x1000346AC, symSize: 0x34 }
  - { offsetInCU: 0x724FA, offset: 0x724FA, size: 0x8, addend: 0x0, symName: '__ZNSt3__15tupleIJRKZ22test_spread_calculatorR9TestSuiteE3$_5EEC2B7v160006INS_4_AndELi0EEES5_', symObjAddr: 0x32084, symBinAddr: 0x1000346E0, symSize: 0x34 }
  - { offsetInCU: 0x72542, offset: 0x72542, size: 0x8, addend: 0x0, symName: '__ZNSt3__112__tuple_implINS_15__tuple_indicesIJLm0EEEEJRKZ22test_spread_calculatorR9TestSuiteE3$_5EEC1B7v160006IJLm0EEJS7_EJEJEJS7_EEENS1_IJXspT_EEEENS_13__tuple_typesIJDpT0_EEENS1_IJXspT1_EEEENSB_IJDpT2_EEEDpOT3_', symObjAddr: 0x320B8, symBinAddr: 0x100034714, symSize: 0x34 }
  - { offsetInCU: 0x725D7, offset: 0x725D7, size: 0x8, addend: 0x0, symName: '__ZNSt3__112__tuple_implINS_15__tuple_indicesIJLm0EEEEJRKZ22test_spread_calculatorR9TestSuiteE3$_5EEC2B7v160006IJLm0EEJS7_EJEJEJS7_EEENS1_IJXspT_EEEENS_13__tuple_typesIJDpT0_EEENS1_IJXspT1_EEEENSB_IJDpT2_EEEDpOT3_', symObjAddr: 0x320EC, symBinAddr: 0x100034748, symSize: 0x34 }
  - { offsetInCU: 0x7266C, offset: 0x7266C, size: 0x8, addend: 0x0, symName: '__ZNSt3__112__tuple_leafILm0ERKZ22test_spread_calculatorR9TestSuiteE3$_5Lb0EEC2B7v160006IS5_vEEOT_', symObjAddr: 0x32120, symBinAddr: 0x10003477C, symSize: 0x70 }
  - { offsetInCU: 0x726AF, offset: 0x726AF, size: 0x8, addend: 0x0, symName: '__ZNSt3__117__compressed_pairIZ22test_spread_calculatorR9TestSuiteE3$_5NS_9allocatorIS3_EEEC2B7v160006IJRKS3_EJOS5_EEENS_21piecewise_construct_tENS_5tupleIJDpT_EEENSC_IJDpT0_EEE', symObjAddr: 0x32190, symBinAddr: 0x1000347EC, symSize: 0x360 }
  - { offsetInCU: 0x72726, offset: 0x72726, size: 0x8, addend: 0x0, symName: '__ZNSt3__122__compressed_pair_elemIZ22test_spread_calculatorR9TestSuiteE3$_5Li0ELb1EEC2B7v160006IJRKS3_EJLm0EEEENS_21piecewise_construct_tENS_5tupleIJDpT_EEENS_15__tuple_indicesIJXspT0_EEEE', symObjAddr: 0x324F0, symBinAddr: 0x100034B4C, symSize: 0x200 }
  - { offsetInCU: 0x72791, offset: 0x72791, size: 0x8, addend: 0x0, symName: '__ZNSt3__112__tuple_leafILm0ERKZ22test_spread_calculatorR9TestSuiteE3$_5Lb0EE3getB7v160006Ev', symObjAddr: 0x32714, symBinAddr: 0x100034D70, symSize: 0x60 }
  - { offsetInCU: 0x727B7, offset: 0x727B7, size: 0x8, addend: 0x0, symName: '__ZNSt3__117__compressed_pairIPNS_10__function6__funcIZ22test_spread_calculatorR9TestSuiteE3$_5NS_9allocatorIS5_EEFvvEEENS_22__allocator_destructorINS6_IS9_EEEEE5firstB7v160006Ev', symObjAddr: 0x32774, symBinAddr: 0x100034DD0, symSize: 0x24 }
  - { offsetInCU: 0x727DD, offset: 0x727DD, size: 0x8, addend: 0x0, symName: '__ZNSt3__122__compressed_pair_elemIPNS_10__function6__funcIZ22test_spread_calculatorR9TestSuiteE3$_5NS_9allocatorIS5_EEFvvEEELi0ELb0EE5__getB7v160006Ev', symObjAddr: 0x32798, symBinAddr: 0x100034DF4, symSize: 0x14 }
  - { offsetInCU: 0x72803, offset: 0x72803, size: 0x8, addend: 0x0, symName: '__ZNSt3__110unique_ptrINS_10__function6__funcIZ22test_spread_calculatorR9TestSuiteE3$_5NS_9allocatorIS5_EEFvvEEENS_22__allocator_destructorINS6_IS9_EEEEED2B7v160006Ev', symObjAddr: 0x327AC, symBinAddr: 0x100034E08, symSize: 0x30 }
  - { offsetInCU: 0x7282D, offset: 0x7282D, size: 0x8, addend: 0x0, symName: '__ZNSt3__110unique_ptrINS_10__function6__funcIZ22test_spread_calculatorR9TestSuiteE3$_5NS_9allocatorIS5_EEFvvEEENS_22__allocator_destructorINS6_IS9_EEEEE5resetB7v160006EPS9_', symObjAddr: 0x327DC, symBinAddr: 0x100034E38, symSize: 0xEC }
  - { offsetInCU: 0x72871, offset: 0x72871, size: 0x8, addend: 0x0, symName: '__ZNSt3__117__compressed_pairIPNS_10__function6__funcIZ22test_spread_calculatorR9TestSuiteE3$_5NS_9allocatorIS5_EEFvvEEENS_22__allocator_destructorINS6_IS9_EEEEE6secondB7v160006Ev', symObjAddr: 0x328C8, symBinAddr: 0x100034F24, symSize: 0x28 }
  - { offsetInCU: 0x72897, offset: 0x72897, size: 0x8, addend: 0x0, symName: '__ZNSt3__122__allocator_destructorINS_9allocatorINS_10__function6__funcIZ22test_spread_calculatorR9TestSuiteE3$_5NS1_IS6_EEFvvEEEEEEclB7v160006EPS9_', symObjAddr: 0x328F0, symBinAddr: 0x100034F4C, symSize: 0xB8 }
  - { offsetInCU: 0x728CC, offset: 0x728CC, size: 0x8, addend: 0x0, symName: '__ZNSt3__122__compressed_pair_elemINS_22__allocator_destructorINS_9allocatorINS_10__function6__funcIZ22test_spread_calculatorR9TestSuiteE3$_5NS2_IS7_EEFvvEEEEEEELi1ELb0EE5__getB7v160006Ev', symObjAddr: 0x329A8, symBinAddr: 0x100035004, symSize: 0x14 }
  - { offsetInCU: 0x728F2, offset: 0x728F2, size: 0x8, addend: 0x0, symName: '__ZNSt3__116allocator_traitsINS_9allocatorINS_10__function6__funcIZ22test_spread_calculatorR9TestSuiteE3$_5NS1_IS6_EEFvvEEEEEE10deallocateB7v160006ERSA_PS9_m', symObjAddr: 0x329BC, symBinAddr: 0x100035018, symSize: 0x34 }
  - { offsetInCU: 0x72934, offset: 0x72934, size: 0x8, addend: 0x0, symName: '__ZNSt3__19allocatorINS_10__function6__funcIZ22test_spread_calculatorR9TestSuiteE3$_5NS0_IS5_EEFvvEEEE10deallocateB7v160006EPS8_m', symObjAddr: 0x329F0, symBinAddr: 0x10003504C, symSize: 0x4C }
  - { offsetInCU: 0x72978, offset: 0x72978, size: 0x8, addend: 0x0, symName: '__ZNSt3__110__function6__funcIZ22test_spread_calculatorR9TestSuiteE3$_5NS_9allocatorIS4_EEFvvEEC1B7v160006ERKS4_RKS6_', symObjAddr: 0x32A3C, symBinAddr: 0x100035098, symSize: 0x3C }
  - { offsetInCU: 0x729C0, offset: 0x729C0, size: 0x8, addend: 0x0, symName: '__ZNSt3__110__function6__funcIZ22test_spread_calculatorR9TestSuiteE3$_5NS_9allocatorIS4_EEFvvEEC2B7v160006ERKS4_RKS6_', symObjAddr: 0x32A78, symBinAddr: 0x1000350D4, symSize: 0xC8 }
  - { offsetInCU: 0x72A08, offset: 0x72A08, size: 0x8, addend: 0x0, symName: '__ZNSt3__110__function12__alloc_funcIZ22test_spread_calculatorR9TestSuiteE3$_5NS_9allocatorIS4_EEFvvEEC1B7v160006ERKS4_RKS6_', symObjAddr: 0x32B40, symBinAddr: 0x10003519C, symSize: 0x3C }
  - { offsetInCU: 0x72A50, offset: 0x72A50, size: 0x8, addend: 0x0, symName: '__ZNSt3__110__function12__alloc_funcIZ22test_spread_calculatorR9TestSuiteE3$_5NS_9allocatorIS4_EEFvvEEC2B7v160006ERKS4_RKS6_', symObjAddr: 0x32B7C, symBinAddr: 0x1000351D8, symSize: 0x314 }
  - { offsetInCU: 0x72A9B, offset: 0x72A9B, size: 0x8, addend: 0x0, symName: '__ZNSt3__117__compressed_pairIZ22test_spread_calculatorR9TestSuiteE3$_5NS_9allocatorIS3_EEEC1B7v160006IJRKS3_EJRKS5_EEENS_21piecewise_construct_tENS_5tupleIJDpT_EEENSD_IJDpT0_EEE', symObjAddr: 0x33088, symBinAddr: 0x1000356E4, symSize: 0x2FC }
  - { offsetInCU: 0x72B12, offset: 0x72B12, size: 0x8, addend: 0x0, symName: '__ZNSt3__15tupleIJRKNS_9allocatorIZ22test_spread_calculatorR9TestSuiteE3$_5EEEEC1B7v160006INS_4_AndELi0EEES7_', symObjAddr: 0x33384, symBinAddr: 0x1000359E0, symSize: 0x34 }
  - { offsetInCU: 0x72B5A, offset: 0x72B5A, size: 0x8, addend: 0x0, symName: '__ZNSt3__15tupleIJRKNS_9allocatorIZ22test_spread_calculatorR9TestSuiteE3$_5EEEEC2B7v160006INS_4_AndELi0EEES7_', symObjAddr: 0x333B8, symBinAddr: 0x100035A14, symSize: 0x34 }
  - { offsetInCU: 0x72BA2, offset: 0x72BA2, size: 0x8, addend: 0x0, symName: '__ZNSt3__112__tuple_implINS_15__tuple_indicesIJLm0EEEEJRKNS_9allocatorIZ22test_spread_calculatorR9TestSuiteE3$_5EEEEC1B7v160006IJLm0EEJS9_EJEJEJS9_EEENS1_IJXspT_EEEENS_13__tuple_typesIJDpT0_EEENS1_IJXspT1_EEEENSD_IJDpT2_EEEDpOT3_', symObjAddr: 0x333EC, symBinAddr: 0x100035A48, symSize: 0x34 }
  - { offsetInCU: 0x72C37, offset: 0x72C37, size: 0x8, addend: 0x0, symName: '__ZNSt3__112__tuple_implINS_15__tuple_indicesIJLm0EEEEJRKNS_9allocatorIZ22test_spread_calculatorR9TestSuiteE3$_5EEEEC2B7v160006IJLm0EEJS9_EJEJEJS9_EEENS1_IJXspT_EEEENS_13__tuple_typesIJDpT0_EEENS1_IJXspT1_EEEENSD_IJDpT2_EEEDpOT3_', symObjAddr: 0x33420, symBinAddr: 0x100035A7C, symSize: 0x34 }
  - { offsetInCU: 0x72CCC, offset: 0x72CCC, size: 0x8, addend: 0x0, symName: '__ZNSt3__112__tuple_leafILm0ERKNS_9allocatorIZ22test_spread_calculatorR9TestSuiteE3$_5EELb0EEC2B7v160006IS7_vEEOT_', symObjAddr: 0x33454, symBinAddr: 0x100035AB0, symSize: 0x70 }
  - { offsetInCU: 0x72D0F, offset: 0x72D0F, size: 0x8, addend: 0x0, symName: '__ZNSt3__117__compressed_pairIZ22test_spread_calculatorR9TestSuiteE3$_5NS_9allocatorIS3_EEEC2B7v160006IJRKS3_EJRKS5_EEENS_21piecewise_construct_tENS_5tupleIJDpT_EEENSD_IJDpT0_EEE', symObjAddr: 0x334C4, symBinAddr: 0x100035B20, symSize: 0x360 }
  - { offsetInCU: 0x72D86, offset: 0x72D86, size: 0x8, addend: 0x0, symName: '__ZNSt3__122__compressed_pair_elemINS_9allocatorIZ22test_spread_calculatorR9TestSuiteE3$_5EELi1ELb1EEC2B7v160006IJRKS5_EJLm0EEEENS_21piecewise_construct_tENS_5tupleIJDpT_EEENS_15__tuple_indicesIJXspT0_EEEE', symObjAddr: 0x33824, symBinAddr: 0x100035E80, symSize: 0x200 }
  - { offsetInCU: 0x72DF1, offset: 0x72DF1, size: 0x8, addend: 0x0, symName: '__ZNSt3__112__tuple_leafILm0ERKNS_9allocatorIZ22test_spread_calculatorR9TestSuiteE3$_5EELb0EE3getB7v160006Ev', symObjAddr: 0x33A48, symBinAddr: 0x1000360A4, symSize: 0x60 }
  - { offsetInCU: 0x72E17, offset: 0x72E17, size: 0x8, addend: 0x0, symName: '__ZNSt3__110__function12__alloc_funcIZ22test_spread_calculatorR9TestSuiteE3$_5NS_9allocatorIS4_EEFvvEE7destroyB7v160006Ev', symObjAddr: 0x33AA8, symBinAddr: 0x100036104, symSize: 0x10 }
  - { offsetInCU: 0x72E3D, offset: 0x72E3D, size: 0x8, addend: 0x0, symName: '__ZNSt3__110__function12__alloc_funcIZ22test_spread_calculatorR9TestSuiteE3$_5NS_9allocatorIS4_EEFvvEEclB7v160006Ev', symObjAddr: 0x33AB8, symBinAddr: 0x100036114, symSize: 0x28 }
  - { offsetInCU: 0x72E63, offset: 0x72E63, size: 0x8, addend: 0x0, symName: '__ZNSt3__128__invoke_void_return_wrapperIvLb1EE6__callIJRZ22test_spread_calculatorR9TestSuiteE3$_5EEEvDpOT_', symObjAddr: 0x33AE0, symBinAddr: 0x10003613C, symSize: 0x24 }
  - { offsetInCU: 0x72E92, offset: 0x72E92, size: 0x8, addend: 0x0, symName: '__ZNSt3__117__compressed_pairIZ22test_spread_calculatorR9TestSuiteE3$_5NS_9allocatorIS3_EEE5firstB7v160006Ev', symObjAddr: 0x33B04, symBinAddr: 0x100036160, symSize: 0x24 }
  - { offsetInCU: 0x72EBE, offset: 0x72EBE, size: 0x8, addend: 0x0, symName: '__ZZ22test_spread_calculatorR9TestSuiteENK3$_5clEv', symObjAddr: 0x33B4C, symBinAddr: 0x1000361A8, symSize: 0x6A8 }
  - { offsetInCU: 0x72F37, offset: 0x72F37, size: 0x8, addend: 0x0, symName: __ZL15make_test_pairsv, symObjAddr: 0x341F4, symBinAddr: 0x100036850, symSize: 0x598 }
  - { offsetInCU: 0x72F7A, offset: 0x72F7A, size: 0x8, addend: 0x0, symName: __ZN8strategy16SpreadCalculatorC1ERKNSt3__16vectorIN4data15CorrelationPairENS1_9allocatorIS4_EEEE, symObjAddr: 0x3478C, symBinAddr: 0x100036DE8, symSize: 0x34 }
  - { offsetInCU: 0x72FB3, offset: 0x72FB3, size: 0x8, addend: 0x0, symName: __ZNSt3__16vectorIN4data11MarketPriceENS_9allocatorIS2_EEEC1B7v160006Ev, symObjAddr: 0x347C0, symBinAddr: 0x100036E1C, symSize: 0x2C }
  - { offsetInCU: 0x72FDD, offset: 0x72FDD, size: 0x8, addend: 0x0, symName: __ZNSt3__16vectorIN4data11MarketPriceENS_9allocatorIS2_EEE9push_backB7v160006EOS2_, symObjAddr: 0x347EC, symBinAddr: 0x100036E48, symSize: 0xE0 }
  - { offsetInCU: 0x73014, offset: 0x73014, size: 0x8, addend: 0x0, symName: __ZL10make_pricePKcjj, symObjAddr: 0x348CC, symBinAddr: 0x100036F28, symSize: 0x684 }
  - { offsetInCU: 0x73070, offset: 0x73070, size: 0x8, addend: 0x0, symName: __ZNK8strategy16SpreadCalculator9calculateERKNSt3__16vectorIN4data11MarketPriceENS1_9allocatorIS4_EEEEy, symObjAddr: 0x34F50, symBinAddr: 0x1000375AC, symSize: 0xC7C }
  - { offsetInCU: 0x731DC, offset: 0x731DC, size: 0x8, addend: 0x0, symName: __ZNKSt3__16vectorIN4data15ArbitrageSignalENS_9allocatorIS2_EEE4sizeB7v160006Ev, symObjAddr: 0x35BCC, symBinAddr: 0x100038228, symSize: 0xB0 }
  - { offsetInCU: 0x73202, offset: 0x73202, size: 0x8, addend: 0x0, symName: __ZNSt3__16vectorIN4data15ArbitrageSignalENS_9allocatorIS2_EEEixB7v160006Em, symObjAddr: 0x35C7C, symBinAddr: 0x1000382D8, symSize: 0x74 }
  - { offsetInCU: 0x73239, offset: 0x73239, size: 0x8, addend: 0x0, symName: __ZNSt3__16vectorIN4data15ArbitrageSignalENS_9allocatorIS2_EEED1B7v160006Ev, symObjAddr: 0x35CF0, symBinAddr: 0x10003834C, symSize: 0x2C }
  - { offsetInCU: 0x73263, offset: 0x73263, size: 0x8, addend: 0x0, symName: __ZNSt3__16vectorIN4data11MarketPriceENS_9allocatorIS2_EEED1B7v160006Ev, symObjAddr: 0x35D1C, symBinAddr: 0x100038378, symSize: 0x2C }
  - { offsetInCU: 0x7328D, offset: 0x7328D, size: 0x8, addend: 0x0, symName: __ZN8strategy16SpreadCalculatorD1Ev, symObjAddr: 0x35D48, symBinAddr: 0x1000383A4, symSize: 0x2C }
  - { offsetInCU: 0x732BA, offset: 0x732BA, size: 0x8, addend: 0x0, symName: __ZNSt3__16vectorIN4data15CorrelationPairENS_9allocatorIS2_EEED1B7v160006Ev, symObjAddr: 0x35D74, symBinAddr: 0x1000383D0, symSize: 0x2C }
  - { offsetInCU: 0x732E4, offset: 0x732E4, size: 0x8, addend: 0x0, symName: __ZNSt3__16vectorIN4data15CorrelationPairENS_9allocatorIS2_EEEC1B7v160006Ev, symObjAddr: 0x35DA0, symBinAddr: 0x1000383FC, symSize: 0x2C }
  - { offsetInCU: 0x7330E, offset: 0x7330E, size: 0x8, addend: 0x0, symName: __ZNSt3__16vectorIN4data15CorrelationPairENS_9allocatorIS2_EEE9push_backB7v160006ERKS2_, symObjAddr: 0x35DCC, symBinAddr: 0x100038428, symSize: 0xE0 }
  - { offsetInCU: 0x73345, offset: 0x73345, size: 0x8, addend: 0x0, symName: __ZNSt3__16vectorIN4data15CorrelationPairENS_9allocatorIS2_EEEC2B7v160006Ev, symObjAddr: 0x35EAC, symBinAddr: 0x100038508, symSize: 0x2F4 }
  - { offsetInCU: 0x73370, offset: 0x73370, size: 0x8, addend: 0x0, symName: __ZNSt3__117__compressed_pairIPN4data15CorrelationPairENS_9allocatorIS2_EEEC1B7v160006IDnNS_18__default_init_tagEEEOT_OT0_, symObjAddr: 0x361A0, symBinAddr: 0x1000387FC, symSize: 0x3C }
  - { offsetInCU: 0x733CA, offset: 0x733CA, size: 0x8, addend: 0x0, symName: __ZNSt3__117__compressed_pairIPN4data15CorrelationPairENS_9allocatorIS2_EEEC2B7v160006IDnNS_18__default_init_tagEEEOT_OT0_, symObjAddr: 0x361EC, symBinAddr: 0x100038848, symSize: 0x40 }
  - { offsetInCU: 0x73424, offset: 0x73424, size: 0x8, addend: 0x0, symName: __ZNSt3__122__compressed_pair_elemIPN4data15CorrelationPairELi0ELb0EEC2B7v160006IDnvEEOT_, symObjAddr: 0x3622C, symBinAddr: 0x100038888, symSize: 0x64 }
  - { offsetInCU: 0x73467, offset: 0x73467, size: 0x8, addend: 0x0, symName: __ZNSt3__122__compressed_pair_elemINS_9allocatorIN4data15CorrelationPairEEELi1ELb1EEC2B7v160006ENS_18__default_init_tagE, symObjAddr: 0x36290, symBinAddr: 0x1000388EC, symSize: 0x2C }
  - { offsetInCU: 0x7349B, offset: 0x7349B, size: 0x8, addend: 0x0, symName: __ZNSt3__19allocatorIN4data15CorrelationPairEEC2B7v160006Ev, symObjAddr: 0x362BC, symBinAddr: 0x100038918, symSize: 0x2C }
  - { offsetInCU: 0x734C5, offset: 0x734C5, size: 0x8, addend: 0x0, symName: __ZNSt3__116__non_trivial_ifILb1ENS_9allocatorIN4data15CorrelationPairEEEEC2B7v160006Ev, symObjAddr: 0x362E8, symBinAddr: 0x100038944, symSize: 0x14 }
  - { offsetInCU: 0x734EF, offset: 0x734EF, size: 0x8, addend: 0x0, symName: __ZNSt3__16vectorIN4data15CorrelationPairENS_9allocatorIS2_EEE9__end_capB7v160006Ev, symObjAddr: 0x362FC, symBinAddr: 0x100038958, symSize: 0x28 }
  - { offsetInCU: 0x73515, offset: 0x73515, size: 0x8, addend: 0x0, symName: __ZNSt3__16vectorIN4data15CorrelationPairENS_9allocatorIS2_EEE22__construct_one_at_endB7v160006IJRKS2_EEEvDpOT_, symObjAddr: 0x36324, symBinAddr: 0x100038980, symSize: 0x36C }
  - { offsetInCU: 0x7356A, offset: 0x7356A, size: 0x8, addend: 0x0, symName: __ZNSt3__16vectorIN4data15CorrelationPairENS_9allocatorIS2_EEE21__push_back_slow_pathIRKS2_EEvOT_, symObjAddr: 0x36690, symBinAddr: 0x100038CEC, symSize: 0x3C0 }
  - { offsetInCU: 0x735CF, offset: 0x735CF, size: 0x8, addend: 0x0, symName: __ZNSt3__117__compressed_pairIPN4data15CorrelationPairENS_9allocatorIS2_EEE5firstB7v160006Ev, symObjAddr: 0x36A50, symBinAddr: 0x1000390AC, symSize: 0x24 }
  - { offsetInCU: 0x735F5, offset: 0x735F5, size: 0x8, addend: 0x0, symName: __ZNSt3__122__compressed_pair_elemIPN4data15CorrelationPairELi0ELb0EE5__getB7v160006Ev, symObjAddr: 0x36A74, symBinAddr: 0x1000390D0, symSize: 0x14 }
  - { offsetInCU: 0x73637, offset: 0x73637, size: 0x8, addend: 0x0, symName: __ZNSt3__16vectorIN4data15CorrelationPairENS_9allocatorIS2_EEE21_ConstructTransactionC1B7v160006ERS5_m, symObjAddr: 0x36A88, symBinAddr: 0x1000390E4, symSize: 0x3C }
  - { offsetInCU: 0x7367F, offset: 0x7367F, size: 0x8, addend: 0x0, symName: __ZNSt3__116allocator_traitsINS_9allocatorIN4data15CorrelationPairEEEE9constructB7v160006IS3_JRKS3_EvvEEvRS4_PT_DpOT0_, symObjAddr: 0x36AC4, symBinAddr: 0x100039120, symSize: 0x30 }
  - { offsetInCU: 0x736D4, offset: 0x736D4, size: 0x8, addend: 0x0, symName: __ZNSt3__16vectorIN4data15CorrelationPairENS_9allocatorIS2_EEE7__allocB7v160006Ev, symObjAddr: 0x36AF4, symBinAddr: 0x100039150, symSize: 0x28 }
  - { offsetInCU: 0x736FA, offset: 0x736FA, size: 0x8, addend: 0x0, symName: __ZNSt3__16vectorIN4data15CorrelationPairENS_9allocatorIS2_EEE21_ConstructTransactionD1B7v160006Ev, symObjAddr: 0x36B30, symBinAddr: 0x10003918C, symSize: 0x2C }
  - { offsetInCU: 0x73724, offset: 0x73724, size: 0x8, addend: 0x0, symName: __ZNSt3__16vectorIN4data15CorrelationPairENS_9allocatorIS2_EEE21_ConstructTransactionC2B7v160006ERS5_m, symObjAddr: 0x36B5C, symBinAddr: 0x1000391B8, symSize: 0x1D8 }
  - { offsetInCU: 0x7376C, offset: 0x7376C, size: 0x8, addend: 0x0, symName: __ZNKSt3__16vectorIN4data15CorrelationPairENS_9allocatorIS2_EEE19__annotate_increaseB7v160006Em, symObjAddr: 0x36D34, symBinAddr: 0x100039390, symSize: 0xF8 }
  - { offsetInCU: 0x737A1, offset: 0x737A1, size: 0x8, addend: 0x0, symName: __ZNKSt3__16vectorIN4data15CorrelationPairENS_9allocatorIS2_EEE31__annotate_contiguous_containerEPKvS7_S7_S7_, symObjAddr: 0x36E2C, symBinAddr: 0x100039488, symSize: 0x58 }
  - { offsetInCU: 0x73803, offset: 0x73803, size: 0x8, addend: 0x0, symName: __ZNKSt3__16vectorIN4data15CorrelationPairENS_9allocatorIS2_EEE4dataB7v160006Ev, symObjAddr: 0x36E84, symBinAddr: 0x1000394E0, symSize: 0x64 }
  - { offsetInCU: 0x73829, offset: 0x73829, size: 0x8, addend: 0x0, symName: __ZNKSt3__16vectorIN4data15CorrelationPairENS_9allocatorIS2_EEE8capacityB7v160006Ev, symObjAddr: 0x36EE8, symBinAddr: 0x100039544, symSize: 0xBC }
  - { offsetInCU: 0x7384F, offset: 0x7384F, size: 0x8, addend: 0x0, symName: __ZNKSt3__16vectorIN4data15CorrelationPairENS_9allocatorIS2_EEE4sizeB7v160006Ev, symObjAddr: 0x36FA4, symBinAddr: 0x100039600, symSize: 0xB0 }
  - { offsetInCU: 0x73875, offset: 0x73875, size: 0x8, addend: 0x0, symName: __ZNKSt3__16vectorIN4data15CorrelationPairENS_9allocatorIS2_EEE9__end_capB7v160006Ev, symObjAddr: 0x37054, symBinAddr: 0x1000396B0, symSize: 0x28 }
  - { offsetInCU: 0x7389B, offset: 0x7389B, size: 0x8, addend: 0x0, symName: __ZNKSt3__117__compressed_pairIPN4data15CorrelationPairENS_9allocatorIS2_EEE5firstB7v160006Ev, symObjAddr: 0x3707C, symBinAddr: 0x1000396D8, symSize: 0x24 }
  - { offsetInCU: 0x738C1, offset: 0x738C1, size: 0x8, addend: 0x0, symName: __ZNKSt3__122__compressed_pair_elemIPN4data15CorrelationPairELi0ELb0EE5__getB7v160006Ev, symObjAddr: 0x370A0, symBinAddr: 0x1000396FC, symSize: 0x14 }
  - { offsetInCU: 0x738E7, offset: 0x738E7, size: 0x8, addend: 0x0, symName: __ZNSt3__117__compressed_pairIPN4data15CorrelationPairENS_9allocatorIS2_EEE6secondB7v160006Ev, symObjAddr: 0x370F4, symBinAddr: 0x100039750, symSize: 0x24 }
  - { offsetInCU: 0x7390D, offset: 0x7390D, size: 0x8, addend: 0x0, symName: __ZNSt3__122__compressed_pair_elemINS_9allocatorIN4data15CorrelationPairEEELi1ELb1EE5__getB7v160006Ev, symObjAddr: 0x37118, symBinAddr: 0x100039774, symSize: 0x14 }
  - { offsetInCU: 0x73933, offset: 0x73933, size: 0x8, addend: 0x0, symName: __ZNSt3__16vectorIN4data15CorrelationPairENS_9allocatorIS2_EEE21_ConstructTransactionD2B7v160006Ev, symObjAddr: 0x3712C, symBinAddr: 0x100039788, symSize: 0x278 }
  - { offsetInCU: 0x7395D, offset: 0x7395D, size: 0x8, addend: 0x0, symName: __ZNKSt3__16vectorIN4data15CorrelationPairENS_9allocatorIS2_EEE17__annotate_shrinkB7v160006Em, symObjAddr: 0x373A4, symBinAddr: 0x100039A00, symSize: 0xE4 }
  - { offsetInCU: 0x73992, offset: 0x73992, size: 0x8, addend: 0x0, symName: __ZNKSt3__16vectorIN4data15CorrelationPairENS_9allocatorIS2_EEE11__recommendB7v160006Em, symObjAddr: 0x37488, symBinAddr: 0x100039AE4, symSize: 0x384 }
  - { offsetInCU: 0x739EE, offset: 0x739EE, size: 0x8, addend: 0x0, symName: __ZNSt3__114__split_bufferIN4data15CorrelationPairERNS_9allocatorIS2_EEEC1EmmS5_, symObjAddr: 0x3780C, symBinAddr: 0x100039E68, symSize: 0x44 }
  - { offsetInCU: 0x73A47, offset: 0x73A47, size: 0x8, addend: 0x0, symName: __ZNSt3__114__split_bufferIN4data15CorrelationPairERNS_9allocatorIS2_EEED1Ev, symObjAddr: 0x37DC4, symBinAddr: 0x10003A420, symSize: 0x2C }
  - { offsetInCU: 0x73A73, offset: 0x73A73, size: 0x8, addend: 0x0, symName: __ZNKSt3__16vectorIN4data15CorrelationPairENS_9allocatorIS2_EEE8max_sizeEv, symObjAddr: 0x37DF0, symBinAddr: 0x10003A44C, symSize: 0x2FC }
  - { offsetInCU: 0x73A9C, offset: 0x73A9C, size: 0x8, addend: 0x0, symName: __ZNKSt3__16vectorIN4data15CorrelationPairENS_9allocatorIS2_EEE20__throw_length_errorB7v160006Ev, symObjAddr: 0x380EC, symBinAddr: 0x10003A748, symSize: 0x20 }
  - { offsetInCU: 0x73ACD, offset: 0x73ACD, size: 0x8, addend: 0x0, symName: __ZNSt3__116allocator_traitsINS_9allocatorIN4data15CorrelationPairEEEE8max_sizeB7v160006IS4_vvEEmRKS4_, symObjAddr: 0x3810C, symBinAddr: 0x10003A768, symSize: 0x28 }
  - { offsetInCU: 0x73AF9, offset: 0x73AF9, size: 0x8, addend: 0x0, symName: __ZNKSt3__16vectorIN4data15CorrelationPairENS_9allocatorIS2_EEE7__allocB7v160006Ev, symObjAddr: 0x38134, symBinAddr: 0x10003A790, symSize: 0x28 }
  - { offsetInCU: 0x73B1F, offset: 0x73B1F, size: 0x8, addend: 0x0, symName: __ZNKSt3__117__compressed_pairIPN4data15CorrelationPairENS_9allocatorIS2_EEE6secondB7v160006Ev, symObjAddr: 0x3815C, symBinAddr: 0x10003A7B8, symSize: 0x24 }
  - { offsetInCU: 0x73B45, offset: 0x73B45, size: 0x8, addend: 0x0, symName: __ZNKSt3__122__compressed_pair_elemINS_9allocatorIN4data15CorrelationPairEEELi1ELb1EE5__getB7v160006Ev, symObjAddr: 0x38180, symBinAddr: 0x10003A7DC, symSize: 0x14 }
  - { offsetInCU: 0x73B6B, offset: 0x73B6B, size: 0x8, addend: 0x0, symName: __ZNSt3__114__split_bufferIN4data15CorrelationPairERNS_9allocatorIS2_EEEC2EmmS5_, symObjAddr: 0x38194, symBinAddr: 0x10003A7F0, symSize: 0x530 }
  - { offsetInCU: 0x73BEA, offset: 0x73BEA, size: 0x8, addend: 0x0, symName: __ZNSt3__117__compressed_pairIPN4data15CorrelationPairERNS_9allocatorIS2_EEEC1B7v160006IDnS6_EEOT_OT0_, symObjAddr: 0x386C4, symBinAddr: 0x10003AD20, symSize: 0x3C }
  - { offsetInCU: 0x73C44, offset: 0x73C44, size: 0x8, addend: 0x0, symName: __ZNSt3__114__split_bufferIN4data15CorrelationPairERNS_9allocatorIS2_EEE7__allocB7v160006Ev, symObjAddr: 0x3898C, symBinAddr: 0x10003AFE8, symSize: 0x28 }
  - { offsetInCU: 0x73C6A, offset: 0x73C6A, size: 0x8, addend: 0x0, symName: __ZNSt3__114__split_bufferIN4data15CorrelationPairERNS_9allocatorIS2_EEE9__end_capB7v160006Ev, symObjAddr: 0x389B4, symBinAddr: 0x10003B010, symSize: 0x28 }
  - { offsetInCU: 0x73C90, offset: 0x73C90, size: 0x8, addend: 0x0, symName: __ZNSt3__117__compressed_pairIPN4data15CorrelationPairERNS_9allocatorIS2_EEEC2B7v160006IDnS6_EEOT_OT0_, symObjAddr: 0x389DC, symBinAddr: 0x10003B038, symSize: 0x48 }
  - { offsetInCU: 0x73CEA, offset: 0x73CEA, size: 0x8, addend: 0x0, symName: __ZNSt3__122__compressed_pair_elemIRNS_9allocatorIN4data15CorrelationPairEEELi1ELb0EEC2B7v160006IS5_vEEOT_, symObjAddr: 0x38A24, symBinAddr: 0x10003B080, symSize: 0x70 }
  - { offsetInCU: 0x73D2D, offset: 0x73D2D, size: 0x8, addend: 0x0, symName: __ZNSt3__19allocatorIN4data15CorrelationPairEE8allocateB7v160006Em, symObjAddr: 0x38A94, symBinAddr: 0x10003B0F0, symSize: 0x60 }
  - { offsetInCU: 0x73D62, offset: 0x73D62, size: 0x8, addend: 0x0, symName: __ZNSt3__117__compressed_pairIPN4data15CorrelationPairERNS_9allocatorIS2_EEE6secondB7v160006Ev, symObjAddr: 0x38AF4, symBinAddr: 0x10003B150, symSize: 0x28 }
  - { offsetInCU: 0x73D88, offset: 0x73D88, size: 0x8, addend: 0x0, symName: __ZNSt3__122__compressed_pair_elemIRNS_9allocatorIN4data15CorrelationPairEEELi1ELb0EE5__getB7v160006Ev, symObjAddr: 0x38B1C, symBinAddr: 0x10003B178, symSize: 0x60 }
  - { offsetInCU: 0x73DAE, offset: 0x73DAE, size: 0x8, addend: 0x0, symName: __ZNSt3__117__compressed_pairIPN4data15CorrelationPairERNS_9allocatorIS2_EEE5firstB7v160006Ev, symObjAddr: 0x38B7C, symBinAddr: 0x10003B1D8, symSize: 0x24 }
  - { offsetInCU: 0x73DD4, offset: 0x73DD4, size: 0x8, addend: 0x0, symName: __ZNKSt3__16vectorIN4data15CorrelationPairENS_9allocatorIS2_EEE17__annotate_deleteB7v160006Ev, symObjAddr: 0x38BA0, symBinAddr: 0x10003B1FC, symSize: 0xE8 }
  - { offsetInCU: 0x73DFA, offset: 0x73DFA, size: 0x8, addend: 0x0, symName: __ZNSt3__116reverse_iteratorIPN4data15CorrelationPairEEC1B7v160006ES3_, symObjAddr: 0x39130, symBinAddr: 0x10003B78C, symSize: 0x34 }
  - { offsetInCU: 0x73E33, offset: 0x73E33, size: 0x8, addend: 0x0, symName: __ZNKSt3__116reverse_iteratorIPN4data15CorrelationPairEE4baseB7v160006Ev, symObjAddr: 0x39164, symBinAddr: 0x10003B7C0, symSize: 0x64 }
  - { offsetInCU: 0x73E59, offset: 0x73E59, size: 0x8, addend: 0x0, symName: __ZNKSt3__16vectorIN4data15CorrelationPairENS_9allocatorIS2_EEE14__annotate_newB7v160006Em, symObjAddr: 0x392FC, symBinAddr: 0x10003B958, symSize: 0xDC }
  - { offsetInCU: 0x73EB6, offset: 0x73EB6, size: 0x8, addend: 0x0, symName: __ZNKSt3__111__move_loopINS_17_ClassicAlgPolicyEEclB7v160006INS_16reverse_iteratorIPN4data15CorrelationPairEEES8_S8_EENS_4pairIT_T1_EESA_T0_SB_, symObjAddr: 0x3ACBC, symBinAddr: 0x10003D318, symSize: 0x344 }
  - { offsetInCU: 0x73F31, offset: 0x73F31, size: 0x8, addend: 0x0, symName: __ZNSt3__119__unwrap_range_implINS_16reverse_iteratorIPN4data15CorrelationPairEEES5_E8__unwrapB7v160006ES5_S5_, symObjAddr: 0x3BAE0, symBinAddr: 0x10003E13C, symSize: 0x448 }
  - { offsetInCU: 0x73F72, offset: 0x73F72, size: 0x8, addend: 0x0, symName: __ZNSt3__14pairINS_16reverse_iteratorIPN4data15CorrelationPairEEES5_EC1B7v160006IS5_S5_LPv0EEEOT_OT0_, symObjAddr: 0x3BF28, symBinAddr: 0x10003E584, symSize: 0x3C }
  - { offsetInCU: 0x73FD2, offset: 0x73FD2, size: 0x8, addend: 0x0, symName: __ZNSt3__14pairINS_16reverse_iteratorIPN4data15CorrelationPairEEES5_EC2B7v160006IS5_S5_LPv0EEEOT_OT0_, symObjAddr: 0x3BF64, symBinAddr: 0x10003E5C0, symSize: 0x54 }
  - { offsetInCU: 0x74038, offset: 0x74038, size: 0x8, addend: 0x0, symName: __ZNSt3__18_IterOpsINS_17_ClassicAlgPolicyEE11__iter_moveB7v160006IRNS_16reverse_iteratorIPN4data15CorrelationPairEEEEENS_9enable_ifIXsr12is_referenceIDTdeclsr3stdE7declvalIRT_EEEEE5valueEDTclsr3stdE4movedeclsr3stdE7declvalISC_EEEEE4typeEOSB_, symObjAddr: 0x3C000, symBinAddr: 0x10003E65C, symSize: 0x28 }
  - { offsetInCU: 0x74065, offset: 0x74065, size: 0x8, addend: 0x0, symName: __ZNKSt3__116reverse_iteratorIPN4data15CorrelationPairEEdeB7v160006Ev, symObjAddr: 0x3C028, symBinAddr: 0x10003E684, symSize: 0x74 }
  - { offsetInCU: 0x7409A, offset: 0x7409A, size: 0x8, addend: 0x0, symName: __ZNSt3__116reverse_iteratorIPN4data15CorrelationPairEEppB7v160006Ev, symObjAddr: 0x3C09C, symBinAddr: 0x10003E6F8, symSize: 0x6C }
  - { offsetInCU: 0x740C0, offset: 0x740C0, size: 0x8, addend: 0x0, symName: __ZNSt3__18_IterOpsINS_17_ClassicAlgPolicyEE25__validate_iter_referenceB7v160006IRNS_16reverse_iteratorIPN4data15CorrelationPairEEEEEvv, symObjAddr: 0x3C108, symBinAddr: 0x10003E764, symSize: 0x4 }
  - { offsetInCU: 0x740DE, offset: 0x740DE, size: 0x8, addend: 0x0, symName: __ZNSt3__118__unwrap_iter_implINS_16reverse_iteratorIPN4data15CorrelationPairEEELb0EE8__unwrapB7v160006ES5_, symObjAddr: 0x3C10C, symBinAddr: 0x10003E768, symSize: 0x274 }
  - { offsetInCU: 0x74106, offset: 0x74106, size: 0x8, addend: 0x0, symName: __ZNSt3__119__unwrap_range_implINS_16reverse_iteratorIPN4data15CorrelationPairEEES5_E8__rewrapB7v160006ES5_S5_, symObjAddr: 0x3C380, symBinAddr: 0x10003E9DC, symSize: 0x3D4 }
  - { offsetInCU: 0x74141, offset: 0x74141, size: 0x8, addend: 0x0, symName: __ZNSt3__118__unwrap_iter_implINS_16reverse_iteratorIPN4data15CorrelationPairEEELb0EE8__rewrapB7v160006ES5_S5_, symObjAddr: 0x3C754, symBinAddr: 0x10003EDB0, symSize: 0x2E0 }
  - { offsetInCU: 0x74177, offset: 0x74177, size: 0x8, addend: 0x0, symName: __ZNSt3__116reverse_iteratorIPN4data15CorrelationPairEEC2B7v160006ES3_, symObjAddr: 0x3CA34, symBinAddr: 0x10003F090, symSize: 0xB8 }
  - { offsetInCU: 0x741B0, offset: 0x741B0, size: 0x8, addend: 0x0, symName: __ZNSt3__114__split_bufferIN4data15CorrelationPairERNS_9allocatorIS2_EEED2Ev, symObjAddr: 0x3CAEC, symBinAddr: 0x10003F148, symSize: 0x104 }
  - { offsetInCU: 0x741DC, offset: 0x741DC, size: 0x8, addend: 0x0, symName: __ZNSt3__114__split_bufferIN4data15CorrelationPairERNS_9allocatorIS2_EEE5clearB7v160006Ev, symObjAddr: 0x3CBF0, symBinAddr: 0x10003F24C, symSize: 0x68 }
  - { offsetInCU: 0x74202, offset: 0x74202, size: 0x8, addend: 0x0, symName: __ZNSt3__116allocator_traitsINS_9allocatorIN4data15CorrelationPairEEEE10deallocateB7v160006ERS4_PS3_m, symObjAddr: 0x3CC58, symBinAddr: 0x10003F2B4, symSize: 0x34 }
  - { offsetInCU: 0x74244, offset: 0x74244, size: 0x8, addend: 0x0, symName: __ZNKSt3__114__split_bufferIN4data15CorrelationPairERNS_9allocatorIS2_EEE8capacityB7v160006Ev, symObjAddr: 0x3CC8C, symBinAddr: 0x10003F2E8, symSize: 0xBC }
  - { offsetInCU: 0x7426A, offset: 0x7426A, size: 0x8, addend: 0x0, symName: __ZNSt3__114__split_bufferIN4data15CorrelationPairERNS_9allocatorIS2_EEE17__destruct_at_endB7v160006EPS2_, symObjAddr: 0x3CD48, symBinAddr: 0x10003F3A4, symSize: 0x2C }
  - { offsetInCU: 0x7429F, offset: 0x7429F, size: 0x8, addend: 0x0, symName: __ZNSt3__114__split_bufferIN4data15CorrelationPairERNS_9allocatorIS2_EEE17__destruct_at_endB7v160006EPS2_NS_17integral_constantIbLb0EEE, symObjAddr: 0x3CD74, symBinAddr: 0x10003F3D0, symSize: 0x10C }
  - { offsetInCU: 0x742E0, offset: 0x742E0, size: 0x8, addend: 0x0, symName: __ZNSt3__116allocator_traitsINS_9allocatorIN4data15CorrelationPairEEEE7destroyB7v160006IS3_vvEEvRS4_PT_, symObjAddr: 0x3CE80, symBinAddr: 0x10003F4DC, symSize: 0x28 }
  - { offsetInCU: 0x7431B, offset: 0x7431B, size: 0x8, addend: 0x0, symName: __ZNSt3__19allocatorIN4data15CorrelationPairEE10deallocateB7v160006EPS2_m, symObjAddr: 0x3CEDC, symBinAddr: 0x10003F538, symSize: 0x50 }
  - { offsetInCU: 0x7435F, offset: 0x7435F, size: 0x8, addend: 0x0, symName: __ZNKSt3__114__split_bufferIN4data15CorrelationPairERNS_9allocatorIS2_EEE9__end_capB7v160006Ev, symObjAddr: 0x3CF2C, symBinAddr: 0x10003F588, symSize: 0x28 }
  - { offsetInCU: 0x74385, offset: 0x74385, size: 0x8, addend: 0x0, symName: __ZNKSt3__117__compressed_pairIPN4data15CorrelationPairERNS_9allocatorIS2_EEE5firstB7v160006Ev, symObjAddr: 0x3CF54, symBinAddr: 0x10003F5B0, symSize: 0x24 }
  - { offsetInCU: 0x743AB, offset: 0x743AB, size: 0x8, addend: 0x0, symName: __ZN8strategy16SpreadCalculatorC2ERKNSt3__16vectorIN4data15CorrelationPairENS1_9allocatorIS4_EEEE, symObjAddr: 0x3CF78, symBinAddr: 0x10003F5D4, symSize: 0x34 }
  - { offsetInCU: 0x743E4, offset: 0x743E4, size: 0x8, addend: 0x0, symName: __ZNSt3__16vectorIN4data15CorrelationPairENS_9allocatorIS2_EEEC1ERKS5_, symObjAddr: 0x3CFAC, symBinAddr: 0x10003F608, symSize: 0x34 }
  - { offsetInCU: 0x7441F, offset: 0x7441F, size: 0x8, addend: 0x0, symName: __ZNSt3__16vectorIN4data15CorrelationPairENS_9allocatorIS2_EEEC2ERKS5_, symObjAddr: 0x3CFE0, symBinAddr: 0x10003F63C, symSize: 0x538 }
  - { offsetInCU: 0x74485, offset: 0x74485, size: 0x8, addend: 0x0, symName: __ZNSt3__116allocator_traitsINS_9allocatorIN4data15CorrelationPairEEEE37select_on_container_copy_constructionB7v160006IS4_vvEES4_RKS4_, symObjAddr: 0x3D518, symBinAddr: 0x10003FB74, symSize: 0x10 }
  - { offsetInCU: 0x744BA, offset: 0x744BA, size: 0x8, addend: 0x0, symName: __ZNSt3__117__compressed_pairIPN4data15CorrelationPairENS_9allocatorIS2_EEEC1B7v160006IDnS5_EEOT_OT0_, symObjAddr: 0x3D528, symBinAddr: 0x10003FB84, symSize: 0x3C }
  - { offsetInCU: 0x74514, offset: 0x74514, size: 0x8, addend: 0x0, symName: __ZNSt3__16vectorIN4data15CorrelationPairENS_9allocatorIS2_EEE16__destroy_vectorC1ERS5_, symObjAddr: 0x3D7DC, symBinAddr: 0x10003FE38, symSize: 0x34 }
  - { offsetInCU: 0x7454D, offset: 0x7454D, size: 0x8, addend: 0x0, symName: __ZNSt3__16vectorIN4data15CorrelationPairENS_9allocatorIS2_EEE11__vallocateB7v160006Em, symObjAddr: 0x3D810, symBinAddr: 0x10003FE6C, symSize: 0x428 }
  - { offsetInCU: 0x74597, offset: 0x74597, size: 0x8, addend: 0x0, symName: __ZNSt3__16vectorIN4data15CorrelationPairENS_9allocatorIS2_EEE18__construct_at_endIPS2_Li0EEEvT_S8_m, symObjAddr: 0x3DC38, symBinAddr: 0x100040294, symSize: 0x380 }
  - { offsetInCU: 0x74612, offset: 0x74612, size: 0x8, addend: 0x0, symName: __ZNSt3__128__exception_guard_exceptionsINS_6vectorIN4data15CorrelationPairENS_9allocatorIS3_EEE16__destroy_vectorEE10__completeB7v160006Ev, symObjAddr: 0x3DFB8, symBinAddr: 0x100040614, symSize: 0x8C }
  - { offsetInCU: 0x74638, offset: 0x74638, size: 0x8, addend: 0x0, symName: __ZNSt3__128__exception_guard_exceptionsINS_6vectorIN4data15CorrelationPairENS_9allocatorIS3_EEE16__destroy_vectorEED1B7v160006Ev, symObjAddr: 0x3E044, symBinAddr: 0x1000406A0, symSize: 0x2C }
  - { offsetInCU: 0x74662, offset: 0x74662, size: 0x8, addend: 0x0, symName: __ZNSt3__117__compressed_pairIPN4data15CorrelationPairENS_9allocatorIS2_EEEC2B7v160006IDnS5_EEOT_OT0_, symObjAddr: 0x3E070, symBinAddr: 0x1000406CC, symSize: 0x44 }
  - { offsetInCU: 0x746BC, offset: 0x746BC, size: 0x8, addend: 0x0, symName: __ZNSt3__122__compressed_pair_elemINS_9allocatorIN4data15CorrelationPairEEELi1ELb1EEC2B7v160006IS4_vEEOT_, symObjAddr: 0x3E0B4, symBinAddr: 0x100040710, symSize: 0x18 }
  - { offsetInCU: 0x746FF, offset: 0x746FF, size: 0x8, addend: 0x0, symName: __ZNSt3__128__exception_guard_exceptionsINS_6vectorIN4data15CorrelationPairENS_9allocatorIS3_EEE16__destroy_vectorEEC1B7v160006ES7_, symObjAddr: 0x3E0CC, symBinAddr: 0x100040728, symSize: 0x238 }
  - { offsetInCU: 0x7473D, offset: 0x7473D, size: 0x8, addend: 0x0, symName: __ZNSt3__128__exception_guard_exceptionsINS_6vectorIN4data15CorrelationPairENS_9allocatorIS3_EEE16__destroy_vectorEEC2B7v160006ES7_, symObjAddr: 0x3E304, symBinAddr: 0x100040960, symSize: 0x264 }
  - { offsetInCU: 0x7477B, offset: 0x7477B, size: 0x8, addend: 0x0, symName: __ZNSt3__16vectorIN4data15CorrelationPairENS_9allocatorIS2_EEE16__destroy_vectorC2ERS5_, symObjAddr: 0x3E568, symBinAddr: 0x100040BC4, symSize: 0x70 }
  - { offsetInCU: 0x747B4, offset: 0x747B4, size: 0x8, addend: 0x0, symName: __ZNSt3__129_AllocatorDestroyRangeReverseINS_9allocatorIN4data15CorrelationPairEEEPS3_EC1B7v160006ERS4_RS5_S8_, symObjAddr: 0x3ECF0, symBinAddr: 0x10004134C, symSize: 0x44 }
  - { offsetInCU: 0x7480B, offset: 0x7480B, size: 0x8, addend: 0x0, symName: __ZNSt3__116allocator_traitsINS_9allocatorIN4data15CorrelationPairEEEE9constructB7v160006IS3_JRS3_EvvEEvRS4_PT_DpOT0_, symObjAddr: 0x3ED34, symBinAddr: 0x100041390, symSize: 0x30 }
  - { offsetInCU: 0x74860, offset: 0x74860, size: 0x8, addend: 0x0, symName: __ZNSt3__128__exception_guard_exceptionsINS_29_AllocatorDestroyRangeReverseINS_9allocatorIN4data15CorrelationPairEEEPS4_EEE10__completeB7v160006Ev, symObjAddr: 0x3ED64, symBinAddr: 0x1000413C0, symSize: 0x8C }
  - { offsetInCU: 0x74886, offset: 0x74886, size: 0x8, addend: 0x0, symName: __ZNSt3__128__exception_guard_exceptionsINS_29_AllocatorDestroyRangeReverseINS_9allocatorIN4data15CorrelationPairEEEPS4_EEED1B7v160006Ev, symObjAddr: 0x3EDF0, symBinAddr: 0x10004144C, symSize: 0x2C }
  - { offsetInCU: 0x748B0, offset: 0x748B0, size: 0x8, addend: 0x0, symName: __ZNSt3__128__exception_guard_exceptionsINS_29_AllocatorDestroyRangeReverseINS_9allocatorIN4data15CorrelationPairEEEPS4_EEEC1B7v160006ES7_, symObjAddr: 0x3EE1C, symBinAddr: 0x100041478, symSize: 0x34 }
  - { offsetInCU: 0x748EA, offset: 0x748EA, size: 0x8, addend: 0x0, symName: __ZNSt3__128__exception_guard_exceptionsINS_29_AllocatorDestroyRangeReverseINS_9allocatorIN4data15CorrelationPairEEEPS4_EEEC2B7v160006ES7_, symObjAddr: 0x3EE50, symBinAddr: 0x1000414AC, symSize: 0xA4 }
  - { offsetInCU: 0x74924, offset: 0x74924, size: 0x8, addend: 0x0, symName: __ZNSt3__129_AllocatorDestroyRangeReverseINS_9allocatorIN4data15CorrelationPairEEEPS3_EC2B7v160006ERS4_RS5_S8_, symObjAddr: 0x3EEF4, symBinAddr: 0x100041550, symSize: 0x104 }
  - { offsetInCU: 0x7497B, offset: 0x7497B, size: 0x8, addend: 0x0, symName: __ZNSt3__128__exception_guard_exceptionsINS_29_AllocatorDestroyRangeReverseINS_9allocatorIN4data15CorrelationPairEEEPS4_EEED2B7v160006Ev, symObjAddr: 0x3F038, symBinAddr: 0x100041694, symSize: 0xBC }
  - { offsetInCU: 0x749A5, offset: 0x749A5, size: 0x8, addend: 0x0, symName: __ZNKSt3__129_AllocatorDestroyRangeReverseINS_9allocatorIN4data15CorrelationPairEEEPS3_EclB7v160006Ev, symObjAddr: 0x3F0F4, symBinAddr: 0x100041750, symSize: 0x39C }
  - { offsetInCU: 0x749D2, offset: 0x749D2, size: 0x8, addend: 0x0, symName: __ZNSt3__119__to_address_helperINS_16reverse_iteratorIPN4data15CorrelationPairEEEvE6__callB7v160006ERKS5_, symObjAddr: 0x3F76C, symBinAddr: 0x100041DC8, symSize: 0x44 }
  - { offsetInCU: 0x749F6, offset: 0x749F6, size: 0x8, addend: 0x0, symName: __ZNKSt3__116reverse_iteratorIPN4data15CorrelationPairEEptB7v160006Ev, symObjAddr: 0x3F7B0, symBinAddr: 0x100041E0C, symSize: 0x6C }
  - { offsetInCU: 0x74A1C, offset: 0x74A1C, size: 0x8, addend: 0x0, symName: __ZNSt3__128__exception_guard_exceptionsINS_6vectorIN4data15CorrelationPairENS_9allocatorIS3_EEE16__destroy_vectorEED2B7v160006Ev, symObjAddr: 0x3FB48, symBinAddr: 0x1000421A4, symSize: 0xBC }
  - { offsetInCU: 0x74A46, offset: 0x74A46, size: 0x8, addend: 0x0, symName: __ZNSt3__16vectorIN4data15CorrelationPairENS_9allocatorIS2_EEE16__destroy_vectorclB7v160006Ev, symObjAddr: 0x3FC04, symBinAddr: 0x100042260, symSize: 0x264 }
  - { offsetInCU: 0x74A6C, offset: 0x74A6C, size: 0x8, addend: 0x0, symName: __ZNSt3__16vectorIN4data15CorrelationPairENS_9allocatorIS2_EEE7__clearB7v160006Ev, symObjAddr: 0x3FE78, symBinAddr: 0x1000424D4, symSize: 0x64 }
  - { offsetInCU: 0x74A92, offset: 0x74A92, size: 0x8, addend: 0x0, symName: __ZNSt3__16vectorIN4data15CorrelationPairENS_9allocatorIS2_EEE22__base_destruct_at_endB7v160006EPS2_, symObjAddr: 0x3FEDC, symBinAddr: 0x100042538, symSize: 0x114 }
  - { offsetInCU: 0x74AD6, offset: 0x74AD6, size: 0x8, addend: 0x0, symName: __ZNSt3__16vectorIN4data11MarketPriceENS_9allocatorIS2_EEEC2B7v160006Ev, symObjAddr: 0x3FFF0, symBinAddr: 0x10004264C, symSize: 0x2F4 }
  - { offsetInCU: 0x74B01, offset: 0x74B01, size: 0x8, addend: 0x0, symName: __ZNSt3__117__compressed_pairIPN4data11MarketPriceENS_9allocatorIS2_EEEC1B7v160006IDnNS_18__default_init_tagEEEOT_OT0_, symObjAddr: 0x402E4, symBinAddr: 0x100042940, symSize: 0x3C }
  - { offsetInCU: 0x74B5B, offset: 0x74B5B, size: 0x8, addend: 0x0, symName: __ZNSt3__117__compressed_pairIPN4data11MarketPriceENS_9allocatorIS2_EEEC2B7v160006IDnNS_18__default_init_tagEEEOT_OT0_, symObjAddr: 0x40330, symBinAddr: 0x10004298C, symSize: 0x40 }
  - { offsetInCU: 0x74BB5, offset: 0x74BB5, size: 0x8, addend: 0x0, symName: __ZNSt3__122__compressed_pair_elemIPN4data11MarketPriceELi0ELb0EEC2B7v160006IDnvEEOT_, symObjAddr: 0x40370, symBinAddr: 0x1000429CC, symSize: 0x64 }
  - { offsetInCU: 0x74BF8, offset: 0x74BF8, size: 0x8, addend: 0x0, symName: __ZNSt3__122__compressed_pair_elemINS_9allocatorIN4data11MarketPriceEEELi1ELb1EEC2B7v160006ENS_18__default_init_tagE, symObjAddr: 0x403D4, symBinAddr: 0x100042A30, symSize: 0x2C }
  - { offsetInCU: 0x74C2C, offset: 0x74C2C, size: 0x8, addend: 0x0, symName: __ZNSt3__19allocatorIN4data11MarketPriceEEC2B7v160006Ev, symObjAddr: 0x40400, symBinAddr: 0x100042A5C, symSize: 0x2C }
  - { offsetInCU: 0x74C56, offset: 0x74C56, size: 0x8, addend: 0x0, symName: __ZNSt3__116__non_trivial_ifILb1ENS_9allocatorIN4data11MarketPriceEEEEC2B7v160006Ev, symObjAddr: 0x4042C, symBinAddr: 0x100042A88, symSize: 0x14 }
  - { offsetInCU: 0x74C80, offset: 0x74C80, size: 0x8, addend: 0x0, symName: __ZNSt3__16vectorIN4data11MarketPriceENS_9allocatorIS2_EEE9__end_capB7v160006Ev, symObjAddr: 0x40440, symBinAddr: 0x100042A9C, symSize: 0x28 }
  - { offsetInCU: 0x74CAC, offset: 0x74CAC, size: 0x8, addend: 0x0, symName: __ZNSt3__16vectorIN4data11MarketPriceENS_9allocatorIS2_EEE22__construct_one_at_endB7v160006IJS2_EEEvDpOT_, symObjAddr: 0x40468, symBinAddr: 0x100042AC4, symSize: 0x36C }
  - { offsetInCU: 0x74D01, offset: 0x74D01, size: 0x8, addend: 0x0, symName: __ZNSt3__16vectorIN4data11MarketPriceENS_9allocatorIS2_EEE21__push_back_slow_pathIS2_EEvOT_, symObjAddr: 0x407D4, symBinAddr: 0x100042E30, symSize: 0x3C0 }
  - { offsetInCU: 0x74D66, offset: 0x74D66, size: 0x8, addend: 0x0, symName: __ZNSt3__117__compressed_pairIPN4data11MarketPriceENS_9allocatorIS2_EEE5firstB7v160006Ev, symObjAddr: 0x40B94, symBinAddr: 0x1000431F0, symSize: 0x24 }
  - { offsetInCU: 0x74DA8, offset: 0x74DA8, size: 0x8, addend: 0x0, symName: __ZNSt3__16vectorIN4data11MarketPriceENS_9allocatorIS2_EEE21_ConstructTransactionC1B7v160006ERS5_m, symObjAddr: 0x40BB8, symBinAddr: 0x100043214, symSize: 0x3C }
  - { offsetInCU: 0x74DF0, offset: 0x74DF0, size: 0x8, addend: 0x0, symName: __ZNSt3__116allocator_traitsINS_9allocatorIN4data11MarketPriceEEEE9constructB7v160006IS3_JS3_EvvEEvRS4_PT_DpOT0_, symObjAddr: 0x40BF4, symBinAddr: 0x100043250, symSize: 0x30 }
  - { offsetInCU: 0x74E45, offset: 0x74E45, size: 0x8, addend: 0x0, symName: __ZNSt3__16vectorIN4data11MarketPriceENS_9allocatorIS2_EEE7__allocB7v160006Ev, symObjAddr: 0x40C24, symBinAddr: 0x100043280, symSize: 0x28 }
  - { offsetInCU: 0x74E6B, offset: 0x74E6B, size: 0x8, addend: 0x0, symName: __ZNSt3__16vectorIN4data11MarketPriceENS_9allocatorIS2_EEE21_ConstructTransactionD1B7v160006Ev, symObjAddr: 0x40C60, symBinAddr: 0x1000432BC, symSize: 0x2C }
  - { offsetInCU: 0x74E95, offset: 0x74E95, size: 0x8, addend: 0x0, symName: __ZNSt3__16vectorIN4data11MarketPriceENS_9allocatorIS2_EEE21_ConstructTransactionC2B7v160006ERS5_m, symObjAddr: 0x40C8C, symBinAddr: 0x1000432E8, symSize: 0x1D8 }
  - { offsetInCU: 0x74EDD, offset: 0x74EDD, size: 0x8, addend: 0x0, symName: __ZNKSt3__16vectorIN4data11MarketPriceENS_9allocatorIS2_EEE19__annotate_increaseB7v160006Em, symObjAddr: 0x40E64, symBinAddr: 0x1000434C0, symSize: 0xF8 }
  - { offsetInCU: 0x74F12, offset: 0x74F12, size: 0x8, addend: 0x0, symName: __ZNKSt3__16vectorIN4data11MarketPriceENS_9allocatorIS2_EEE31__annotate_contiguous_containerEPKvS7_S7_S7_, symObjAddr: 0x40F5C, symBinAddr: 0x1000435B8, symSize: 0x58 }
  - { offsetInCU: 0x74F74, offset: 0x74F74, size: 0x8, addend: 0x0, symName: __ZNKSt3__16vectorIN4data11MarketPriceENS_9allocatorIS2_EEE4dataB7v160006Ev, symObjAddr: 0x40FB4, symBinAddr: 0x100043610, symSize: 0x64 }
  - { offsetInCU: 0x74F9A, offset: 0x74F9A, size: 0x8, addend: 0x0, symName: __ZNKSt3__16vectorIN4data11MarketPriceENS_9allocatorIS2_EEE8capacityB7v160006Ev, symObjAddr: 0x41018, symBinAddr: 0x100043674, symSize: 0xBC }
  - { offsetInCU: 0x74FC0, offset: 0x74FC0, size: 0x8, addend: 0x0, symName: __ZNKSt3__16vectorIN4data11MarketPriceENS_9allocatorIS2_EEE4sizeB7v160006Ev, symObjAddr: 0x410D4, symBinAddr: 0x100043730, symSize: 0xB0 }
  - { offsetInCU: 0x74FE6, offset: 0x74FE6, size: 0x8, addend: 0x0, symName: __ZNKSt3__16vectorIN4data11MarketPriceENS_9allocatorIS2_EEE9__end_capB7v160006Ev, symObjAddr: 0x41184, symBinAddr: 0x1000437E0, symSize: 0x28 }
  - { offsetInCU: 0x7500C, offset: 0x7500C, size: 0x8, addend: 0x0, symName: __ZNKSt3__117__compressed_pairIPN4data11MarketPriceENS_9allocatorIS2_EEE5firstB7v160006Ev, symObjAddr: 0x411AC, symBinAddr: 0x100043808, symSize: 0x24 }
  - { offsetInCU: 0x75032, offset: 0x75032, size: 0x8, addend: 0x0, symName: __ZNSt3__117__compressed_pairIPN4data11MarketPriceENS_9allocatorIS2_EEE6secondB7v160006Ev, symObjAddr: 0x41210, symBinAddr: 0x10004386C, symSize: 0x24 }
  - { offsetInCU: 0x75058, offset: 0x75058, size: 0x8, addend: 0x0, symName: __ZNSt3__122__compressed_pair_elemINS_9allocatorIN4data11MarketPriceEEELi1ELb1EE5__getB7v160006Ev, symObjAddr: 0x41234, symBinAddr: 0x100043890, symSize: 0x14 }
  - { offsetInCU: 0x7507E, offset: 0x7507E, size: 0x8, addend: 0x0, symName: __ZNSt3__16vectorIN4data11MarketPriceENS_9allocatorIS2_EEE21_ConstructTransactionD2B7v160006Ev, symObjAddr: 0x41248, symBinAddr: 0x1000438A4, symSize: 0x278 }
  - { offsetInCU: 0x750A8, offset: 0x750A8, size: 0x8, addend: 0x0, symName: __ZNKSt3__16vectorIN4data11MarketPriceENS_9allocatorIS2_EEE17__annotate_shrinkB7v160006Em, symObjAddr: 0x414C0, symBinAddr: 0x100043B1C, symSize: 0xE4 }
  - { offsetInCU: 0x750DD, offset: 0x750DD, size: 0x8, addend: 0x0, symName: __ZNKSt3__16vectorIN4data11MarketPriceENS_9allocatorIS2_EEE11__recommendB7v160006Em, symObjAddr: 0x415A4, symBinAddr: 0x100043C00, symSize: 0x384 }
  - { offsetInCU: 0x75139, offset: 0x75139, size: 0x8, addend: 0x0, symName: __ZNSt3__114__split_bufferIN4data11MarketPriceERNS_9allocatorIS2_EEEC1EmmS5_, symObjAddr: 0x41928, symBinAddr: 0x100043F84, symSize: 0x44 }
  - { offsetInCU: 0x75192, offset: 0x75192, size: 0x8, addend: 0x0, symName: __ZNSt3__114__split_bufferIN4data11MarketPriceERNS_9allocatorIS2_EEED1Ev, symObjAddr: 0x41EE0, symBinAddr: 0x10004453C, symSize: 0x2C }
  - { offsetInCU: 0x751BE, offset: 0x751BE, size: 0x8, addend: 0x0, symName: __ZNKSt3__16vectorIN4data11MarketPriceENS_9allocatorIS2_EEE8max_sizeEv, symObjAddr: 0x41F0C, symBinAddr: 0x100044568, symSize: 0x2FC }
  - { offsetInCU: 0x751E7, offset: 0x751E7, size: 0x8, addend: 0x0, symName: __ZNKSt3__16vectorIN4data11MarketPriceENS_9allocatorIS2_EEE20__throw_length_errorB7v160006Ev, symObjAddr: 0x42208, symBinAddr: 0x100044864, symSize: 0x20 }
  - { offsetInCU: 0x75218, offset: 0x75218, size: 0x8, addend: 0x0, symName: __ZNSt3__116allocator_traitsINS_9allocatorIN4data11MarketPriceEEEE8max_sizeB7v160006IS4_vvEEmRKS4_, symObjAddr: 0x42228, symBinAddr: 0x100044884, symSize: 0x28 }
  - { offsetInCU: 0x75244, offset: 0x75244, size: 0x8, addend: 0x0, symName: __ZNKSt3__16vectorIN4data11MarketPriceENS_9allocatorIS2_EEE7__allocB7v160006Ev, symObjAddr: 0x42250, symBinAddr: 0x1000448AC, symSize: 0x28 }
  - { offsetInCU: 0x7526A, offset: 0x7526A, size: 0x8, addend: 0x0, symName: __ZNKSt3__117__compressed_pairIPN4data11MarketPriceENS_9allocatorIS2_EEE6secondB7v160006Ev, symObjAddr: 0x42278, symBinAddr: 0x1000448D4, symSize: 0x24 }
  - { offsetInCU: 0x75290, offset: 0x75290, size: 0x8, addend: 0x0, symName: __ZNKSt3__122__compressed_pair_elemINS_9allocatorIN4data11MarketPriceEEELi1ELb1EE5__getB7v160006Ev, symObjAddr: 0x4229C, symBinAddr: 0x1000448F8, symSize: 0x14 }
  - { offsetInCU: 0x752B6, offset: 0x752B6, size: 0x8, addend: 0x0, symName: __ZNSt3__114__split_bufferIN4data11MarketPriceERNS_9allocatorIS2_EEEC2EmmS5_, symObjAddr: 0x422B0, symBinAddr: 0x10004490C, symSize: 0x530 }
  - { offsetInCU: 0x75335, offset: 0x75335, size: 0x8, addend: 0x0, symName: __ZNSt3__117__compressed_pairIPN4data11MarketPriceERNS_9allocatorIS2_EEEC1B7v160006IDnS6_EEOT_OT0_, symObjAddr: 0x427E0, symBinAddr: 0x100044E3C, symSize: 0x3C }
  - { offsetInCU: 0x7538F, offset: 0x7538F, size: 0x8, addend: 0x0, symName: __ZNSt3__114__split_bufferIN4data11MarketPriceERNS_9allocatorIS2_EEE7__allocB7v160006Ev, symObjAddr: 0x42AA8, symBinAddr: 0x100045104, symSize: 0x28 }
  - { offsetInCU: 0x753B5, offset: 0x753B5, size: 0x8, addend: 0x0, symName: __ZNSt3__114__split_bufferIN4data11MarketPriceERNS_9allocatorIS2_EEE9__end_capB7v160006Ev, symObjAddr: 0x42AD0, symBinAddr: 0x10004512C, symSize: 0x28 }
  - { offsetInCU: 0x753DB, offset: 0x753DB, size: 0x8, addend: 0x0, symName: __ZNSt3__117__compressed_pairIPN4data11MarketPriceERNS_9allocatorIS2_EEEC2B7v160006IDnS6_EEOT_OT0_, symObjAddr: 0x42AF8, symBinAddr: 0x100045154, symSize: 0x48 }
  - { offsetInCU: 0x75435, offset: 0x75435, size: 0x8, addend: 0x0, symName: __ZNSt3__122__compressed_pair_elemIRNS_9allocatorIN4data11MarketPriceEEELi1ELb0EEC2B7v160006IS5_vEEOT_, symObjAddr: 0x42B40, symBinAddr: 0x10004519C, symSize: 0x70 }
  - { offsetInCU: 0x75478, offset: 0x75478, size: 0x8, addend: 0x0, symName: __ZNSt3__19allocatorIN4data11MarketPriceEE8allocateB7v160006Em, symObjAddr: 0x42BB0, symBinAddr: 0x10004520C, symSize: 0x60 }
  - { offsetInCU: 0x754AD, offset: 0x754AD, size: 0x8, addend: 0x0, symName: __ZNSt3__117__compressed_pairIPN4data11MarketPriceERNS_9allocatorIS2_EEE6secondB7v160006Ev, symObjAddr: 0x42C10, symBinAddr: 0x10004526C, symSize: 0x28 }
  - { offsetInCU: 0x754D3, offset: 0x754D3, size: 0x8, addend: 0x0, symName: __ZNSt3__122__compressed_pair_elemIRNS_9allocatorIN4data11MarketPriceEEELi1ELb0EE5__getB7v160006Ev, symObjAddr: 0x42C38, symBinAddr: 0x100045294, symSize: 0x60 }
  - { offsetInCU: 0x754F9, offset: 0x754F9, size: 0x8, addend: 0x0, symName: __ZNSt3__117__compressed_pairIPN4data11MarketPriceERNS_9allocatorIS2_EEE5firstB7v160006Ev, symObjAddr: 0x42C98, symBinAddr: 0x1000452F4, symSize: 0x24 }
  - { offsetInCU: 0x7551F, offset: 0x7551F, size: 0x8, addend: 0x0, symName: __ZNKSt3__16vectorIN4data11MarketPriceENS_9allocatorIS2_EEE17__annotate_deleteB7v160006Ev, symObjAddr: 0x42CBC, symBinAddr: 0x100045318, symSize: 0xE8 }
  - { offsetInCU: 0x75545, offset: 0x75545, size: 0x8, addend: 0x0, symName: __ZNSt3__116reverse_iteratorIPN4data11MarketPriceEEC1B7v160006ES3_, symObjAddr: 0x4324C, symBinAddr: 0x1000458A8, symSize: 0x34 }
  - { offsetInCU: 0x7557E, offset: 0x7557E, size: 0x8, addend: 0x0, symName: __ZNKSt3__116reverse_iteratorIPN4data11MarketPriceEE4baseB7v160006Ev, symObjAddr: 0x43280, symBinAddr: 0x1000458DC, symSize: 0x64 }
  - { offsetInCU: 0x755A4, offset: 0x755A4, size: 0x8, addend: 0x0, symName: __ZNKSt3__16vectorIN4data11MarketPriceENS_9allocatorIS2_EEE14__annotate_newB7v160006Em, symObjAddr: 0x43418, symBinAddr: 0x100045A74, symSize: 0xDC }
  - { offsetInCU: 0x755F6, offset: 0x755F6, size: 0x8, addend: 0x0, symName: __ZNKSt3__111__move_loopINS_17_ClassicAlgPolicyEEclB7v160006INS_16reverse_iteratorIPN4data11MarketPriceEEES8_S8_EENS_4pairIT_T1_EESA_T0_SB_, symObjAddr: 0x44DD8, symBinAddr: 0x100047434, symSize: 0x344 }
  - { offsetInCU: 0x75671, offset: 0x75671, size: 0x8, addend: 0x0, symName: __ZNSt3__119__unwrap_range_implINS_16reverse_iteratorIPN4data11MarketPriceEEES5_E8__unwrapB7v160006ES5_S5_, symObjAddr: 0x45BFC, symBinAddr: 0x100048258, symSize: 0x448 }
  - { offsetInCU: 0x756B2, offset: 0x756B2, size: 0x8, addend: 0x0, symName: __ZNSt3__14pairINS_16reverse_iteratorIPN4data11MarketPriceEEES5_EC1B7v160006IS5_S5_LPv0EEEOT_OT0_, symObjAddr: 0x46044, symBinAddr: 0x1000486A0, symSize: 0x3C }
  - { offsetInCU: 0x75712, offset: 0x75712, size: 0x8, addend: 0x0, symName: __ZNSt3__14pairINS_16reverse_iteratorIPN4data11MarketPriceEEES5_EC2B7v160006IS5_S5_LPv0EEEOT_OT0_, symObjAddr: 0x46080, symBinAddr: 0x1000486DC, symSize: 0x54 }
  - { offsetInCU: 0x75772, offset: 0x75772, size: 0x8, addend: 0x0, symName: __ZNSt3__18_IterOpsINS_17_ClassicAlgPolicyEE11__iter_moveB7v160006IRNS_16reverse_iteratorIPN4data11MarketPriceEEEEENS_9enable_ifIXsr12is_referenceIDTdeclsr3stdE7declvalIRT_EEEEE5valueEDTclsr3stdE4movedeclsr3stdE7declvalISC_EEEEE4typeEOSB_, symObjAddr: 0x4611C, symBinAddr: 0x100048778, symSize: 0x28 }
  - { offsetInCU: 0x7579F, offset: 0x7579F, size: 0x8, addend: 0x0, symName: __ZNKSt3__116reverse_iteratorIPN4data11MarketPriceEEdeB7v160006Ev, symObjAddr: 0x46144, symBinAddr: 0x1000487A0, symSize: 0x74 }
  - { offsetInCU: 0x757D4, offset: 0x757D4, size: 0x8, addend: 0x0, symName: __ZNSt3__116reverse_iteratorIPN4data11MarketPriceEEppB7v160006Ev, symObjAddr: 0x461B8, symBinAddr: 0x100048814, symSize: 0x6C }
  - { offsetInCU: 0x757FA, offset: 0x757FA, size: 0x8, addend: 0x0, symName: __ZNSt3__18_IterOpsINS_17_ClassicAlgPolicyEE25__validate_iter_referenceB7v160006IRNS_16reverse_iteratorIPN4data11MarketPriceEEEEEvv, symObjAddr: 0x46224, symBinAddr: 0x100048880, symSize: 0x4 }
  - { offsetInCU: 0x75818, offset: 0x75818, size: 0x8, addend: 0x0, symName: __ZNSt3__118__unwrap_iter_implINS_16reverse_iteratorIPN4data11MarketPriceEEELb0EE8__unwrapB7v160006ES5_, symObjAddr: 0x46228, symBinAddr: 0x100048884, symSize: 0x274 }
  - { offsetInCU: 0x75840, offset: 0x75840, size: 0x8, addend: 0x0, symName: __ZNSt3__119__unwrap_range_implINS_16reverse_iteratorIPN4data11MarketPriceEEES5_E8__rewrapB7v160006ES5_S5_, symObjAddr: 0x4649C, symBinAddr: 0x100048AF8, symSize: 0x3D4 }
  - { offsetInCU: 0x7587B, offset: 0x7587B, size: 0x8, addend: 0x0, symName: __ZNSt3__118__unwrap_iter_implINS_16reverse_iteratorIPN4data11MarketPriceEEELb0EE8__rewrapB7v160006ES5_S5_, symObjAddr: 0x46870, symBinAddr: 0x100048ECC, symSize: 0x2E0 }
  - { offsetInCU: 0x758B1, offset: 0x758B1, size: 0x8, addend: 0x0, symName: __ZNSt3__116reverse_iteratorIPN4data11MarketPriceEEC2B7v160006ES3_, symObjAddr: 0x46B50, symBinAddr: 0x1000491AC, symSize: 0xB8 }
  - { offsetInCU: 0x758EA, offset: 0x758EA, size: 0x8, addend: 0x0, symName: __ZNSt3__114__split_bufferIN4data11MarketPriceERNS_9allocatorIS2_EEED2Ev, symObjAddr: 0x46C08, symBinAddr: 0x100049264, symSize: 0x104 }
  - { offsetInCU: 0x75916, offset: 0x75916, size: 0x8, addend: 0x0, symName: __ZNSt3__114__split_bufferIN4data11MarketPriceERNS_9allocatorIS2_EEE5clearB7v160006Ev, symObjAddr: 0x46D0C, symBinAddr: 0x100049368, symSize: 0x68 }
  - { offsetInCU: 0x7593C, offset: 0x7593C, size: 0x8, addend: 0x0, symName: __ZNSt3__116allocator_traitsINS_9allocatorIN4data11MarketPriceEEEE10deallocateB7v160006ERS4_PS3_m, symObjAddr: 0x46D74, symBinAddr: 0x1000493D0, symSize: 0x34 }
  - { offsetInCU: 0x7597E, offset: 0x7597E, size: 0x8, addend: 0x0, symName: __ZNKSt3__114__split_bufferIN4data11MarketPriceERNS_9allocatorIS2_EEE8capacityB7v160006Ev, symObjAddr: 0x46DA8, symBinAddr: 0x100049404, symSize: 0xBC }
  - { offsetInCU: 0x759A4, offset: 0x759A4, size: 0x8, addend: 0x0, symName: __ZNSt3__114__split_bufferIN4data11MarketPriceERNS_9allocatorIS2_EEE17__destruct_at_endB7v160006EPS2_, symObjAddr: 0x46E64, symBinAddr: 0x1000494C0, symSize: 0x2C }
  - { offsetInCU: 0x759D9, offset: 0x759D9, size: 0x8, addend: 0x0, symName: __ZNSt3__114__split_bufferIN4data11MarketPriceERNS_9allocatorIS2_EEE17__destruct_at_endB7v160006EPS2_NS_17integral_constantIbLb0EEE, symObjAddr: 0x46E90, symBinAddr: 0x1000494EC, symSize: 0x10C }
  - { offsetInCU: 0x75A1A, offset: 0x75A1A, size: 0x8, addend: 0x0, symName: __ZNSt3__116allocator_traitsINS_9allocatorIN4data11MarketPriceEEEE7destroyB7v160006IS3_vvEEvRS4_PT_, symObjAddr: 0x46F9C, symBinAddr: 0x1000495F8, symSize: 0x28 }
  - { offsetInCU: 0x75A55, offset: 0x75A55, size: 0x8, addend: 0x0, symName: __ZNSt3__19allocatorIN4data11MarketPriceEE10deallocateB7v160006EPS2_m, symObjAddr: 0x46FF8, symBinAddr: 0x100049654, symSize: 0x50 }
  - { offsetInCU: 0x75A99, offset: 0x75A99, size: 0x8, addend: 0x0, symName: __ZNKSt3__114__split_bufferIN4data11MarketPriceERNS_9allocatorIS2_EEE9__end_capB7v160006Ev, symObjAddr: 0x47048, symBinAddr: 0x1000496A4, symSize: 0x28 }
  - { offsetInCU: 0x75ABF, offset: 0x75ABF, size: 0x8, addend: 0x0, symName: __ZNKSt3__117__compressed_pairIPN4data11MarketPriceERNS_9allocatorIS2_EEE5firstB7v160006Ev, symObjAddr: 0x47070, symBinAddr: 0x1000496CC, symSize: 0x24 }
  - { offsetInCU: 0x75AE5, offset: 0x75AE5, size: 0x8, addend: 0x0, symName: __ZNSt3__16vectorIN4data15ArbitrageSignalENS_9allocatorIS2_EEEC1B7v160006Ev, symObjAddr: 0x47094, symBinAddr: 0x1000496F0, symSize: 0x2C }
  - { offsetInCU: 0x75B0F, offset: 0x75B0F, size: 0x8, addend: 0x0, symName: __ZNSt3__16vectorIN4data15ArbitrageSignalENS_9allocatorIS2_EEE7reserveEm, symObjAddr: 0x470C0, symBinAddr: 0x10004971C, symSize: 0x364 }
  - { offsetInCU: 0x75B71, offset: 0x75B71, size: 0x8, addend: 0x0, symName: __ZNKSt3__16vectorIN4data15CorrelationPairENS_9allocatorIS2_EEE5beginB7v160006Ev, symObjAddr: 0x47424, symBinAddr: 0x100049A80, symSize: 0x268 }
  - { offsetInCU: 0x75B9A, offset: 0x75B9A, size: 0x8, addend: 0x0, symName: __ZNKSt3__16vectorIN4data15CorrelationPairENS_9allocatorIS2_EEE3endB7v160006Ev, symObjAddr: 0x4768C, symBinAddr: 0x100049CE8, symSize: 0x26C }
  - { offsetInCU: 0x75BC3, offset: 0x75BC3, size: 0x8, addend: 0x0, symName: __ZNKSt3__111__wrap_iterIPKN4data15CorrelationPairEEdeB7v160006Ev, symObjAddr: 0x4792C, symBinAddr: 0x100049F88, symSize: 0x60 }
  - { offsetInCU: 0x75BE9, offset: 0x75BE9, size: 0x8, addend: 0x0, symName: __ZNKSt3__16vectorIN4data11MarketPriceENS_9allocatorIS2_EEE5beginB7v160006Ev, symObjAddr: 0x4798C, symBinAddr: 0x100049FE8, symSize: 0x268 }
  - { offsetInCU: 0x75C12, offset: 0x75C12, size: 0x8, addend: 0x0, symName: __ZNKSt3__16vectorIN4data11MarketPriceENS_9allocatorIS2_EEE3endB7v160006Ev, symObjAddr: 0x47BF4, symBinAddr: 0x10004A250, symSize: 0x26C }
  - { offsetInCU: 0x75C3B, offset: 0x75C3B, size: 0x8, addend: 0x0, symName: __ZNKSt3__111__wrap_iterIPKN4data11MarketPriceEEdeB7v160006Ev, symObjAddr: 0x47E94, symBinAddr: 0x10004A4F0, symSize: 0x60 }
  - { offsetInCU: 0x75C61, offset: 0x75C61, size: 0x8, addend: 0x0, symName: __ZNSt3__111__wrap_iterIPKN4data11MarketPriceEEppB7v160006Ev, symObjAddr: 0x47EF4, symBinAddr: 0x10004A550, symSize: 0x68 }
  - { offsetInCU: 0x75C87, offset: 0x75C87, size: 0x8, addend: 0x0, symName: __ZNK8strategy16SpreadCalculator24calculate_current_spreadERKN4data15CorrelationPairEjj, symObjAddr: 0x47F5C, symBinAddr: 0x10004A5B8, symSize: 0x118 }
  - { offsetInCU: 0x75CF8, offset: 0x75CF8, size: 0x8, addend: 0x0, symName: __ZNK8strategy16SpreadCalculator15deviation_sigmaERKN4data15CorrelationPairEd, symObjAddr: 0x48074, symBinAddr: 0x10004A6D0, symSize: 0xFC }
  - { offsetInCU: 0x75D5A, offset: 0x75D5A, size: 0x8, addend: 0x0, symName: __ZNSt3__16vectorIN4data15ArbitrageSignalENS_9allocatorIS2_EEE9push_backB7v160006ERKS2_, symObjAddr: 0x48170, symBinAddr: 0x10004A7CC, symSize: 0xE0 }
  - { offsetInCU: 0x75D91, offset: 0x75D91, size: 0x8, addend: 0x0, symName: __ZNSt3__111__wrap_iterIPKN4data15CorrelationPairEEppB7v160006Ev, symObjAddr: 0x48250, symBinAddr: 0x10004A8AC, symSize: 0x68 }
  - { offsetInCU: 0x75DB7, offset: 0x75DB7, size: 0x8, addend: 0x0, symName: __ZNSt3__16vectorIN4data15ArbitrageSignalENS_9allocatorIS2_EEEC2B7v160006Ev, symObjAddr: 0x482B8, symBinAddr: 0x10004A914, symSize: 0x2F4 }
  - { offsetInCU: 0x75DE2, offset: 0x75DE2, size: 0x8, addend: 0x0, symName: __ZNSt3__117__compressed_pairIPN4data15ArbitrageSignalENS_9allocatorIS2_EEEC1B7v160006IDnNS_18__default_init_tagEEEOT_OT0_, symObjAddr: 0x485AC, symBinAddr: 0x10004AC08, symSize: 0x3C }
  - { offsetInCU: 0x75E3C, offset: 0x75E3C, size: 0x8, addend: 0x0, symName: __ZNSt3__117__compressed_pairIPN4data15ArbitrageSignalENS_9allocatorIS2_EEEC2B7v160006IDnNS_18__default_init_tagEEEOT_OT0_, symObjAddr: 0x485F8, symBinAddr: 0x10004AC54, symSize: 0x40 }
  - { offsetInCU: 0x75E96, offset: 0x75E96, size: 0x8, addend: 0x0, symName: __ZNSt3__122__compressed_pair_elemIPN4data15ArbitrageSignalELi0ELb0EEC2B7v160006IDnvEEOT_, symObjAddr: 0x48638, symBinAddr: 0x10004AC94, symSize: 0x64 }
  - { offsetInCU: 0x75ED9, offset: 0x75ED9, size: 0x8, addend: 0x0, symName: __ZNSt3__122__compressed_pair_elemINS_9allocatorIN4data15ArbitrageSignalEEELi1ELb1EEC2B7v160006ENS_18__default_init_tagE, symObjAddr: 0x4869C, symBinAddr: 0x10004ACF8, symSize: 0x2C }
  - { offsetInCU: 0x75F0D, offset: 0x75F0D, size: 0x8, addend: 0x0, symName: __ZNSt3__19allocatorIN4data15ArbitrageSignalEEC2B7v160006Ev, symObjAddr: 0x486C8, symBinAddr: 0x10004AD24, symSize: 0x2C }
  - { offsetInCU: 0x75F37, offset: 0x75F37, size: 0x8, addend: 0x0, symName: __ZNSt3__116__non_trivial_ifILb1ENS_9allocatorIN4data15ArbitrageSignalEEEEC2B7v160006Ev, symObjAddr: 0x486F4, symBinAddr: 0x10004AD50, symSize: 0x14 }
  - { offsetInCU: 0x75F61, offset: 0x75F61, size: 0x8, addend: 0x0, symName: __ZNKSt3__16vectorIN4data15ArbitrageSignalENS_9allocatorIS2_EEE8capacityB7v160006Ev, symObjAddr: 0x48708, symBinAddr: 0x10004AD64, symSize: 0xBC }
  - { offsetInCU: 0x75F87, offset: 0x75F87, size: 0x8, addend: 0x0, symName: __ZNKSt3__16vectorIN4data15ArbitrageSignalENS_9allocatorIS2_EEE8max_sizeEv, symObjAddr: 0x487C4, symBinAddr: 0x10004AE20, symSize: 0x2FC }
  - { offsetInCU: 0x75FB0, offset: 0x75FB0, size: 0x8, addend: 0x0, symName: __ZNKSt3__16vectorIN4data15ArbitrageSignalENS_9allocatorIS2_EEE20__throw_length_errorB7v160006Ev, symObjAddr: 0x48AC0, symBinAddr: 0x10004B11C, symSize: 0x20 }
  - { offsetInCU: 0x75FD6, offset: 0x75FD6, size: 0x8, addend: 0x0, symName: __ZNSt3__16vectorIN4data15ArbitrageSignalENS_9allocatorIS2_EEE7__allocB7v160006Ev, symObjAddr: 0x48AE0, symBinAddr: 0x10004B13C, symSize: 0x28 }
  - { offsetInCU: 0x75FFC, offset: 0x75FFC, size: 0x8, addend: 0x0, symName: __ZNSt3__114__split_bufferIN4data15ArbitrageSignalERNS_9allocatorIS2_EEEC1EmmS5_, symObjAddr: 0x48B08, symBinAddr: 0x10004B164, symSize: 0x44 }
  - { offsetInCU: 0x76055, offset: 0x76055, size: 0x8, addend: 0x0, symName: __ZNSt3__114__split_bufferIN4data15ArbitrageSignalERNS_9allocatorIS2_EEED1Ev, symObjAddr: 0x490C0, symBinAddr: 0x10004B71C, symSize: 0x2C }
  - { offsetInCU: 0x76081, offset: 0x76081, size: 0x8, addend: 0x0, symName: __ZNKSt3__16vectorIN4data15ArbitrageSignalENS_9allocatorIS2_EEE9__end_capB7v160006Ev, symObjAddr: 0x490EC, symBinAddr: 0x10004B748, symSize: 0x28 }
  - { offsetInCU: 0x760A7, offset: 0x760A7, size: 0x8, addend: 0x0, symName: __ZNKSt3__117__compressed_pairIPN4data15ArbitrageSignalENS_9allocatorIS2_EEE5firstB7v160006Ev, symObjAddr: 0x49114, symBinAddr: 0x10004B770, symSize: 0x24 }
  - { offsetInCU: 0x760CD, offset: 0x760CD, size: 0x8, addend: 0x0, symName: __ZNKSt3__122__compressed_pair_elemIPN4data15ArbitrageSignalELi0ELb0EE5__getB7v160006Ev, symObjAddr: 0x49138, symBinAddr: 0x10004B794, symSize: 0x14 }
  - { offsetInCU: 0x760FE, offset: 0x760FE, size: 0x8, addend: 0x0, symName: __ZNSt3__116allocator_traitsINS_9allocatorIN4data15ArbitrageSignalEEEE8max_sizeB7v160006IS4_vvEEmRKS4_, symObjAddr: 0x4914C, symBinAddr: 0x10004B7A8, symSize: 0x28 }
  - { offsetInCU: 0x7612A, offset: 0x7612A, size: 0x8, addend: 0x0, symName: __ZNKSt3__16vectorIN4data15ArbitrageSignalENS_9allocatorIS2_EEE7__allocB7v160006Ev, symObjAddr: 0x49174, symBinAddr: 0x10004B7D0, symSize: 0x28 }
  - { offsetInCU: 0x76150, offset: 0x76150, size: 0x8, addend: 0x0, symName: __ZNKSt3__117__compressed_pairIPN4data15ArbitrageSignalENS_9allocatorIS2_EEE6secondB7v160006Ev, symObjAddr: 0x4919C, symBinAddr: 0x10004B7F8, symSize: 0x24 }
  - { offsetInCU: 0x76176, offset: 0x76176, size: 0x8, addend: 0x0, symName: __ZNKSt3__122__compressed_pair_elemINS_9allocatorIN4data15ArbitrageSignalEEELi1ELb1EE5__getB7v160006Ev, symObjAddr: 0x491C0, symBinAddr: 0x10004B81C, symSize: 0x14 }
  - { offsetInCU: 0x7619C, offset: 0x7619C, size: 0x8, addend: 0x0, symName: __ZNSt3__117__compressed_pairIPN4data15ArbitrageSignalENS_9allocatorIS2_EEE6secondB7v160006Ev, symObjAddr: 0x491D4, symBinAddr: 0x10004B830, symSize: 0x24 }
  - { offsetInCU: 0x761C2, offset: 0x761C2, size: 0x8, addend: 0x0, symName: __ZNSt3__122__compressed_pair_elemINS_9allocatorIN4data15ArbitrageSignalEEELi1ELb1EE5__getB7v160006Ev, symObjAddr: 0x491F8, symBinAddr: 0x10004B854, symSize: 0x14 }
  - { offsetInCU: 0x761E8, offset: 0x761E8, size: 0x8, addend: 0x0, symName: __ZNSt3__114__split_bufferIN4data15ArbitrageSignalERNS_9allocatorIS2_EEEC2EmmS5_, symObjAddr: 0x4920C, symBinAddr: 0x10004B868, symSize: 0x530 }
  - { offsetInCU: 0x76267, offset: 0x76267, size: 0x8, addend: 0x0, symName: __ZNSt3__117__compressed_pairIPN4data15ArbitrageSignalERNS_9allocatorIS2_EEEC1B7v160006IDnS6_EEOT_OT0_, symObjAddr: 0x4973C, symBinAddr: 0x10004BD98, symSize: 0x3C }
  - { offsetInCU: 0x762C1, offset: 0x762C1, size: 0x8, addend: 0x0, symName: __ZNSt3__114__split_bufferIN4data15ArbitrageSignalERNS_9allocatorIS2_EEE7__allocB7v160006Ev, symObjAddr: 0x49A04, symBinAddr: 0x10004C060, symSize: 0x28 }
  - { offsetInCU: 0x762E7, offset: 0x762E7, size: 0x8, addend: 0x0, symName: __ZNSt3__114__split_bufferIN4data15ArbitrageSignalERNS_9allocatorIS2_EEE9__end_capB7v160006Ev, symObjAddr: 0x49A2C, symBinAddr: 0x10004C088, symSize: 0x28 }
  - { offsetInCU: 0x7630D, offset: 0x7630D, size: 0x8, addend: 0x0, symName: __ZNSt3__117__compressed_pairIPN4data15ArbitrageSignalERNS_9allocatorIS2_EEEC2B7v160006IDnS6_EEOT_OT0_, symObjAddr: 0x49A54, symBinAddr: 0x10004C0B0, symSize: 0x48 }
  - { offsetInCU: 0x76367, offset: 0x76367, size: 0x8, addend: 0x0, symName: __ZNSt3__122__compressed_pair_elemIRNS_9allocatorIN4data15ArbitrageSignalEEELi1ELb0EEC2B7v160006IS5_vEEOT_, symObjAddr: 0x49A9C, symBinAddr: 0x10004C0F8, symSize: 0x70 }
  - { offsetInCU: 0x763AA, offset: 0x763AA, size: 0x8, addend: 0x0, symName: __ZNSt3__19allocatorIN4data15ArbitrageSignalEE8allocateB7v160006Em, symObjAddr: 0x49B0C, symBinAddr: 0x10004C168, symSize: 0x60 }
  - { offsetInCU: 0x763DF, offset: 0x763DF, size: 0x8, addend: 0x0, symName: __ZNSt3__117__compressed_pairIPN4data15ArbitrageSignalERNS_9allocatorIS2_EEE6secondB7v160006Ev, symObjAddr: 0x49B6C, symBinAddr: 0x10004C1C8, symSize: 0x28 }
  - { offsetInCU: 0x76405, offset: 0x76405, size: 0x8, addend: 0x0, symName: __ZNSt3__122__compressed_pair_elemIRNS_9allocatorIN4data15ArbitrageSignalEEELi1ELb0EE5__getB7v160006Ev, symObjAddr: 0x49B94, symBinAddr: 0x10004C1F0, symSize: 0x60 }
  - { offsetInCU: 0x7642B, offset: 0x7642B, size: 0x8, addend: 0x0, symName: __ZNSt3__117__compressed_pairIPN4data15ArbitrageSignalERNS_9allocatorIS2_EEE5firstB7v160006Ev, symObjAddr: 0x49BF4, symBinAddr: 0x10004C250, symSize: 0x24 }
  - { offsetInCU: 0x76451, offset: 0x76451, size: 0x8, addend: 0x0, symName: __ZNSt3__122__compressed_pair_elemIPN4data15ArbitrageSignalELi0ELb0EE5__getB7v160006Ev, symObjAddr: 0x49C18, symBinAddr: 0x10004C274, symSize: 0x14 }
  - { offsetInCU: 0x76477, offset: 0x76477, size: 0x8, addend: 0x0, symName: __ZNKSt3__16vectorIN4data15ArbitrageSignalENS_9allocatorIS2_EEE17__annotate_deleteB7v160006Ev, symObjAddr: 0x49C2C, symBinAddr: 0x10004C288, symSize: 0xE8 }
  - { offsetInCU: 0x7649D, offset: 0x7649D, size: 0x8, addend: 0x0, symName: __ZNSt3__116reverse_iteratorIPN4data15ArbitrageSignalEEC1B7v160006ES3_, symObjAddr: 0x4A1BC, symBinAddr: 0x10004C818, symSize: 0x34 }
  - { offsetInCU: 0x764D6, offset: 0x764D6, size: 0x8, addend: 0x0, symName: __ZNKSt3__116reverse_iteratorIPN4data15ArbitrageSignalEE4baseB7v160006Ev, symObjAddr: 0x4A1F0, symBinAddr: 0x10004C84C, symSize: 0x64 }
  - { offsetInCU: 0x764FC, offset: 0x764FC, size: 0x8, addend: 0x0, symName: __ZNSt3__16vectorIN4data15ArbitrageSignalENS_9allocatorIS2_EEE9__end_capB7v160006Ev, symObjAddr: 0x4A388, symBinAddr: 0x10004C9E4, symSize: 0x28 }
  - { offsetInCU: 0x76522, offset: 0x76522, size: 0x8, addend: 0x0, symName: __ZNKSt3__16vectorIN4data15ArbitrageSignalENS_9allocatorIS2_EEE14__annotate_newB7v160006Em, symObjAddr: 0x4A3B0, symBinAddr: 0x10004CA0C, symSize: 0xDC }
  - { offsetInCU: 0x76557, offset: 0x76557, size: 0x8, addend: 0x0, symName: __ZNKSt3__16vectorIN4data15ArbitrageSignalENS_9allocatorIS2_EEE31__annotate_contiguous_containerEPKvS7_S7_S7_, symObjAddr: 0x4A49C, symBinAddr: 0x10004CAF8, symSize: 0x58 }
  - { offsetInCU: 0x765B9, offset: 0x765B9, size: 0x8, addend: 0x0, symName: __ZNKSt3__16vectorIN4data15ArbitrageSignalENS_9allocatorIS2_EEE4dataB7v160006Ev, symObjAddr: 0x4A4F4, symBinAddr: 0x10004CB50, symSize: 0x64 }
  - { offsetInCU: 0x765FC, offset: 0x765FC, size: 0x8, addend: 0x0, symName: __ZNKSt3__111__move_loopINS_17_ClassicAlgPolicyEEclB7v160006INS_16reverse_iteratorIPN4data15ArbitrageSignalEEES8_S8_EENS_4pairIT_T1_EESA_T0_SB_, symObjAddr: 0x4BE40, symBinAddr: 0x10004E49C, symSize: 0x344 }
  - { offsetInCU: 0x76677, offset: 0x76677, size: 0x8, addend: 0x0, symName: __ZNSt3__119__unwrap_range_implINS_16reverse_iteratorIPN4data15ArbitrageSignalEEES5_E8__unwrapB7v160006ES5_S5_, symObjAddr: 0x4CC64, symBinAddr: 0x10004F2C0, symSize: 0x448 }
  - { offsetInCU: 0x766B8, offset: 0x766B8, size: 0x8, addend: 0x0, symName: __ZNSt3__14pairINS_16reverse_iteratorIPN4data15ArbitrageSignalEEES5_EC1B7v160006IS5_S5_LPv0EEEOT_OT0_, symObjAddr: 0x4D0AC, symBinAddr: 0x10004F708, symSize: 0x3C }
  - { offsetInCU: 0x76718, offset: 0x76718, size: 0x8, addend: 0x0, symName: __ZNSt3__14pairINS_16reverse_iteratorIPN4data15ArbitrageSignalEEES5_EC2B7v160006IS5_S5_LPv0EEEOT_OT0_, symObjAddr: 0x4D0E8, symBinAddr: 0x10004F744, symSize: 0x54 }
  - { offsetInCU: 0x7677E, offset: 0x7677E, size: 0x8, addend: 0x0, symName: __ZNSt3__18_IterOpsINS_17_ClassicAlgPolicyEE11__iter_moveB7v160006IRNS_16reverse_iteratorIPN4data15ArbitrageSignalEEEEENS_9enable_ifIXsr12is_referenceIDTdeclsr3stdE7declvalIRT_EEEEE5valueEDTclsr3stdE4movedeclsr3stdE7declvalISC_EEEEE4typeEOSB_, symObjAddr: 0x4D184, symBinAddr: 0x10004F7E0, symSize: 0x28 }
  - { offsetInCU: 0x767AB, offset: 0x767AB, size: 0x8, addend: 0x0, symName: __ZNKSt3__116reverse_iteratorIPN4data15ArbitrageSignalEEdeB7v160006Ev, symObjAddr: 0x4D1AC, symBinAddr: 0x10004F808, symSize: 0x74 }
  - { offsetInCU: 0x767E0, offset: 0x767E0, size: 0x8, addend: 0x0, symName: __ZNSt3__116reverse_iteratorIPN4data15ArbitrageSignalEEppB7v160006Ev, symObjAddr: 0x4D220, symBinAddr: 0x10004F87C, symSize: 0x6C }
  - { offsetInCU: 0x76806, offset: 0x76806, size: 0x8, addend: 0x0, symName: __ZNSt3__18_IterOpsINS_17_ClassicAlgPolicyEE25__validate_iter_referenceB7v160006IRNS_16reverse_iteratorIPN4data15ArbitrageSignalEEEEEvv, symObjAddr: 0x4D28C, symBinAddr: 0x10004F8E8, symSize: 0x4 }
  - { offsetInCU: 0x76824, offset: 0x76824, size: 0x8, addend: 0x0, symName: __ZNSt3__118__unwrap_iter_implINS_16reverse_iteratorIPN4data15ArbitrageSignalEEELb0EE8__unwrapB7v160006ES5_, symObjAddr: 0x4D290, symBinAddr: 0x10004F8EC, symSize: 0x274 }
  - { offsetInCU: 0x7684C, offset: 0x7684C, size: 0x8, addend: 0x0, symName: __ZNSt3__119__unwrap_range_implINS_16reverse_iteratorIPN4data15ArbitrageSignalEEES5_E8__rewrapB7v160006ES5_S5_, symObjAddr: 0x4D504, symBinAddr: 0x10004FB60, symSize: 0x3D4 }
  - { offsetInCU: 0x76887, offset: 0x76887, size: 0x8, addend: 0x0, symName: __ZNSt3__118__unwrap_iter_implINS_16reverse_iteratorIPN4data15ArbitrageSignalEEELb0EE8__rewrapB7v160006ES5_S5_, symObjAddr: 0x4D8D8, symBinAddr: 0x10004FF34, symSize: 0x2E0 }
  - { offsetInCU: 0x768BD, offset: 0x768BD, size: 0x8, addend: 0x0, symName: __ZNSt3__116reverse_iteratorIPN4data15ArbitrageSignalEEC2B7v160006ES3_, symObjAddr: 0x4DBB8, symBinAddr: 0x100050214, symSize: 0xB8 }
  - { offsetInCU: 0x768F6, offset: 0x768F6, size: 0x8, addend: 0x0, symName: __ZNSt3__117__compressed_pairIPN4data15ArbitrageSignalENS_9allocatorIS2_EEE5firstB7v160006Ev, symObjAddr: 0x4DC70, symBinAddr: 0x1000502CC, symSize: 0x24 }
  - { offsetInCU: 0x7691C, offset: 0x7691C, size: 0x8, addend: 0x0, symName: __ZNSt3__114__split_bufferIN4data15ArbitrageSignalERNS_9allocatorIS2_EEED2Ev, symObjAddr: 0x4DC94, symBinAddr: 0x1000502F0, symSize: 0x104 }
  - { offsetInCU: 0x76948, offset: 0x76948, size: 0x8, addend: 0x0, symName: __ZNSt3__114__split_bufferIN4data15ArbitrageSignalERNS_9allocatorIS2_EEE5clearB7v160006Ev, symObjAddr: 0x4DD98, symBinAddr: 0x1000503F4, symSize: 0x68 }
  - { offsetInCU: 0x7696E, offset: 0x7696E, size: 0x8, addend: 0x0, symName: __ZNSt3__116allocator_traitsINS_9allocatorIN4data15ArbitrageSignalEEEE10deallocateB7v160006ERS4_PS3_m, symObjAddr: 0x4DE00, symBinAddr: 0x10005045C, symSize: 0x34 }
  - { offsetInCU: 0x769B0, offset: 0x769B0, size: 0x8, addend: 0x0, symName: __ZNKSt3__114__split_bufferIN4data15ArbitrageSignalERNS_9allocatorIS2_EEE8capacityB7v160006Ev, symObjAddr: 0x4DE34, symBinAddr: 0x100050490, symSize: 0xBC }
  - { offsetInCU: 0x769D6, offset: 0x769D6, size: 0x8, addend: 0x0, symName: __ZNSt3__114__split_bufferIN4data15ArbitrageSignalERNS_9allocatorIS2_EEE17__destruct_at_endB7v160006EPS2_, symObjAddr: 0x4DEF0, symBinAddr: 0x10005054C, symSize: 0x2C }
  - { offsetInCU: 0x76A0B, offset: 0x76A0B, size: 0x8, addend: 0x0, symName: __ZNSt3__114__split_bufferIN4data15ArbitrageSignalERNS_9allocatorIS2_EEE17__destruct_at_endB7v160006EPS2_NS_17integral_constantIbLb0EEE, symObjAddr: 0x4DF1C, symBinAddr: 0x100050578, symSize: 0x10C }
  - { offsetInCU: 0x76A4C, offset: 0x76A4C, size: 0x8, addend: 0x0, symName: __ZNSt3__116allocator_traitsINS_9allocatorIN4data15ArbitrageSignalEEEE7destroyB7v160006IS3_vvEEvRS4_PT_, symObjAddr: 0x4E028, symBinAddr: 0x100050684, symSize: 0x28 }
  - { offsetInCU: 0x76A87, offset: 0x76A87, size: 0x8, addend: 0x0, symName: __ZNSt3__19allocatorIN4data15ArbitrageSignalEE10deallocateB7v160006EPS2_m, symObjAddr: 0x4E084, symBinAddr: 0x1000506E0, symSize: 0x50 }
  - { offsetInCU: 0x76ACB, offset: 0x76ACB, size: 0x8, addend: 0x0, symName: __ZNKSt3__114__split_bufferIN4data15ArbitrageSignalERNS_9allocatorIS2_EEE9__end_capB7v160006Ev, symObjAddr: 0x4E0D4, symBinAddr: 0x100050730, symSize: 0x28 }
  - { offsetInCU: 0x76AF1, offset: 0x76AF1, size: 0x8, addend: 0x0, symName: __ZNKSt3__117__compressed_pairIPN4data15ArbitrageSignalERNS_9allocatorIS2_EEE5firstB7v160006Ev, symObjAddr: 0x4E0FC, symBinAddr: 0x100050758, symSize: 0x24 }
  - { offsetInCU: 0x76B17, offset: 0x76B17, size: 0x8, addend: 0x0, symName: __ZNKSt3__16vectorIN4data15CorrelationPairENS_9allocatorIS2_EEE11__make_iterB7v160006EPKS2_, symObjAddr: 0x4E120, symBinAddr: 0x10005077C, symSize: 0x200 }
  - { offsetInCU: 0x76B4E, offset: 0x76B4E, size: 0x8, addend: 0x0, symName: __ZNSt3__111__wrap_iterIPKN4data15CorrelationPairEEC1B7v160006EPKvS4_, symObjAddr: 0x4E320, symBinAddr: 0x10005097C, symSize: 0x3C }
  - { offsetInCU: 0x76B96, offset: 0x76B96, size: 0x8, addend: 0x0, symName: __ZNSt3__111__wrap_iterIPKN4data15CorrelationPairEEC2B7v160006EPKvS4_, symObjAddr: 0x4E35C, symBinAddr: 0x1000509B8, symSize: 0x74 }
  - { offsetInCU: 0x76BDE, offset: 0x76BDE, size: 0x8, addend: 0x0, symName: __ZNKSt3__111__wrap_iterIPKN4data15CorrelationPairEE4baseB7v160006Ev, symObjAddr: 0x4E418, symBinAddr: 0x100050A74, symSize: 0x60 }
  - { offsetInCU: 0x76C04, offset: 0x76C04, size: 0x8, addend: 0x0, symName: __ZNKSt3__16vectorIN4data11MarketPriceENS_9allocatorIS2_EEE11__make_iterB7v160006EPKS2_, symObjAddr: 0x4E478, symBinAddr: 0x100050AD4, symSize: 0x200 }
  - { offsetInCU: 0x76C3B, offset: 0x76C3B, size: 0x8, addend: 0x0, symName: __ZNSt3__111__wrap_iterIPKN4data11MarketPriceEEC1B7v160006EPKvS4_, symObjAddr: 0x4E678, symBinAddr: 0x100050CD4, symSize: 0x3C }
  - { offsetInCU: 0x76C83, offset: 0x76C83, size: 0x8, addend: 0x0, symName: __ZNSt3__111__wrap_iterIPKN4data11MarketPriceEEC2B7v160006EPKvS4_, symObjAddr: 0x4E6B4, symBinAddr: 0x100050D10, symSize: 0x74 }
  - { offsetInCU: 0x76CCB, offset: 0x76CCB, size: 0x8, addend: 0x0, symName: __ZNKSt3__111__wrap_iterIPKN4data11MarketPriceEE4baseB7v160006Ev, symObjAddr: 0x4E770, symBinAddr: 0x100050DCC, symSize: 0x60 }
  - { offsetInCU: 0x76CF1, offset: 0x76CF1, size: 0x8, addend: 0x0, symName: __Z3absB7v160006d, symObjAddr: 0x4E7D0, symBinAddr: 0x100050E2C, symSize: 0x18 }
  - { offsetInCU: 0x76D1F, offset: 0x76D1F, size: 0x8, addend: 0x0, symName: __ZNSt3__16vectorIN4data15ArbitrageSignalENS_9allocatorIS2_EEE22__construct_one_at_endB7v160006IJRKS2_EEEvDpOT_, symObjAddr: 0x4E7E8, symBinAddr: 0x100050E44, symSize: 0x36C }
  - { offsetInCU: 0x76D74, offset: 0x76D74, size: 0x8, addend: 0x0, symName: __ZNSt3__16vectorIN4data15ArbitrageSignalENS_9allocatorIS2_EEE21__push_back_slow_pathIRKS2_EEvOT_, symObjAddr: 0x4EB54, symBinAddr: 0x1000511B0, symSize: 0x3C0 }
  - { offsetInCU: 0x76DF5, offset: 0x76DF5, size: 0x8, addend: 0x0, symName: __ZNSt3__16vectorIN4data15ArbitrageSignalENS_9allocatorIS2_EEE21_ConstructTransactionC1B7v160006ERS5_m, symObjAddr: 0x4EF14, symBinAddr: 0x100051570, symSize: 0x3C }
  - { offsetInCU: 0x76E3D, offset: 0x76E3D, size: 0x8, addend: 0x0, symName: __ZNSt3__116allocator_traitsINS_9allocatorIN4data15ArbitrageSignalEEEE9constructB7v160006IS3_JRKS3_EvvEEvRS4_PT_DpOT0_, symObjAddr: 0x4EF50, symBinAddr: 0x1000515AC, symSize: 0x30 }
  - { offsetInCU: 0x76E92, offset: 0x76E92, size: 0x8, addend: 0x0, symName: __ZNSt3__16vectorIN4data15ArbitrageSignalENS_9allocatorIS2_EEE21_ConstructTransactionD1B7v160006Ev, symObjAddr: 0x4EF80, symBinAddr: 0x1000515DC, symSize: 0x2C }
  - { offsetInCU: 0x76EBC, offset: 0x76EBC, size: 0x8, addend: 0x0, symName: __ZNSt3__16vectorIN4data15ArbitrageSignalENS_9allocatorIS2_EEE21_ConstructTransactionC2B7v160006ERS5_m, symObjAddr: 0x4EFAC, symBinAddr: 0x100051608, symSize: 0x1D8 }
  - { offsetInCU: 0x76F04, offset: 0x76F04, size: 0x8, addend: 0x0, symName: __ZNKSt3__16vectorIN4data15ArbitrageSignalENS_9allocatorIS2_EEE19__annotate_increaseB7v160006Em, symObjAddr: 0x4F184, symBinAddr: 0x1000517E0, symSize: 0xF8 }
  - { offsetInCU: 0x76F39, offset: 0x76F39, size: 0x8, addend: 0x0, symName: __ZNSt3__16vectorIN4data15ArbitrageSignalENS_9allocatorIS2_EEE21_ConstructTransactionD2B7v160006Ev, symObjAddr: 0x4F2BC, symBinAddr: 0x100051918, symSize: 0x278 }
  - { offsetInCU: 0x76F63, offset: 0x76F63, size: 0x8, addend: 0x0, symName: __ZNKSt3__16vectorIN4data15ArbitrageSignalENS_9allocatorIS2_EEE17__annotate_shrinkB7v160006Em, symObjAddr: 0x4F534, symBinAddr: 0x100051B90, symSize: 0xE4 }
  - { offsetInCU: 0x76F98, offset: 0x76F98, size: 0x8, addend: 0x0, symName: __ZNKSt3__16vectorIN4data15ArbitrageSignalENS_9allocatorIS2_EEE11__recommendB7v160006Em, symObjAddr: 0x4F618, symBinAddr: 0x100051C74, symSize: 0x384 }
  - { offsetInCU: 0x76FF4, offset: 0x76FF4, size: 0x8, addend: 0x0, symName: __ZNSt3__16vectorIN4data15ArbitrageSignalENS_9allocatorIS2_EEED2B7v160006Ev, symObjAddr: 0x4F99C, symBinAddr: 0x100051FF8, symSize: 0x1F8 }
  - { offsetInCU: 0x7701F, offset: 0x7701F, size: 0x8, addend: 0x0, symName: __ZNSt3__16vectorIN4data15ArbitrageSignalENS_9allocatorIS2_EEE16__destroy_vectorC1ERS5_, symObjAddr: 0x4FB94, symBinAddr: 0x1000521F0, symSize: 0x34 }
  - { offsetInCU: 0x77058, offset: 0x77058, size: 0x8, addend: 0x0, symName: __ZNSt3__16vectorIN4data15ArbitrageSignalENS_9allocatorIS2_EEE16__destroy_vectorclB7v160006Ev, symObjAddr: 0x4FBC8, symBinAddr: 0x100052224, symSize: 0x264 }
  - { offsetInCU: 0x7707E, offset: 0x7707E, size: 0x8, addend: 0x0, symName: __ZNSt3__16vectorIN4data15ArbitrageSignalENS_9allocatorIS2_EEE16__destroy_vectorC2ERS5_, symObjAddr: 0x4FE2C, symBinAddr: 0x100052488, symSize: 0x70 }
  - { offsetInCU: 0x770B7, offset: 0x770B7, size: 0x8, addend: 0x0, symName: __ZNSt3__16vectorIN4data15ArbitrageSignalENS_9allocatorIS2_EEE7__clearB7v160006Ev, symObjAddr: 0x4FEAC, symBinAddr: 0x100052508, symSize: 0x64 }
  - { offsetInCU: 0x770DD, offset: 0x770DD, size: 0x8, addend: 0x0, symName: __ZNSt3__16vectorIN4data15ArbitrageSignalENS_9allocatorIS2_EEE22__base_destruct_at_endB7v160006EPS2_, symObjAddr: 0x4FF10, symBinAddr: 0x10005256C, symSize: 0x114 }
  - { offsetInCU: 0x77121, offset: 0x77121, size: 0x8, addend: 0x0, symName: __ZNSt3__16vectorIN4data11MarketPriceENS_9allocatorIS2_EEED2B7v160006Ev, symObjAddr: 0x50024, symBinAddr: 0x100052680, symSize: 0x1F8 }
  - { offsetInCU: 0x7714C, offset: 0x7714C, size: 0x8, addend: 0x0, symName: __ZNSt3__16vectorIN4data11MarketPriceENS_9allocatorIS2_EEE16__destroy_vectorC1ERS5_, symObjAddr: 0x5021C, symBinAddr: 0x100052878, symSize: 0x34 }
  - { offsetInCU: 0x77185, offset: 0x77185, size: 0x8, addend: 0x0, symName: __ZNSt3__16vectorIN4data11MarketPriceENS_9allocatorIS2_EEE16__destroy_vectorclB7v160006Ev, symObjAddr: 0x50250, symBinAddr: 0x1000528AC, symSize: 0x264 }
